---
archs:           [ armv7, armv7s, arm64 ]
platform:        ios
install-name:    /var/lib/libswift/3.0.2/libswiftRemoteMirror.dylib
current-version: 0.0
compatibility-version: 0.0
exports:         
  - archs:           [ armv7, armv7s ]
    symbols:         [ ' stub helpers', __ZN12_GLOBAL__N_19Demangler16demangleTopLevelEv, 
                       '__ZNSt3__112basic_stringIcNS_11char_traitsIcEENS_9allocatorIcEEE6appendEPKcm$shim', 
                       '__ZNSt3__112basic_stringIcNS_11char_traitsIcEENS_9allocatorIcEEE9push_backEc$shim', 
                       '__ZNSt3__119__shared_weak_count16__release_sharedEv$shim', 
                       '__ZNSt3__119__shared_weak_countD2Ev$shim', '__ZdlPv$shim', 
                       '_memset_pattern16$shim' ]
    weak-def-symbols: [ __ZN5swift6remote14MetadataReaderINS_8ExternalINS_13RuntimeTargetILj4EEEEENS_10reflection14TypeRefBuilderEE20readTypeFromMetadataEj, 
                        __ZN4llvm12DenseMapBaseINS_8DenseMapINSt3__14pairIjjEEPKN5swift10reflection7TypeRefENS_12DenseMapInfoIS4_EENS_6detail12DenseMapPairIS4_S9_EEEES4_S9_SB_SE_E6insertINS_16DenseMapIteratorIS4_S9_SB_SE_Lb0EEEEEvT_SK_, 
                        __ZN5swift10reflection17ReflectionContextINS_8ExternalINS_13RuntimeTargetILj4EEEEEE18projectExistentialENS_6remote13RemoteAddressEPKNS0_7TypeRefEPSB_PS8_, 
                        __ZN5swift10reflection17ReflectionContextINS_8ExternalINS_13RuntimeTargetILj4EEEEEE18readMetadataSourceEjPKNS0_14MetadataSourceERKNS0_21RecordTypeInfoBuilderE, 
                        __ZN5swift10reflection17ReflectionContextINS_8ExternalINS_13RuntimeTargetILj4EEEEEE19getInstanceTypeInfoEj, 
                        __ZN5swift10reflection17ReflectionContextINS_8ExternalINS_13RuntimeTargetILj4EEEEEE19getMetadataTypeInfoEj, 
                        __ZN5swift10reflection17ReflectionContextINS_8ExternalINS_13RuntimeTargetILj4EEEEEE21getClosureContextInfoEjRKNS0_18ClosureContextInfoE, 
                        __ZN5swift6remote14MetadataReaderINS_8ExternalINS_13RuntimeTargetILj4EEEEENS_10reflection14TypeRefBuilderEE12readMetadataEj, 
                        __ZN5swift6remote14MetadataReaderINS_8ExternalINS_13RuntimeTargetILj4EEEEENS_10reflection14TypeRefBuilderEE13_readMetadataEjm, 
                        __ZN5swift6remote14MetadataReaderINS_8ExternalINS_13RuntimeTargetILj4EEEEENS_10reflection14TypeRefBuilderEE15getGenericSubstENS0_9RemoteRefIS5_NS_14TargetMetadataIS5_EEEENS9_IS5_NS_27TargetNominalTypeDescriptorIS5_EEEE, 
                        __ZN5swift6remote14MetadataReaderINS_8ExternalINS_13RuntimeTargetILj4EEEEENS_10reflection14TypeRefBuilderEE17readObjCRODataPtrEj, 
                        __ZN5swift6remote14MetadataReaderINS_8ExternalINS_13RuntimeTargetILj4EEEEENS_10reflection14TypeRefBuilderEE22readParentFromMetadataEj, 
                        __ZN5swift6remote14MetadataReaderINS_8ExternalINS_13RuntimeTargetILj4EEEEENS_10reflection14TypeRefBuilderEE24readMetadataFromInstanceEj, 
                        __ZN5swift6remote14MetadataReaderINS_8ExternalINS_13RuntimeTargetILj4EEEEENS_10reflection14TypeRefBuilderEE25readNominalTypeDescriptorEj, 
                        __ZN5swift6remote14MetadataReaderINS_8ExternalINS_13RuntimeTargetILj4EEEEENS_10reflection14TypeRefBuilderEE26readGenericArgFromMetadataEjj, 
                        __ZN5swift6remote14MetadataReaderINS_8ExternalINS_13RuntimeTargetILj4EEEEENS_10reflection14TypeRefBuilderEE27readNominalTypeFromMetadataENS0_9RemoteRefIS5_NS_14TargetMetadataIS5_EEEE, 
                        __ZNSt3__110shared_ptrIN5swift8Demangle4NodeEEC2IS3_EEPT_NS_9enable_ifIXsr14is_convertibleIS7_PS3_EE5valueENS4_5__natEE4typeE, 
                        __ZNSt3__112__hash_tableINS_17__hash_value_typeIN5swift10reflection9TypeRefIDEPKNS3_12TupleTypeRefEEENS_22__unordered_map_hasherIS4_S8_NS4_4HashELb1EEENS_21__unordered_map_equalIS4_S8_NS4_5EqualELb1EEENS_9allocatorIS8_EEE4findIS4_EENS_15__hash_iteratorIPNS_11__hash_nodeIS8_PvEEEERKT_, 
                        __ZNSt3__112__hash_tableINS_17__hash_value_typeIN5swift10reflection9TypeRefIDEPKNS3_12TupleTypeRefEEENS_22__unordered_map_hasherIS4_S8_NS4_4HashELb1EEENS_21__unordered_map_equalIS4_S8_NS4_5EqualELb1EEENS_9allocatorIS8_EEE6rehashEm, 
                        __ZNSt3__112__hash_tableINS_17__hash_value_typeIN5swift10reflection9TypeRefIDEPKNS3_12TupleTypeRefEEENS_22__unordered_map_hasherIS4_S8_NS4_4HashELb1EEENS_21__unordered_map_equalIS4_S8_NS4_5EqualELb1EEENS_9allocatorIS8_EEE8__rehashEm, 
                        __ZNSt3__112__hash_tableINS_17__hash_value_typeIN5swift10reflection9TypeRefIDEPKNS3_13SILBoxTypeRefEEENS_22__unordered_map_hasherIS4_S8_NS4_4HashELb1EEENS_21__unordered_map_equalIS4_S8_NS4_5EqualELb1EEENS_9allocatorIS8_EEE4findIS4_EENS_15__hash_iteratorIPNS_11__hash_nodeIS8_PvEEEERKT_, 
                        __ZNSt3__112__hash_tableINS_17__hash_value_typeIN5swift10reflection9TypeRefIDEPKNS3_13SILBoxTypeRefEEENS_22__unordered_map_hasherIS4_S8_NS4_4HashELb1EEENS_21__unordered_map_equalIS4_S8_NS4_5EqualELb1EEENS_9allocatorIS8_EEE6rehashEm, 
                        __ZNSt3__112__hash_tableINS_17__hash_value_typeIN5swift10reflection9TypeRefIDEPKNS3_13SILBoxTypeRefEEENS_22__unordered_map_hasherIS4_S8_NS4_4HashELb1EEENS_21__unordered_map_equalIS4_S8_NS4_5EqualELb1EEENS_9allocatorIS8_EEE8__rehashEm, 
                        __ZNSt3__112__hash_tableINS_17__hash_value_typeIN5swift10reflection9TypeRefIDEPKNS3_14BuiltinTypeRefEEENS_22__unordered_map_hasherIS4_S8_NS4_4HashELb1EEENS_21__unordered_map_equalIS4_S8_NS4_5EqualELb1EEENS_9allocatorIS8_EEE4findIS4_EENS_15__hash_iteratorIPNS_11__hash_nodeIS8_PvEEEERKT_, 
                        __ZNSt3__112__hash_tableINS_17__hash_value_typeIN5swift10reflection9TypeRefIDEPKNS3_14BuiltinTypeRefEEENS_22__unordered_map_hasherIS4_S8_NS4_4HashELb1EEENS_21__unordered_map_equalIS4_S8_NS4_5EqualELb1EEENS_9allocatorIS8_EEE6rehashEm, 
                        __ZNSt3__112__hash_tableINS_17__hash_value_typeIN5swift10reflection9TypeRefIDEPKNS3_14BuiltinTypeRefEEENS_22__unordered_map_hasherIS4_S8_NS4_4HashELb1EEENS_21__unordered_map_equalIS4_S8_NS4_5EqualELb1EEENS_9allocatorIS8_EEE8__rehashEm, 
                        __ZNSt3__112__hash_tableINS_17__hash_value_typeIN5swift10reflection9TypeRefIDEPKNS3_14NominalTypeRefEEENS_22__unordered_map_hasherIS4_S8_NS4_4HashELb1EEENS_21__unordered_map_equalIS4_S8_NS4_5EqualELb1EEENS_9allocatorIS8_EEE4findIS4_EENS_15__hash_iteratorIPNS_11__hash_nodeIS8_PvEEEERKT_, 
                        __ZNSt3__112__hash_tableINS_17__hash_value_typeIN5swift10reflection9TypeRefIDEPKNS3_14NominalTypeRefEEENS_22__unordered_map_hasherIS4_S8_NS4_4HashELb1EEENS_21__unordered_map_equalIS4_S8_NS4_5EqualELb1EEENS_9allocatorIS8_EEE6rehashEm, 
                        __ZNSt3__112__hash_tableINS_17__hash_value_typeIN5swift10reflection9TypeRefIDEPKNS3_14NominalTypeRefEEENS_22__unordered_map_hasherIS4_S8_NS4_4HashELb1EEENS_21__unordered_map_equalIS4_S8_NS4_5EqualELb1EEENS_9allocatorIS8_EEE8__rehashEm, 
                        __ZNSt3__112__hash_tableINS_17__hash_value_typeIN5swift10reflection9TypeRefIDEPKNS3_15FunctionTypeRefEEENS_22__unordered_map_hasherIS4_S8_NS4_4HashELb1EEENS_21__unordered_map_equalIS4_S8_NS4_5EqualELb1EEENS_9allocatorIS8_EEE4findIS4_EENS_15__hash_iteratorIPNS_11__hash_nodeIS8_PvEEEERKT_, 
                        __ZNSt3__112__hash_tableINS_17__hash_value_typeIN5swift10reflection9TypeRefIDEPKNS3_15FunctionTypeRefEEENS_22__unordered_map_hasherIS4_S8_NS4_4HashELb1EEENS_21__unordered_map_equalIS4_S8_NS4_5EqualELb1EEENS_9allocatorIS8_EEE6rehashEm, 
                        __ZNSt3__112__hash_tableINS_17__hash_value_typeIN5swift10reflection9TypeRefIDEPKNS3_15FunctionTypeRefEEENS_22__unordered_map_hasherIS4_S8_NS4_4HashELb1EEENS_21__unordered_map_equalIS4_S8_NS4_5EqualELb1EEENS_9allocatorIS8_EEE8__rehashEm, 
                        __ZNSt3__112__hash_tableINS_17__hash_value_typeIN5swift10reflection9TypeRefIDEPKNS3_15MetatypeTypeRefEEENS_22__unordered_map_hasherIS4_S8_NS4_4HashELb1EEENS_21__unordered_map_equalIS4_S8_NS4_5EqualELb1EEENS_9allocatorIS8_EEE4findIS4_EENS_15__hash_iteratorIPNS_11__hash_nodeIS8_PvEEEERKT_, 
                        __ZNSt3__112__hash_tableINS_17__hash_value_typeIN5swift10reflection9TypeRefIDEPKNS3_15MetatypeTypeRefEEENS_22__unordered_map_hasherIS4_S8_NS4_4HashELb1EEENS_21__unordered_map_equalIS4_S8_NS4_5EqualELb1EEENS_9allocatorIS8_EEE6rehashEm, 
                        __ZNSt3__112__hash_tableINS_17__hash_value_typeIN5swift10reflection9TypeRefIDEPKNS3_15MetatypeTypeRefEEENS_22__unordered_map_hasherIS4_S8_NS4_4HashELb1EEENS_21__unordered_map_equalIS4_S8_NS4_5EqualELb1EEENS_9allocatorIS8_EEE8__rehashEm, 
                        __ZNSt3__112__hash_tableINS_17__hash_value_typeIN5swift10reflection9TypeRefIDEPKNS3_15ProtocolTypeRefEEENS_22__unordered_map_hasherIS4_S8_NS4_4HashELb1EEENS_21__unordered_map_equalIS4_S8_NS4_5EqualELb1EEENS_9allocatorIS8_EEE4findIS4_EENS_15__hash_iteratorIPNS_11__hash_nodeIS8_PvEEEERKT_, 
                        __ZNSt3__112__hash_tableINS_17__hash_value_typeIN5swift10reflection9TypeRefIDEPKNS3_15ProtocolTypeRefEEENS_22__unordered_map_hasherIS4_S8_NS4_4HashELb1EEENS_21__unordered_map_equalIS4_S8_NS4_5EqualELb1EEENS_9allocatorIS8_EEE6rehashEm, 
                        __ZNSt3__112__hash_tableINS_17__hash_value_typeIN5swift10reflection9TypeRefIDEPKNS3_15ProtocolTypeRefEEENS_22__unordered_map_hasherIS4_S8_NS4_4HashELb1EEENS_21__unordered_map_equalIS4_S8_NS4_5EqualELb1EEENS_9allocatorIS8_EEE8__rehashEm, 
                        __ZNSt3__112__hash_tableINS_17__hash_value_typeIN5swift10reflection9TypeRefIDEPKNS3_16ObjCClassTypeRefEEENS_22__unordered_map_hasherIS4_S8_NS4_4HashELb1EEENS_21__unordered_map_equalIS4_S8_NS4_5EqualELb1EEENS_9allocatorIS8_EEE4findIS4_EENS_15__hash_iteratorIPNS_11__hash_nodeIS8_PvEEEERKT_, 
                        __ZNSt3__112__hash_tableINS_17__hash_value_typeIN5swift10reflection9TypeRefIDEPKNS3_16ObjCClassTypeRefEEENS_22__unordered_map_hasherIS4_S8_NS4_4HashELb1EEENS_21__unordered_map_equalIS4_S8_NS4_5EqualELb1EEENS_9allocatorIS8_EEE6rehashEm, 
                        __ZNSt3__112__hash_tableINS_17__hash_value_typeIN5swift10reflection9TypeRefIDEPKNS3_16ObjCClassTypeRefEEENS_22__unordered_map_hasherIS4_S8_NS4_4HashELb1EEENS_21__unordered_map_equalIS4_S8_NS4_5EqualELb1EEENS_9allocatorIS8_EEE8__rehashEm, 
                        __ZNSt3__112__hash_tableINS_17__hash_value_typeIN5swift10reflection9TypeRefIDEPKNS3_18WeakStorageTypeRefEEENS_22__unordered_map_hasherIS4_S8_NS4_4HashELb1EEENS_21__unordered_map_equalIS4_S8_NS4_5EqualELb1EEENS_9allocatorIS8_EEE4findIS4_EENS_15__hash_iteratorIPNS_11__hash_nodeIS8_PvEEEERKT_, 
                        __ZNSt3__112__hash_tableINS_17__hash_value_typeIN5swift10reflection9TypeRefIDEPKNS3_18WeakStorageTypeRefEEENS_22__unordered_map_hasherIS4_S8_NS4_4HashELb1EEENS_21__unordered_map_equalIS4_S8_NS4_5EqualELb1EEENS_9allocatorIS8_EEE6rehashEm, 
                        __ZNSt3__112__hash_tableINS_17__hash_value_typeIN5swift10reflection9TypeRefIDEPKNS3_18WeakStorageTypeRefEEENS_22__unordered_map_hasherIS4_S8_NS4_4HashELb1EEENS_21__unordered_map_equalIS4_S8_NS4_5EqualELb1EEENS_9allocatorIS8_EEE8__rehashEm, 
                        __ZNSt3__112__hash_tableINS_17__hash_value_typeIN5swift10reflection9TypeRefIDEPKNS3_19ForeignClassTypeRefEEENS_22__unordered_map_hasherIS4_S8_NS4_4HashELb1EEENS_21__unordered_map_equalIS4_S8_NS4_5EqualELb1EEENS_9allocatorIS8_EEE4findIS4_EENS_15__hash_iteratorIPNS_11__hash_nodeIS8_PvEEEERKT_, 
                        __ZNSt3__112__hash_tableINS_17__hash_value_typeIN5swift10reflection9TypeRefIDEPKNS3_19ForeignClassTypeRefEEENS_22__unordered_map_hasherIS4_S8_NS4_4HashELb1EEENS_21__unordered_map_equalIS4_S8_NS4_5EqualELb1EEENS_9allocatorIS8_EEE6rehashEm, 
                        __ZNSt3__112__hash_tableINS_17__hash_value_typeIN5swift10reflection9TypeRefIDEPKNS3_19ForeignClassTypeRefEEENS_22__unordered_map_hasherIS4_S8_NS4_4HashELb1EEENS_21__unordered_map_equalIS4_S8_NS4_5EqualELb1EEENS_9allocatorIS8_EEE8__rehashEm, 
                        __ZNSt3__112__hash_tableINS_17__hash_value_typeIN5swift10reflection9TypeRefIDEPKNS3_21UnownedStorageTypeRefEEENS_22__unordered_map_hasherIS4_S8_NS4_4HashELb1EEENS_21__unordered_map_equalIS4_S8_NS4_5EqualELb1EEENS_9allocatorIS8_EEE4findIS4_EENS_15__hash_iteratorIPNS_11__hash_nodeIS8_PvEEEERKT_, 
                        __ZNSt3__112__hash_tableINS_17__hash_value_typeIN5swift10reflection9TypeRefIDEPKNS3_21UnownedStorageTypeRefEEENS_22__unordered_map_hasherIS4_S8_NS4_4HashELb1EEENS_21__unordered_map_equalIS4_S8_NS4_5EqualELb1EEENS_9allocatorIS8_EEE6rehashEm, 
                        __ZNSt3__112__hash_tableINS_17__hash_value_typeIN5swift10reflection9TypeRefIDEPKNS3_21UnownedStorageTypeRefEEENS_22__unordered_map_hasherIS4_S8_NS4_4HashELb1EEENS_21__unordered_map_equalIS4_S8_NS4_5EqualELb1EEENS_9allocatorIS8_EEE8__rehashEm, 
                        __ZNSt3__112__hash_tableINS_17__hash_value_typeIN5swift10reflection9TypeRefIDEPKNS3_22DependentMemberTypeRefEEENS_22__unordered_map_hasherIS4_S8_NS4_4HashELb1EEENS_21__unordered_map_equalIS4_S8_NS4_5EqualELb1EEENS_9allocatorIS8_EEE4findIS4_EENS_15__hash_iteratorIPNS_11__hash_nodeIS8_PvEEEERKT_, 
                        __ZNSt3__112__hash_tableINS_17__hash_value_typeIN5swift10reflection9TypeRefIDEPKNS3_22DependentMemberTypeRefEEENS_22__unordered_map_hasherIS4_S8_NS4_4HashELb1EEENS_21__unordered_map_equalIS4_S8_NS4_5EqualELb1EEENS_9allocatorIS8_EEE6rehashEm, 
                        __ZNSt3__112__hash_tableINS_17__hash_value_typeIN5swift10reflection9TypeRefIDEPKNS3_22DependentMemberTypeRefEEENS_22__unordered_map_hasherIS4_S8_NS4_4HashELb1EEENS_21__unordered_map_equalIS4_S8_NS4_5EqualELb1EEENS_9allocatorIS8_EEE8__rehashEm, 
                        __ZNSt3__112__hash_tableINS_17__hash_value_typeIN5swift10reflection9TypeRefIDEPKNS3_23UnmanagedStorageTypeRefEEENS_22__unordered_map_hasherIS4_S8_NS4_4HashELb1EEENS_21__unordered_map_equalIS4_S8_NS4_5EqualELb1EEENS_9allocatorIS8_EEE4findIS4_EENS_15__hash_iteratorIPNS_11__hash_nodeIS8_PvEEEERKT_, 
                        __ZNSt3__112__hash_tableINS_17__hash_value_typeIN5swift10reflection9TypeRefIDEPKNS3_23UnmanagedStorageTypeRefEEENS_22__unordered_map_hasherIS4_S8_NS4_4HashELb1EEENS_21__unordered_map_equalIS4_S8_NS4_5EqualELb1EEENS_9allocatorIS8_EEE6rehashEm, 
                        __ZNSt3__112__hash_tableINS_17__hash_value_typeIN5swift10reflection9TypeRefIDEPKNS3_23UnmanagedStorageTypeRefEEENS_22__unordered_map_hasherIS4_S8_NS4_4HashELb1EEENS_21__unordered_map_equalIS4_S8_NS4_5EqualELb1EEENS_9allocatorIS8_EEE8__rehashEm, 
                        __ZNSt3__112__hash_tableINS_17__hash_value_typeIN5swift10reflection9TypeRefIDEPKNS3_26ExistentialMetatypeTypeRefEEENS_22__unordered_map_hasherIS4_S8_NS4_4HashELb1EEENS_21__unordered_map_equalIS4_S8_NS4_5EqualELb1EEENS_9allocatorIS8_EEE4findIS4_EENS_15__hash_iteratorIPNS_11__hash_nodeIS8_PvEEEERKT_, 
                        __ZNSt3__112__hash_tableINS_17__hash_value_typeIN5swift10reflection9TypeRefIDEPKNS3_26ExistentialMetatypeTypeRefEEENS_22__unordered_map_hasherIS4_S8_NS4_4HashELb1EEENS_21__unordered_map_equalIS4_S8_NS4_5EqualELb1EEENS_9allocatorIS8_EEE6rehashEm, 
                        __ZNSt3__112__hash_tableINS_17__hash_value_typeIN5swift10reflection9TypeRefIDEPKNS3_26ExistentialMetatypeTypeRefEEENS_22__unordered_map_hasherIS4_S8_NS4_4HashELb1EEENS_21__unordered_map_equalIS4_S8_NS4_5EqualELb1EEENS_9allocatorIS8_EEE8__rehashEm, 
                        __ZNSt3__112__hash_tableINS_17__hash_value_typeIN5swift10reflection9TypeRefIDEPKNS3_26ProtocolCompositionTypeRefEEENS_22__unordered_map_hasherIS4_S8_NS4_4HashELb1EEENS_21__unordered_map_equalIS4_S8_NS4_5EqualELb1EEENS_9allocatorIS8_EEE4findIS4_EENS_15__hash_iteratorIPNS_11__hash_nodeIS8_PvEEEERKT_, 
                        __ZNSt3__112__hash_tableINS_17__hash_value_typeIN5swift10reflection9TypeRefIDEPKNS3_26ProtocolCompositionTypeRefEEENS_22__unordered_map_hasherIS4_S8_NS4_4HashELb1EEENS_21__unordered_map_equalIS4_S8_NS4_5EqualELb1EEENS_9allocatorIS8_EEE6rehashEm, 
                        __ZNSt3__112__hash_tableINS_17__hash_value_typeIN5swift10reflection9TypeRefIDEPKNS3_26ProtocolCompositionTypeRefEEENS_22__unordered_map_hasherIS4_S8_NS4_4HashELb1EEENS_21__unordered_map_equalIS4_S8_NS4_5EqualELb1EEENS_9allocatorIS8_EEE8__rehashEm, 
                        __ZNSt3__112__hash_tableINS_17__hash_value_typeIN5swift10reflection9TypeRefIDEPKNS3_27GenericTypeParameterTypeRefEEENS_22__unordered_map_hasherIS4_S8_NS4_4HashELb1EEENS_21__unordered_map_equalIS4_S8_NS4_5EqualELb1EEENS_9allocatorIS8_EEE4findIS4_EENS_15__hash_iteratorIPNS_11__hash_nodeIS8_PvEEEERKT_, 
                        __ZNSt3__112__hash_tableINS_17__hash_value_typeIN5swift10reflection9TypeRefIDEPKNS3_27GenericTypeParameterTypeRefEEENS_22__unordered_map_hasherIS4_S8_NS4_4HashELb1EEENS_21__unordered_map_equalIS4_S8_NS4_5EqualELb1EEENS_9allocatorIS8_EEE6rehashEm, 
                        __ZNSt3__112__hash_tableINS_17__hash_value_typeIN5swift10reflection9TypeRefIDEPKNS3_27GenericTypeParameterTypeRefEEENS_22__unordered_map_hasherIS4_S8_NS4_4HashELb1EEENS_21__unordered_map_equalIS4_S8_NS4_5EqualELb1EEENS_9allocatorIS8_EEE8__rehashEm, 
                        __ZNSt3__112__hash_tableINS_17__hash_value_typeIN5swift10reflection9TypeRefIDEPKNS3_7TypeRefEEENS_22__unordered_map_hasherIS4_S8_NS4_4HashELb1EEENS_21__unordered_map_equalIS4_S8_NS4_5EqualELb1EEENS_9allocatorIS8_EEE4findIS4_EENS_15__hash_iteratorIPNS_11__hash_nodeIS8_PvEEEERKT_, 
                        __ZNSt3__112__hash_tableINS_17__hash_value_typeIN5swift10reflection9TypeRefIDEPKNS3_7TypeRefEEENS_22__unordered_map_hasherIS4_S8_NS4_4HashELb1EEENS_21__unordered_map_equalIS4_S8_NS4_5EqualELb1EEENS_9allocatorIS8_EEE6rehashEm, 
                        __ZNSt3__112__hash_tableINS_17__hash_value_typeIN5swift10reflection9TypeRefIDEPKNS3_7TypeRefEEENS_22__unordered_map_hasherIS4_S8_NS4_4HashELb1EEENS_21__unordered_map_equalIS4_S8_NS4_5EqualELb1EEENS_9allocatorIS8_EEE8__rehashEm, 
                        __ZNSt3__112__hash_tableINS_17__hash_value_typeIjNS_10unique_ptrIKN5swift14TargetMetadataINS3_8ExternalINS3_13RuntimeTargetILj4EEEEEEENS3_6remote16delete_with_freeEEEEENS_22__unordered_map_hasherIjSE_NS_4hashIjEELb1EEENS_21__unordered_map_equalIjSE_NS_8equal_toIjEELb1EEENS_9allocatorISE_EEE6rehashEm, 
                        __ZNSt3__112__hash_tableINS_17__hash_value_typeIjNS_10unique_ptrIKN5swift14TargetMetadataINS3_8ExternalINS3_13RuntimeTargetILj4EEEEEEENS3_6remote16delete_with_freeEEEEENS_22__unordered_map_hasherIjSE_NS_4hashIjEELb1EEENS_21__unordered_map_equalIjSE_NS_8equal_toIjEELb1EEENS_9allocatorISE_EEE8__rehashEm, 
                        __ZNSt3__112__hash_tableINS_17__hash_value_typeIjNS_10unique_ptrIKN5swift27TargetNominalTypeDescriptorINS3_8ExternalINS3_13RuntimeTargetILj4EEEEEEENS3_6remote16delete_with_freeEEEEENS_22__unordered_map_hasherIjSE_NS_4hashIjEELb1EEENS_21__unordered_map_equalIjSE_NS_8equal_toIjEELb1EEENS_9allocatorISE_EEE6rehashEm, 
                        __ZNSt3__112__hash_tableINS_17__hash_value_typeIjNS_10unique_ptrIKN5swift27TargetNominalTypeDescriptorINS3_8ExternalINS3_13RuntimeTargetILj4EEEEEEENS3_6remote16delete_with_freeEEEEENS_22__unordered_map_hasherIjSE_NS_4hashIjEELb1EEENS_21__unordered_map_equalIjSE_NS_8equal_toIjEELb1EEENS_9allocatorISE_EEE8__rehashEm, 
                        __ZNSt3__112__hash_tableINS_17__hash_value_typeIjPKN5swift10reflection7TypeRefEEENS_22__unordered_map_hasherIjS7_NS_4hashIjEELb1EEENS_21__unordered_map_equalIjS7_NS_8equal_toIjEELb1EEENS_9allocatorIS7_EEE6rehashEm, 
                        __ZNSt3__112__hash_tableINS_17__hash_value_typeIjPKN5swift10reflection7TypeRefEEENS_22__unordered_map_hasherIjS7_NS_4hashIjEELb1EEENS_21__unordered_map_equalIjS7_NS_8equal_toIjEELb1EEENS_9allocatorIS7_EEE8__rehashEm, 
                        __ZNSt3__112__hash_tableINS_17__hash_value_typeIjPKN5swift10reflection8TypeInfoEEENS_22__unordered_map_hasherIjS7_NS_4hashIjEELb1EEENS_21__unordered_map_equalIjS7_NS_8equal_toIjEELb1EEENS_9allocatorIS7_EEE6rehashEm, 
                        __ZNSt3__112__hash_tableINS_17__hash_value_typeIjPKN5swift10reflection8TypeInfoEEENS_22__unordered_map_hasherIjS7_NS_4hashIjEELb1EEENS_21__unordered_map_equalIjS7_NS_8equal_toIjEELb1EEENS_9allocatorIS7_EEE8__rehashEm, 
                        __ZNSt3__113unordered_mapIjPKN5swift10reflection7TypeRefENS_4hashIjEENS_8equal_toIjEENS_9allocatorINS_4pairIKjS5_EEEEEixEOj, 
                        __ZNSt3__113unordered_mapIjPKN5swift10reflection7TypeRefENS_4hashIjEENS_8equal_toIjEENS_9allocatorINS_4pairIKjS5_EEEEEixERSC_, 
                        __ZNSt3__113unordered_mapIjPKN5swift10reflection8TypeInfoENS_4hashIjEENS_8equal_toIjEENS_9allocatorINS_4pairIKjS5_EEEEEixERSC_, 
                        __ZNSt3__120__shared_ptr_pointerIPN5swift8Demangle4NodeENS_14default_deleteIS3_EENS_9allocatorIS3_EEE21__on_zero_shared_weakEv, 
                        __ZNSt3__16vectorINS_10unique_ptrIKN5swift10reflection14MetadataSourceENS_14default_deleteIS5_EEEENS_9allocatorIS8_EEE21__push_back_slow_pathIS8_EEvOT_, 
                        __ZNSt3__16vectorIPKN5swift10reflection15ProtocolTypeRefENS_9allocatorIS5_EEE21__push_back_slow_pathIRKS5_EEvOT_, 
                        __ZNSt3__16vectorIPKN5swift10reflection7TypeRefENS_9allocatorIS5_EEE21__push_back_slow_pathIS5_EEvOT_, 
                        __ZNSt3__16vectorIPN5swift8Demangle4NodeENS_9allocatorIS4_EEE21__push_back_slow_pathIRKS4_EEvOT_, 
                        __ZNSt3__16vectorIjNS_9allocatorIjEEE21__push_back_slow_pathIjEEvOT_ ]
  - archs:           [ arm64 ]
    symbols:         [ __ZNSt3__120__shared_ptr_pointerIPN5swift8Demangle4NodeENS_14default_deleteIS3_EENS_9allocatorIS3_EEE21__on_zero_shared_weakEv, 
                       __ZNSt3__112__hash_tableINS_17__hash_value_typeIN5swift10reflection9TypeRefIDEPKNS3_12TupleTypeRefEEENS_22__unordered_map_hasherIS4_S8_NS4_4HashELb1EEENS_21__unordered_map_equalIS4_S8_NS4_5EqualELb1EEENS_9allocatorIS8_EEE4findIS4_EENS_15__hash_iteratorIPNS_11__hash_nodeIS8_PvEEEERKT_, 
                       __ZNSt3__112__hash_tableINS_17__hash_value_typeIN5swift10reflection9TypeRefIDEPKNS3_12TupleTypeRefEEENS_22__unordered_map_hasherIS4_S8_NS4_4HashELb1EEENS_21__unordered_map_equalIS4_S8_NS4_5EqualELb1EEENS_9allocatorIS8_EEE6rehashEm, 
                       __ZNSt3__112__hash_tableINS_17__hash_value_typeIN5swift10reflection9TypeRefIDEPKNS3_12TupleTypeRefEEENS_22__unordered_map_hasherIS4_S8_NS4_4HashELb1EEENS_21__unordered_map_equalIS4_S8_NS4_5EqualELb1EEENS_9allocatorIS8_EEE8__rehashEm, 
                       __ZNSt3__112__hash_tableINS_17__hash_value_typeIN5swift10reflection9TypeRefIDEPKNS3_13SILBoxTypeRefEEENS_22__unordered_map_hasherIS4_S8_NS4_4HashELb1EEENS_21__unordered_map_equalIS4_S8_NS4_5EqualELb1EEENS_9allocatorIS8_EEE4findIS4_EENS_15__hash_iteratorIPNS_11__hash_nodeIS8_PvEEEERKT_, 
                       __ZNSt3__112__hash_tableINS_17__hash_value_typeIN5swift10reflection9TypeRefIDEPKNS3_13SILBoxTypeRefEEENS_22__unordered_map_hasherIS4_S8_NS4_4HashELb1EEENS_21__unordered_map_equalIS4_S8_NS4_5EqualELb1EEENS_9allocatorIS8_EEE6rehashEm, 
                       __ZNSt3__112__hash_tableINS_17__hash_value_typeIN5swift10reflection9TypeRefIDEPKNS3_13SILBoxTypeRefEEENS_22__unordered_map_hasherIS4_S8_NS4_4HashELb1EEENS_21__unordered_map_equalIS4_S8_NS4_5EqualELb1EEENS_9allocatorIS8_EEE8__rehashEm, 
                       __ZNSt3__112__hash_tableINS_17__hash_value_typeIN5swift10reflection9TypeRefIDEPKNS3_14BuiltinTypeRefEEENS_22__unordered_map_hasherIS4_S8_NS4_4HashELb1EEENS_21__unordered_map_equalIS4_S8_NS4_5EqualELb1EEENS_9allocatorIS8_EEE4findIS4_EENS_15__hash_iteratorIPNS_11__hash_nodeIS8_PvEEEERKT_, 
                       __ZNSt3__112__hash_tableINS_17__hash_value_typeIN5swift10reflection9TypeRefIDEPKNS3_14BuiltinTypeRefEEENS_22__unordered_map_hasherIS4_S8_NS4_4HashELb1EEENS_21__unordered_map_equalIS4_S8_NS4_5EqualELb1EEENS_9allocatorIS8_EEE6rehashEm, 
                       __ZNSt3__112__hash_tableINS_17__hash_value_typeIN5swift10reflection9TypeRefIDEPKNS3_14BuiltinTypeRefEEENS_22__unordered_map_hasherIS4_S8_NS4_4HashELb1EEENS_21__unordered_map_equalIS4_S8_NS4_5EqualELb1EEENS_9allocatorIS8_EEE8__rehashEm, 
                       __ZNSt3__112__hash_tableINS_17__hash_value_typeIN5swift10reflection9TypeRefIDEPKNS3_14NominalTypeRefEEENS_22__unordered_map_hasherIS4_S8_NS4_4HashELb1EEENS_21__unordered_map_equalIS4_S8_NS4_5EqualELb1EEENS_9allocatorIS8_EEE4findIS4_EENS_15__hash_iteratorIPNS_11__hash_nodeIS8_PvEEEERKT_, 
                       __ZNSt3__112__hash_tableINS_17__hash_value_typeIN5swift10reflection9TypeRefIDEPKNS3_14NominalTypeRefEEENS_22__unordered_map_hasherIS4_S8_NS4_4HashELb1EEENS_21__unordered_map_equalIS4_S8_NS4_5EqualELb1EEENS_9allocatorIS8_EEE6rehashEm, 
                       __ZNSt3__112__hash_tableINS_17__hash_value_typeIN5swift10reflection9TypeRefIDEPKNS3_14NominalTypeRefEEENS_22__unordered_map_hasherIS4_S8_NS4_4HashELb1EEENS_21__unordered_map_equalIS4_S8_NS4_5EqualELb1EEENS_9allocatorIS8_EEE8__rehashEm, 
                       __ZNSt3__112__hash_tableINS_17__hash_value_typeIN5swift10reflection9TypeRefIDEPKNS3_15FunctionTypeRefEEENS_22__unordered_map_hasherIS4_S8_NS4_4HashELb1EEENS_21__unordered_map_equalIS4_S8_NS4_5EqualELb1EEENS_9allocatorIS8_EEE4findIS4_EENS_15__hash_iteratorIPNS_11__hash_nodeIS8_PvEEEERKT_, 
                       __ZNSt3__112__hash_tableINS_17__hash_value_typeIN5swift10reflection9TypeRefIDEPKNS3_15FunctionTypeRefEEENS_22__unordered_map_hasherIS4_S8_NS4_4HashELb1EEENS_21__unordered_map_equalIS4_S8_NS4_5EqualELb1EEENS_9allocatorIS8_EEE6rehashEm, 
                       __ZNSt3__112__hash_tableINS_17__hash_value_typeIN5swift10reflection9TypeRefIDEPKNS3_15FunctionTypeRefEEENS_22__unordered_map_hasherIS4_S8_NS4_4HashELb1EEENS_21__unordered_map_equalIS4_S8_NS4_5EqualELb1EEENS_9allocatorIS8_EEE8__rehashEm, 
                       __ZNSt3__112__hash_tableINS_17__hash_value_typeIN5swift10reflection9TypeRefIDEPKNS3_15MetatypeTypeRefEEENS_22__unordered_map_hasherIS4_S8_NS4_4HashELb1EEENS_21__unordered_map_equalIS4_S8_NS4_5EqualELb1EEENS_9allocatorIS8_EEE4findIS4_EENS_15__hash_iteratorIPNS_11__hash_nodeIS8_PvEEEERKT_, 
                       __ZNSt3__112__hash_tableINS_17__hash_value_typeIN5swift10reflection9TypeRefIDEPKNS3_15MetatypeTypeRefEEENS_22__unordered_map_hasherIS4_S8_NS4_4HashELb1EEENS_21__unordered_map_equalIS4_S8_NS4_5EqualELb1EEENS_9allocatorIS8_EEE6rehashEm, 
                       __ZNSt3__112__hash_tableINS_17__hash_value_typeIN5swift10reflection9TypeRefIDEPKNS3_15MetatypeTypeRefEEENS_22__unordered_map_hasherIS4_S8_NS4_4HashELb1EEENS_21__unordered_map_equalIS4_S8_NS4_5EqualELb1EEENS_9allocatorIS8_EEE8__rehashEm, 
                       __ZNSt3__112__hash_tableINS_17__hash_value_typeIN5swift10reflection9TypeRefIDEPKNS3_15ProtocolTypeRefEEENS_22__unordered_map_hasherIS4_S8_NS4_4HashELb1EEENS_21__unordered_map_equalIS4_S8_NS4_5EqualELb1EEENS_9allocatorIS8_EEE4findIS4_EENS_15__hash_iteratorIPNS_11__hash_nodeIS8_PvEEEERKT_, 
                       __ZNSt3__112__hash_tableINS_17__hash_value_typeIN5swift10reflection9TypeRefIDEPKNS3_15ProtocolTypeRefEEENS_22__unordered_map_hasherIS4_S8_NS4_4HashELb1EEENS_21__unordered_map_equalIS4_S8_NS4_5EqualELb1EEENS_9allocatorIS8_EEE6rehashEm, 
                       __ZNSt3__112__hash_tableINS_17__hash_value_typeIN5swift10reflection9TypeRefIDEPKNS3_15ProtocolTypeRefEEENS_22__unordered_map_hasherIS4_S8_NS4_4HashELb1EEENS_21__unordered_map_equalIS4_S8_NS4_5EqualELb1EEENS_9allocatorIS8_EEE8__rehashEm, 
                       __ZNSt3__112__hash_tableINS_17__hash_value_typeIN5swift10reflection9TypeRefIDEPKNS3_16ObjCClassTypeRefEEENS_22__unordered_map_hasherIS4_S8_NS4_4HashELb1EEENS_21__unordered_map_equalIS4_S8_NS4_5EqualELb1EEENS_9allocatorIS8_EEE4findIS4_EENS_15__hash_iteratorIPNS_11__hash_nodeIS8_PvEEEERKT_, 
                       __ZNSt3__112__hash_tableINS_17__hash_value_typeIN5swift10reflection9TypeRefIDEPKNS3_16ObjCClassTypeRefEEENS_22__unordered_map_hasherIS4_S8_NS4_4HashELb1EEENS_21__unordered_map_equalIS4_S8_NS4_5EqualELb1EEENS_9allocatorIS8_EEE6rehashEm, 
                       __ZNSt3__112__hash_tableINS_17__hash_value_typeIN5swift10reflection9TypeRefIDEPKNS3_16ObjCClassTypeRefEEENS_22__unordered_map_hasherIS4_S8_NS4_4HashELb1EEENS_21__unordered_map_equalIS4_S8_NS4_5EqualELb1EEENS_9allocatorIS8_EEE8__rehashEm, 
                       __ZNSt3__112__hash_tableINS_17__hash_value_typeIN5swift10reflection9TypeRefIDEPKNS3_18WeakStorageTypeRefEEENS_22__unordered_map_hasherIS4_S8_NS4_4HashELb1EEENS_21__unordered_map_equalIS4_S8_NS4_5EqualELb1EEENS_9allocatorIS8_EEE4findIS4_EENS_15__hash_iteratorIPNS_11__hash_nodeIS8_PvEEEERKT_, 
                       __ZNSt3__112__hash_tableINS_17__hash_value_typeIN5swift10reflection9TypeRefIDEPKNS3_18WeakStorageTypeRefEEENS_22__unordered_map_hasherIS4_S8_NS4_4HashELb1EEENS_21__unordered_map_equalIS4_S8_NS4_5EqualELb1EEENS_9allocatorIS8_EEE6rehashEm, 
                       __ZNSt3__112__hash_tableINS_17__hash_value_typeIN5swift10reflection9TypeRefIDEPKNS3_18WeakStorageTypeRefEEENS_22__unordered_map_hasherIS4_S8_NS4_4HashELb1EEENS_21__unordered_map_equalIS4_S8_NS4_5EqualELb1EEENS_9allocatorIS8_EEE8__rehashEm, 
                       __ZNSt3__112__hash_tableINS_17__hash_value_typeIN5swift10reflection9TypeRefIDEPKNS3_19ForeignClassTypeRefEEENS_22__unordered_map_hasherIS4_S8_NS4_4HashELb1EEENS_21__unordered_map_equalIS4_S8_NS4_5EqualELb1EEENS_9allocatorIS8_EEE4findIS4_EENS_15__hash_iteratorIPNS_11__hash_nodeIS8_PvEEEERKT_, 
                       __ZNSt3__112__hash_tableINS_17__hash_value_typeIN5swift10reflection9TypeRefIDEPKNS3_19ForeignClassTypeRefEEENS_22__unordered_map_hasherIS4_S8_NS4_4HashELb1EEENS_21__unordered_map_equalIS4_S8_NS4_5EqualELb1EEENS_9allocatorIS8_EEE6rehashEm, 
                       __ZNSt3__112__hash_tableINS_17__hash_value_typeIN5swift10reflection9TypeRefIDEPKNS3_19ForeignClassTypeRefEEENS_22__unordered_map_hasherIS4_S8_NS4_4HashELb1EEENS_21__unordered_map_equalIS4_S8_NS4_5EqualELb1EEENS_9allocatorIS8_EEE8__rehashEm, 
                       __ZNSt3__112__hash_tableINS_17__hash_value_typeIN5swift10reflection9TypeRefIDEPKNS3_21UnownedStorageTypeRefEEENS_22__unordered_map_hasherIS4_S8_NS4_4HashELb1EEENS_21__unordered_map_equalIS4_S8_NS4_5EqualELb1EEENS_9allocatorIS8_EEE4findIS4_EENS_15__hash_iteratorIPNS_11__hash_nodeIS8_PvEEEERKT_, 
                       __ZNSt3__112__hash_tableINS_17__hash_value_typeIN5swift10reflection9TypeRefIDEPKNS3_21UnownedStorageTypeRefEEENS_22__unordered_map_hasherIS4_S8_NS4_4HashELb1EEENS_21__unordered_map_equalIS4_S8_NS4_5EqualELb1EEENS_9allocatorIS8_EEE6rehashEm, 
                       __ZNSt3__112__hash_tableINS_17__hash_value_typeIN5swift10reflection9TypeRefIDEPKNS3_21UnownedStorageTypeRefEEENS_22__unordered_map_hasherIS4_S8_NS4_4HashELb1EEENS_21__unordered_map_equalIS4_S8_NS4_5EqualELb1EEENS_9allocatorIS8_EEE8__rehashEm, 
                       __ZNSt3__112__hash_tableINS_17__hash_value_typeIN5swift10reflection9TypeRefIDEPKNS3_22DependentMemberTypeRefEEENS_22__unordered_map_hasherIS4_S8_NS4_4HashELb1EEENS_21__unordered_map_equalIS4_S8_NS4_5EqualELb1EEENS_9allocatorIS8_EEE4findIS4_EENS_15__hash_iteratorIPNS_11__hash_nodeIS8_PvEEEERKT_, 
                       __ZNSt3__112__hash_tableINS_17__hash_value_typeIN5swift10reflection9TypeRefIDEPKNS3_22DependentMemberTypeRefEEENS_22__unordered_map_hasherIS4_S8_NS4_4HashELb1EEENS_21__unordered_map_equalIS4_S8_NS4_5EqualELb1EEENS_9allocatorIS8_EEE6rehashEm, 
                       __ZNSt3__112__hash_tableINS_17__hash_value_typeIN5swift10reflection9TypeRefIDEPKNS3_22DependentMemberTypeRefEEENS_22__unordered_map_hasherIS4_S8_NS4_4HashELb1EEENS_21__unordered_map_equalIS4_S8_NS4_5EqualELb1EEENS_9allocatorIS8_EEE8__rehashEm, 
                       __ZNSt3__112__hash_tableINS_17__hash_value_typeIN5swift10reflection9TypeRefIDEPKNS3_23UnmanagedStorageTypeRefEEENS_22__unordered_map_hasherIS4_S8_NS4_4HashELb1EEENS_21__unordered_map_equalIS4_S8_NS4_5EqualELb1EEENS_9allocatorIS8_EEE4findIS4_EENS_15__hash_iteratorIPNS_11__hash_nodeIS8_PvEEEERKT_, 
                       __ZNSt3__112__hash_tableINS_17__hash_value_typeIN5swift10reflection9TypeRefIDEPKNS3_23UnmanagedStorageTypeRefEEENS_22__unordered_map_hasherIS4_S8_NS4_4HashELb1EEENS_21__unordered_map_equalIS4_S8_NS4_5EqualELb1EEENS_9allocatorIS8_EEE6rehashEm, 
                       __ZNSt3__112__hash_tableINS_17__hash_value_typeIN5swift10reflection9TypeRefIDEPKNS3_23UnmanagedStorageTypeRefEEENS_22__unordered_map_hasherIS4_S8_NS4_4HashELb1EEENS_21__unordered_map_equalIS4_S8_NS4_5EqualELb1EEENS_9allocatorIS8_EEE8__rehashEm, 
                       __ZNSt3__112__hash_tableINS_17__hash_value_typeIN5swift10reflection9TypeRefIDEPKNS3_26ExistentialMetatypeTypeRefEEENS_22__unordered_map_hasherIS4_S8_NS4_4HashELb1EEENS_21__unordered_map_equalIS4_S8_NS4_5EqualELb1EEENS_9allocatorIS8_EEE4findIS4_EENS_15__hash_iteratorIPNS_11__hash_nodeIS8_PvEEEERKT_, 
                       __ZNSt3__112__hash_tableINS_17__hash_value_typeIN5swift10reflection9TypeRefIDEPKNS3_26ExistentialMetatypeTypeRefEEENS_22__unordered_map_hasherIS4_S8_NS4_4HashELb1EEENS_21__unordered_map_equalIS4_S8_NS4_5EqualELb1EEENS_9allocatorIS8_EEE6rehashEm, 
                       __ZNSt3__112__hash_tableINS_17__hash_value_typeIN5swift10reflection9TypeRefIDEPKNS3_26ExistentialMetatypeTypeRefEEENS_22__unordered_map_hasherIS4_S8_NS4_4HashELb1EEENS_21__unordered_map_equalIS4_S8_NS4_5EqualELb1EEENS_9allocatorIS8_EEE8__rehashEm, 
                       __ZNSt3__112__hash_tableINS_17__hash_value_typeIN5swift10reflection9TypeRefIDEPKNS3_26ProtocolCompositionTypeRefEEENS_22__unordered_map_hasherIS4_S8_NS4_4HashELb1EEENS_21__unordered_map_equalIS4_S8_NS4_5EqualELb1EEENS_9allocatorIS8_EEE4findIS4_EENS_15__hash_iteratorIPNS_11__hash_nodeIS8_PvEEEERKT_, 
                       __ZNSt3__112__hash_tableINS_17__hash_value_typeIN5swift10reflection9TypeRefIDEPKNS3_26ProtocolCompositionTypeRefEEENS_22__unordered_map_hasherIS4_S8_NS4_4HashELb1EEENS_21__unordered_map_equalIS4_S8_NS4_5EqualELb1EEENS_9allocatorIS8_EEE6rehashEm, 
                       __ZNSt3__112__hash_tableINS_17__hash_value_typeIN5swift10reflection9TypeRefIDEPKNS3_26ProtocolCompositionTypeRefEEENS_22__unordered_map_hasherIS4_S8_NS4_4HashELb1EEENS_21__unordered_map_equalIS4_S8_NS4_5EqualELb1EEENS_9allocatorIS8_EEE8__rehashEm, 
                       __ZNSt3__112__hash_tableINS_17__hash_value_typeIN5swift10reflection9TypeRefIDEPKNS3_27GenericTypeParameterTypeRefEEENS_22__unordered_map_hasherIS4_S8_NS4_4HashELb1EEENS_21__unordered_map_equalIS4_S8_NS4_5EqualELb1EEENS_9allocatorIS8_EEE4findIS4_EENS_15__hash_iteratorIPNS_11__hash_nodeIS8_PvEEEERKT_, 
                       __ZNSt3__112__hash_tableINS_17__hash_value_typeIN5swift10reflection9TypeRefIDEPKNS3_27GenericTypeParameterTypeRefEEENS_22__unordered_map_hasherIS4_S8_NS4_4HashELb1EEENS_21__unordered_map_equalIS4_S8_NS4_5EqualELb1EEENS_9allocatorIS8_EEE6rehashEm, 
                       __ZNSt3__112__hash_tableINS_17__hash_value_typeIN5swift10reflection9TypeRefIDEPKNS3_27GenericTypeParameterTypeRefEEENS_22__unordered_map_hasherIS4_S8_NS4_4HashELb1EEENS_21__unordered_map_equalIS4_S8_NS4_5EqualELb1EEENS_9allocatorIS8_EEE8__rehashEm, 
                       __ZNSt3__112__hash_tableINS_17__hash_value_typeIN5swift10reflection9TypeRefIDEPKNS3_7TypeRefEEENS_22__unordered_map_hasherIS4_S8_NS4_4HashELb1EEENS_21__unordered_map_equalIS4_S8_NS4_5EqualELb1EEENS_9allocatorIS8_EEE4findIS4_EENS_15__hash_iteratorIPNS_11__hash_nodeIS8_PvEEEERKT_, 
                       __ZNSt3__112__hash_tableINS_17__hash_value_typeIN5swift10reflection9TypeRefIDEPKNS3_7TypeRefEEENS_22__unordered_map_hasherIS4_S8_NS4_4HashELb1EEENS_21__unordered_map_equalIS4_S8_NS4_5EqualELb1EEENS_9allocatorIS8_EEE6rehashEm, 
                       __ZNSt3__112__hash_tableINS_17__hash_value_typeIN5swift10reflection9TypeRefIDEPKNS3_7TypeRefEEENS_22__unordered_map_hasherIS4_S8_NS4_4HashELb1EEENS_21__unordered_map_equalIS4_S8_NS4_5EqualELb1EEENS_9allocatorIS8_EEE8__rehashEm, 
                       __ZNSt3__112__hash_tableINS_17__hash_value_typeIyNS_10unique_ptrIKN5swift14TargetMetadataINS3_8ExternalINS3_13RuntimeTargetILj8EEEEEEENS3_6remote16delete_with_freeEEEEENS_22__unordered_map_hasherIySE_NS_4hashIyEELb1EEENS_21__unordered_map_equalIySE_NS_8equal_toIyEELb1EEENS_9allocatorISE_EEE6rehashEm, 
                       __ZNSt3__112__hash_tableINS_17__hash_value_typeIyNS_10unique_ptrIKN5swift14TargetMetadataINS3_8ExternalINS3_13RuntimeTargetILj8EEEEEEENS3_6remote16delete_with_freeEEEEENS_22__unordered_map_hasherIySE_NS_4hashIyEELb1EEENS_21__unordered_map_equalIySE_NS_8equal_toIyEELb1EEENS_9allocatorISE_EEE8__rehashEm, 
                       __ZNSt3__112__hash_tableINS_17__hash_value_typeIyNS_10unique_ptrIKN5swift27TargetNominalTypeDescriptorINS3_8ExternalINS3_13RuntimeTargetILj8EEEEEEENS3_6remote16delete_with_freeEEEEENS_22__unordered_map_hasherIySE_NS_4hashIyEELb1EEENS_21__unordered_map_equalIySE_NS_8equal_toIyEELb1EEENS_9allocatorISE_EEE6rehashEm, 
                       __ZNSt3__112__hash_tableINS_17__hash_value_typeIyNS_10unique_ptrIKN5swift27TargetNominalTypeDescriptorINS3_8ExternalINS3_13RuntimeTargetILj8EEEEEEENS3_6remote16delete_with_freeEEEEENS_22__unordered_map_hasherIySE_NS_4hashIyEELb1EEENS_21__unordered_map_equalIySE_NS_8equal_toIyEELb1EEENS_9allocatorISE_EEE8__rehashEm, 
                       __ZNSt3__112__hash_tableINS_17__hash_value_typeIyPKN5swift10reflection8TypeInfoEEENS_22__unordered_map_hasherIyS7_NS_4hashIyEELb1EEENS_21__unordered_map_equalIyS7_NS_8equal_toIyEELb1EEENS_9allocatorIS7_EEE6rehashEm, 
                       __ZNSt3__112__hash_tableINS_17__hash_value_typeIyPKN5swift10reflection8TypeInfoEEENS_22__unordered_map_hasherIyS7_NS_4hashIyEELb1EEENS_21__unordered_map_equalIyS7_NS_8equal_toIyEELb1EEENS_9allocatorIS7_EEE8__rehashEm, 
                       __ZNSt3__113unordered_mapIyPKN5swift10reflection7TypeRefENS_4hashIyEENS_8equal_toIyEENS_9allocatorINS_4pairIKyS5_EEEEEixEOy, 
                       __ZNSt3__113unordered_mapIyPKN5swift10reflection8TypeInfoENS_4hashIyEENS_8equal_toIyEENS_9allocatorINS_4pairIKyS5_EEEEEixERSC_, 
                       __ZNSt3__16vectorINS_10unique_ptrIKN5swift10reflection14MetadataSourceENS_14default_deleteIS5_EEEENS_9allocatorIS8_EEE21__push_back_slow_pathIS8_EEvOT_, 
                       __ZNSt3__16vectorIPKN5swift10reflection15ProtocolTypeRefENS_9allocatorIS5_EEE21__push_back_slow_pathIRKS5_EEvOT_, 
                       __ZNSt3__16vectorIPKN5swift10reflection7TypeRefENS_9allocatorIS5_EEE21__push_back_slow_pathIS5_EEvOT_, 
                       __ZNSt3__16vectorIPN5swift8Demangle4NodeENS_9allocatorIS4_EEE21__push_back_slow_pathIRKS4_EEvOT_, 
                       __ZNSt3__16vectorIjNS_9allocatorIjEEE21__push_back_slow_pathIjEEvOT_ ]
    weak-def-symbols: [ __ZN5swift6remote14MetadataReaderINS_8ExternalINS_13RuntimeTargetILj8EEEEENS_10reflection14TypeRefBuilderEE20readTypeFromMetadataEy, 
                        __ZN5swift10reflection12TupleTypeRef7ProfileERKNSt3__16vectorIPKNS0_7TypeRefENS2_9allocatorIS6_EEEEb, 
                        __ZN5swift10reflection13TypeConverter12makeTypeInfoINS0_14RecordTypeInfoEJjjjjNS0_10RecordKindENSt3__16vectorINS0_9FieldInfoENS5_9allocatorIS7_EEEEEEEPKT_DpT0_, 
                        __ZN5swift10reflection17ReflectionContextINS_8ExternalINS_13RuntimeTargetILj8EEEEEE18projectExistentialENS_6remote13RemoteAddressEPKNS0_7TypeRefEPSB_PS8_, 
                        __ZN5swift10reflection17ReflectionContextINS_8ExternalINS_13RuntimeTargetILj8EEEEEE18readMetadataSourceEyPKNS0_14MetadataSourceERKNS0_21RecordTypeInfoBuilderE, 
                        __ZN5swift10reflection17ReflectionContextINS_8ExternalINS_13RuntimeTargetILj8EEEEEE19getInstanceTypeInfoEy, 
                        __ZN5swift10reflection17ReflectionContextINS_8ExternalINS_13RuntimeTargetILj8EEEEEE19getMetadataTypeInfoEy, 
                        __ZN5swift10reflection17ReflectionContextINS_8ExternalINS_13RuntimeTargetILj8EEEEEE21getClosureContextInfoEyRKNS0_18ClosureContextInfoE, 
                        __ZN5swift10reflection19BoundGenericTypeRef7ProfileERKNSt3__112basic_stringIcNS2_11char_traitsIcEENS2_9allocatorIcEEEERKNS2_6vectorIPKNS0_7TypeRefENS6_ISE_EEEESE_, 
                        __ZN5swift10reflection22DependentMemberTypeRef7ProfileERKNSt3__112basic_stringIcNS2_11char_traitsIcEENS2_9allocatorIcEEEEPKNS0_7TypeRefESD_, 
                        __ZN5swift6remote14MetadataReaderINS_8ExternalINS_13RuntimeTargetILj8EEEEENS_10reflection14TypeRefBuilderEE12readMetadataEy, 
                        __ZN5swift6remote14MetadataReaderINS_8ExternalINS_13RuntimeTargetILj8EEEEENS_10reflection14TypeRefBuilderEE13_readMetadataEym, 
                        __ZN5swift6remote14MetadataReaderINS_8ExternalINS_13RuntimeTargetILj8EEEEENS_10reflection14TypeRefBuilderEE15getGenericSubstENS0_9RemoteRefIS5_NS_14TargetMetadataIS5_EEEENS9_IS5_NS_27TargetNominalTypeDescriptorIS5_EEEE, 
                        __ZN5swift6remote14MetadataReaderINS_8ExternalINS_13RuntimeTargetILj8EEEEENS_10reflection14TypeRefBuilderEE17readObjCClassNameEyRNSt3__112basic_stringIcNS9_11char_traitsIcEENS9_9allocatorIcEEEE, 
                        __ZN5swift6remote14MetadataReaderINS_8ExternalINS_13RuntimeTargetILj8EEEEENS_10reflection14TypeRefBuilderEE22readParentFromMetadataEy, 
                        __ZN5swift6remote14MetadataReaderINS_8ExternalINS_13RuntimeTargetILj8EEEEENS_10reflection14TypeRefBuilderEE24readMetadataFromInstanceEy, 
                        __ZN5swift6remote14MetadataReaderINS_8ExternalINS_13RuntimeTargetILj8EEEEENS_10reflection14TypeRefBuilderEE25readNominalTypeDescriptorEy, 
                        __ZN5swift6remote14MetadataReaderINS_8ExternalINS_13RuntimeTargetILj8EEEEENS_10reflection14TypeRefBuilderEE26readGenericArgFromMetadataEyj, 
                        __ZN5swift6remote14MetadataReaderINS_8ExternalINS_13RuntimeTargetILj8EEEEENS_10reflection14TypeRefBuilderEE27readNominalTypeFromMetadataENS0_9RemoteRefIS5_NS_14TargetMetadataIS5_EEEE, 
                        __ZN5swift6remote14MetadataReaderINS_8ExternalINS_13RuntimeTargetILj8EEEEENS_10reflection14TypeRefBuilderEE46readInstanceStartAndAlignmentFromClassMetadataEy, 
                        __ZN5swift8Demangle11NodeFactory6createENS0_4Node4KindE, 
                        __ZN5swift8Demangle11NodeFactory6createENS0_4Node4KindEONSt3__112basic_stringIcNS4_11char_traitsIcEENS4_9allocatorIcEEEE, 
                        __ZN5swift8Demangle11NodeFactory6createENS0_4Node4KindEy, 
                        __ZN5swift8Demangle11NodeFactory6createILm13EEENSt3__110shared_ptrINS0_4NodeEEENS5_4KindERAT__Kc, 
                        __ZN5swift8Demangle11NodeFactory6createILm15EEENSt3__110shared_ptrINS0_4NodeEEENS5_4KindERAT__Kc, 
                        __ZN5swift8Demangle11NodeFactory6createILm19EEENSt3__110shared_ptrINS0_4NodeEEENS5_4KindERAT__Kc, 
                        __ZN5swift8Demangle11NodeFactory6createILm21EEENSt3__110shared_ptrINS0_4NodeEEENS5_4KindERAT__Kc, 
                        __ZN5swift8Demangle11NodeFactory6createILm22EEENSt3__110shared_ptrINS0_4NodeEEENS5_4KindERAT__Kc, 
                        __ZN5swift8Demangle11NodeFactory6createILm26EEENSt3__110shared_ptrINS0_4NodeEEENS5_4KindERAT__Kc, 
                        __ZN5swift8Demangle11NodeFactory6createILm4EEENSt3__110shared_ptrINS0_4NodeEEENS5_4KindERAT__Kc, 
                        __ZN5swift8Demangle11NodeFactory6createILm6EEENSt3__110shared_ptrINS0_4NodeEEENS5_4KindERAT__Kc, 
                        __ZN5swift8Demangle11NodeFactory6createILm7EEENSt3__110shared_ptrINS0_4NodeEEENS5_4KindERAT__Kc, 
                        __ZNSt3__112__hash_tableINS_17__hash_value_typeIyPKN5swift10reflection7TypeRefEEENS_22__unordered_map_hasherIyS7_NS_4hashIyEELb1EEENS_21__unordered_map_equalIyS7_NS_8equal_toIyEELb1EEENS_9allocatorIS7_EEE6rehashEm, 
                        __ZNSt3__112__hash_tableINS_17__hash_value_typeIyPKN5swift10reflection7TypeRefEEENS_22__unordered_map_hasherIyS7_NS_4hashIyEELb1EEENS_21__unordered_map_equalIyS7_NS_8equal_toIyEELb1EEENS_9allocatorIS7_EEE8__rehashEm, 
                        __ZNSt3__113unordered_mapIyPKN5swift10reflection7TypeRefENS_4hashIyEENS_8equal_toIyEENS_9allocatorINS_4pairIKyS5_EEEEEixERSC_ ]
  - archs:           [ armv7, armv7s, arm64 ]
    symbols:         [ __ZL11unreachablePKc, __GLOBAL__sub_I_TypeRef.cpp, 
                       __Z15getTypeInfoKindRKN5swift10reflection8TypeInfoE, 
                       __ZL10deepEqualsPN5swift8Demangle4NodeES2_, __ZL11unreachablePKc, 
                       __ZL16mangleIdentifierN4llvm9StringRefEN5swift8Demangle12OperatorKindEbRNS2_16DemanglerPrinterE, 
                       __ZN12_GLOBAL__N_110DeepHasher4hashEPN5swift8Demangle4NodeE, 
                       __ZN12_GLOBAL__N_111NodePrinter13printChildrenENSt3__111__wrap_iterIPNS1_10shared_ptrIN5swift8Demangle4NodeEEEEES9_PKc, 
                       __ZN12_GLOBAL__N_111NodePrinter17printFunctionTypeENSt3__110shared_ptrIN5swift8Demangle4NodeEEE, 
                       __ZN12_GLOBAL__N_111NodePrinter24printBoundGenericNoSugarENSt3__110shared_ptrIN5swift8Demangle4NodeEEE, 
                       __ZN12_GLOBAL__N_111NodePrinter35printFunctionSigSpecializationParamENSt3__110shared_ptrIN5swift8Demangle4NodeEEEj, 
                       __ZN12_GLOBAL__N_111NodePrinter5printENSt3__110shared_ptrIN5swift8Demangle4NodeEEEbb, 
                       __ZN12_GLOBAL__N_111NodePrinter9findSugarENSt3__110shared_ptrIN5swift8Demangle4NodeEEE, 
                       __ZN12_GLOBAL__N_16isEnumENSt3__110shared_ptrIN5swift8Demangle4NodeEEE, 
                       __ZN12_GLOBAL__N_17isClassENSt3__110shared_ptrIN5swift8Demangle4NodeEEE, 
                       __ZN12_GLOBAL__N_18isStructENSt3__110shared_ptrIN5swift8Demangle4NodeEEE, 
                       __ZN12_GLOBAL__N_19Demangler12demangleTypeEv, __ZN12_GLOBAL__N_19Demangler13demangleTupleENS0_10IsVariadicE, 
                       __ZN12_GLOBAL__N_19Demangler14demangleEntityEv, 
                       __ZN12_GLOBAL__N_19Demangler14demangleGlobalEv, 
                       __ZN12_GLOBAL__N_19Demangler14demangleModuleEv, 
                       __ZN12_GLOBAL__N_19Demangler15createSwiftTypeEN5swift8Demangle4Node4KindEN4llvm9StringRefE, 
                       __ZN12_GLOBAL__N_19Demangler15demangleContextEv, 
                       __ZN12_GLOBAL__N_19Demangler16demangleDeclNameEv, 
                       __ZN12_GLOBAL__N_19Demangler16demangleTypeImplEv, 
                       __ZN12_GLOBAL__N_19Demangler18demangleIdentifierEN4llvm8OptionalIN5swift8Demangle4Node4KindEEE, 
                       __ZN12_GLOBAL__N_19Demangler19demangleImplResultsENSt3__110shared_ptrIN5swift8Demangle4NodeEEE, 
                       __ZN12_GLOBAL__N_19Demangler19demangleNominalTypeEv, 
                       __ZN12_GLOBAL__N_19Demangler20demangleArchetypeRefEyy, 
                       __ZN12_GLOBAL__N_19Demangler20demangleFunctionTypeEN5swift8Demangle4Node4KindE, 
                       __ZN12_GLOBAL__N_19Demangler20demangleProtocolListEv, 
                       __ZN12_GLOBAL__N_19Demangler20demangleProtocolNameEv, 
                       __ZN12_GLOBAL__N_19Demangler21demangleArchetypeTypeEv, 
                       __ZN12_GLOBAL__N_19Demangler22demangleImplParametersENSt3__110shared_ptrIN5swift8Demangle4NodeEEE, 
                       __ZN12_GLOBAL__N_19Demangler23demangleConstrainedTypeEv, 
                       __ZN12_GLOBAL__N_19Demangler23demangleDeclarationNameEN5swift8Demangle4Node4KindE, 
                       __ZN12_GLOBAL__N_19Demangler24demangleBoundGenericArgsENSt3__110shared_ptrIN5swift8Demangle4NodeEEE, 
                       __ZN12_GLOBAL__N_19Demangler24demangleBoundGenericTypeEv, 
                       __ZN12_GLOBAL__N_19Demangler24demangleGenericSignatureEb, 
                       __ZN12_GLOBAL__N_19Demangler25demangleGenericParamIndexEv, 
                       __ZN12_GLOBAL__N_19Demangler25demangleSubstitutionIndexEv, 
                       __ZN12_GLOBAL__N_19Demangler27demangleProtocolConformanceEv, 
                       __ZN12_GLOBAL__N_19Demangler27demangleReabstractSignatureENSt3__110shared_ptrIN5swift8Demangle4NodeEEE, 
                       __ZN12_GLOBAL__N_19Demangler28demangleAssociatedTypeSimpleEv, 
                       __ZN12_GLOBAL__N_19Demangler28getDependentGenericParamTypeEjj, 
                       __ZN12_GLOBAL__N_19Demangler29demangleImplParameterOrResultEN5swift8Demangle4Node4KindE, 
                       __ZN12_GLOBAL__N_19Demangler30demangleAssociatedTypeCompoundEv, 
                       __ZN12_GLOBAL__N_19Demangler30demangleMetatypeRepresentationEv, 
                       __ZN12_GLOBAL__N_19Demangler31demangleDependentMemberTypeNameENSt3__110shared_ptrIN5swift8Demangle4NodeEEE, 
                       __ZN12_GLOBAL__N_19Demangler32demangleProtocolNameGivenContextENSt3__110shared_ptrIN5swift8Demangle4NodeEEE, 
                       __ZN12_GLOBAL__N_19Remangler12mangleModuleEPN5swift8Demangle4NodeERNS0_13EntityContextE, 
                       __ZN12_GLOBAL__N_19Remangler15addSubstitutionERKNS_17SubstitutionEntryE, 
                       __ZN12_GLOBAL__N_19Remangler15mangleExtensionEPN5swift8Demangle4NodeERNS0_13EntityContextE, 
                       __ZN12_GLOBAL__N_19Remangler15trySubstitutionEPN5swift8Demangle4NodeERNS_17SubstitutionEntryE, 
                       __ZN12_GLOBAL__N_19Remangler16getUnspecializedEPN5swift8Demangle4NodeE, 
                       __ZN12_GLOBAL__N_19Remangler16mangleEntityTypeEPN5swift8Demangle4NodeERNS0_13EntityContextE, 
                       __ZN12_GLOBAL__N_19Remangler17mangleGenericArgsEPN5swift8Demangle4NodeERNS0_13EntityContextE, 
                       __ZN12_GLOBAL__N_19Remangler19mangleEntityContextEPN5swift8Demangle4NodeERNS0_13EntityContextE, 
                       __ZN12_GLOBAL__N_19Remangler20mangleAnyNominalTypeEPN5swift8Demangle4NodeERNS0_13EntityContextE, 
                       __ZN12_GLOBAL__N_19Remangler21mangleConstrainedTypeEPN5swift8Demangle4NodeE, 
                       __ZN12_GLOBAL__N_19Remangler31mangleDependentGenericSignatureEPN5swift8Demangle4NodeE, 
                       __ZN12_GLOBAL__N_19Remangler32mangleDependentGenericParamIndexEPN5swift8Demangle4NodeE, 
                       __ZN12_GLOBAL__N_19Remangler6mangleEPN5swift8Demangle4NodeE, 
                       __ZN5swift10reflection12_GLOBAL__N_113PrintTypeInfo10printBasicERKNS0_8TypeInfoE, 
                       __ZN5swift10reflection12_GLOBAL__N_113PrintTypeInfo10printFieldIA7_cEERNSt3__113basic_ostreamIcNS5_11char_traitsIcEEEERKNS5_12basic_stringIcS8_NS5_9allocatorIcEEEERKT_, 
                       __ZN5swift10reflection12_GLOBAL__N_113PrintTypeInfo10printFieldIA8_cEERNSt3__113basic_ostreamIcNS5_11char_traitsIcEEEERKNS5_12basic_stringIcS8_NS5_9allocatorIcEEEERKT_, 
                       __ZN5swift10reflection12_GLOBAL__N_113PrintTypeInfo10printFieldIjEERNSt3__113basic_ostreamIcNS4_11char_traitsIcEEEERKNS4_12basic_stringIcS7_NS4_9allocatorIcEEEERKT_, 
                       __ZN5swift10reflection12_GLOBAL__N_113PrintTypeInfo5printERKNS0_8TypeInfoE, 
                       __ZN5swift10reflection13OpaqueTypeRef3getEv, __ZN5swift10reflection13OpaqueTypeRef9SingletonE, 
                       __ZN5swift10reflection13TypeConverter11getTypeInfoEPKNS0_7TypeRefE, 
                       __ZN5swift10reflection13TypeConverter12hasFixedSizeEPKNS0_7TypeRefE, 
                       __ZN5swift10reflection13TypeConverter16getEmptyTypeInfoEv, 
                       __ZN5swift10reflection13TypeConverter20getRawPointerTypeRefEv, 
                       __ZN5swift10reflection13TypeConverter20getReferenceTypeInfoENS0_13ReferenceKindENS0_17ReferenceCountingE, 
                       __ZN5swift10reflection13TypeConverter21getAnyMetatypeTypeRefEv, 
                       __ZN5swift10reflection13TypeConverter22getAnyMetatypeTypeInfoEv, 
                       __ZN5swift10reflection13TypeConverter22getNativeObjectTypeRefEv, 
                       __ZN5swift10reflection13TypeConverter22getThinFunctionTypeRefEv, 
                       __ZN5swift10reflection13TypeConverter23getThinFunctionTypeInfoEv, 
                       __ZN5swift10reflection13TypeConverter23getUnknownObjectTypeRefEv, 
                       __ZN5swift10reflection13TypeConverter24getClassInstanceTypeInfoEPKNS0_7TypeRefEj, 
                       __ZN5swift10reflection13TypeConverter24getThickFunctionTypeInfoEv, 
                       __ZN5swift10reflection14TypeRefBuilder11dumpTypeRefERKNSt3__112basic_stringIcNS2_11char_traitsIcEENS2_9allocatorIcEEEERNS2_13basic_ostreamIcS5_EEb, 
                       __ZN5swift10reflection14TypeRefBuilder15dumpAllSectionsERNSt3__113basic_ostreamIcNS2_11char_traitsIcEEEE, 
                       __ZN5swift10reflection14TypeRefBuilder16dumpFieldSectionERNSt3__113basic_ostreamIcNS2_11char_traitsIcEEEE, 
                       __ZN5swift10reflection14TypeRefBuilder16getFieldTypeInfoEPKNS0_7TypeRefE, 
                       __ZN5swift10reflection14TypeRefBuilder16getFieldTypeRefsEPKNS0_7TypeRefEPKNS0_15FieldDescriptorE, 
                       __ZN5swift10reflection14TypeRefBuilder16lookupSuperclassEPKNS0_7TypeRefE, 
                       __ZN5swift10reflection14TypeRefBuilder16lookupSuperclassERKNSt3__112basic_stringIcNS2_11char_traitsIcEENS2_9allocatorIcEEEE, 
                       __ZN5swift10reflection14TypeRefBuilder17lookupTypeWitnessERKNSt3__112basic_stringIcNS2_11char_traitsIcEENS2_9allocatorIcEEEESA_PKNS0_7TypeRefE, 
                       __ZN5swift10reflection14TypeRefBuilder18dumpCaptureSectionERNSt3__113basic_ostreamIcNS2_11char_traitsIcEEEE, 
                       __ZN5swift10reflection14TypeRefBuilder18getBuiltinTypeInfoEPKNS0_7TypeRefE, 
                       __ZN5swift10reflection14TypeRefBuilder20getCaptureDescriptorEm, 
                       __ZN5swift10reflection14TypeRefBuilder21getClosureContextInfoERKNS0_17CaptureDescriptorE, 
                       __ZN5swift10reflection14TypeRefBuilder22dumpBuiltinTypeSectionERNSt3__113basic_ostreamIcNS2_11char_traitsIcEEEE, 
                       __ZN5swift10reflection14TypeRefBuilder25dumpAssociatedTypeSectionERNSt3__113basic_ostreamIcNS2_11char_traitsIcEEEE, 
                       __ZN5swift10reflection14TypeRefBuilderC1Ev, __ZN5swift10reflection14TypeRefBuilderC2Ev, 
                       __ZN5swift10reflection15BuiltinTypeInfoC1EPKNS0_21BuiltinTypeDescriptorE, 
                       __ZN5swift10reflection15BuiltinTypeInfoC2EPKNS0_21BuiltinTypeDescriptorE, 
                       __ZN5swift10reflection21RecordTypeInfoBuilder5buildEv, 
                       __ZN5swift10reflection21RecordTypeInfoBuilder8addFieldERKNSt3__112basic_stringIcNS2_11char_traitsIcEENS2_9allocatorIcEEEEPKNS0_7TypeRefE, 
                       __ZN5swift10reflection21RecordTypeInfoBuilder8addFieldEjjj, 
                       __ZN5swift10reflection22combineRepresentationsENS0_22MetatypeRepresentationES1_, 
                       __ZN5swift10reflection7TypeRef19deriveSubstitutionsERN4llvm8DenseMapINSt3__14pairIjjEEPKS1_NS2_12DenseMapInfoIS6_EENS2_6detail12DenseMapPairIS6_S8_EEEES8_S8_, 
                       __ZN5swift8Demangle10mangleNodeERKNSt3__110shared_ptrINS0_4NodeEEE, 
                       __ZN5swift8Demangle12nodeToStringENSt3__110shared_ptrINS0_4NodeEEERKNS0_15DemangleOptionsE, 
                       __ZN5swift8Demangle16mangleIdentifierEPKcmNS0_12OperatorKindERNSt3__112basic_stringIcNS4_11char_traitsIcEENS4_9allocatorIcEEEEb, 
                       __ZN5swift8Demangle18demangleTypeAsNodeEPKcmRKNS0_15DemangleOptionsE, 
                       __ZN5swift8Demangle20demangleSymbolAsNodeEPKcmRKNS0_15DemangleOptionsE, 
                       __ZN5swift8Demangle20demangleTypeAsStringEPKcmRKNS0_15DemangleOptionsE, 
                       __ZN5swift8Demangle22demangleSymbolAsStringEPKcmRKNS0_15DemangleOptionsE, 
                       __ZN5swift8Demangle4NodeD1Ev, __ZN5swift8Demangle4NodeD2Ev, 
                       __ZN5swift8Punycode14decodePunycodeEN4llvm9StringRefERNSt3__16vectorIjNS3_9allocatorIjEEEE, 
                       __ZN5swift8Punycode14encodePunycodeERKNSt3__16vectorIjNS1_9allocatorIjEEEERNS1_12basic_stringIcNS1_11char_traitsIcEENS3_IcEEEE, 
                       __ZN5swift8Punycode18decodePunycodeUTF8EN4llvm9StringRefERNSt3__112basic_stringIcNS3_11char_traitsIcEENS3_9allocatorIcEEEE, 
                       __ZN5swift8Punycode18encodePunycodeUTF8EN4llvm9StringRefERNSt3__112basic_stringIcNS3_11char_traitsIcEENS3_9allocatorIcEEEE, 
                       __ZN5swiftL11STDLIB_NAMEE, __ZN5swiftL11STDLIB_NAMEE, 
                       __ZN5swiftL17MANGLING_MODULE_CE, __ZN5swiftL17MANGLING_MODULE_CE, 
                       __ZN5swiftL20MANGLING_MODULE_OBJCE, __ZN5swiftL20MANGLING_MODULE_OBJCE, 
                       __ZN5swiftL35LLDB_EXPRESSIONS_MODULE_NAME_PREFIXE, 
                       __ZNK5swift10reflection14MetadataSource4dumpERNSt3__113basic_ostreamIcNS2_11char_traitsIcEEEEj, 
                       __ZNK5swift10reflection14MetadataSource4dumpEv, 
                       __ZNK5swift10reflection16NominalTypeTrait6isEnumEv, 
                       __ZNK5swift10reflection16NominalTypeTrait7isClassEv, 
                       __ZNK5swift10reflection16NominalTypeTrait8getDepthEv, 
                       __ZNK5swift10reflection16NominalTypeTrait8isStructEv, 
                       __ZNK5swift10reflection18ClosureContextInfo4dumpERNSt3__113basic_ostreamIcNS2_11char_traitsIcEEEE, 
                       __ZNK5swift10reflection18ClosureContextInfo4dumpEv, 
                       __ZNK5swift10reflection7TypeRef10isConcreteEv, __ZNK5swift10reflection7TypeRef11getSubstMapEv, 
                       __ZNK5swift10reflection7TypeRef28isConcreteAfterSubstitutionsERKN4llvm8DenseMapINSt3__14pairIjjEEPKS1_NS2_12DenseMapInfoIS6_EENS2_6detail12DenseMapPairIS6_S8_EEEE, 
                       __ZNK5swift10reflection7TypeRef4dumpERNSt3__113basic_ostreamIcNS2_11char_traitsIcEEEEj, 
                       __ZNK5swift10reflection7TypeRef4dumpEv, __ZNK5swift10reflection7TypeRef5substERNS0_14TypeRefBuilderERKN4llvm8DenseMapINSt3__14pairIjjEEPKS1_NS4_12DenseMapInfoIS8_EENS4_6detail12DenseMapPairIS8_SA_EEEE, 
                       __ZNK5swift10reflection8TypeInfo4dumpERNSt3__113basic_ostreamIcNS2_11char_traitsIcEEEEj, 
                       __ZNK5swift10reflection8TypeInfo4dumpEv, __ZNR5swift8Demangle16DemanglerPrinterlsEx, 
                       __ZNR5swift8Demangle16DemanglerPrinterlsEy, __ZNSt3__112__hash_tableINS_17__hash_value_typeIN12_GLOBAL__N_117SubstitutionEntryEjEENS_22__unordered_map_hasherIS3_S4_NS3_6HasherELb1EEENS_21__unordered_map_equalIS3_S4_NS_8equal_toIS3_EELb1EEENS_9allocatorIS4_EEE8__rehashEm, 
                       '__ZZN12_GLOBAL__N_111NodePrinter5printENSt3__110shared_ptrIN5swift8Demangle4NodeEEEbbENK3$_0clEbbN4llvm9StringRefE', 
                       __ZZN12_GLOBAL__N_19Demangler18demangleIdentifierEN4llvm8OptionalIN5swift8Demangle4Node4KindEEEE13op_char_table, 
                       __ZZN12_GLOBAL__N_19Demangler21demangleArchetypeTypeEvENKUlNSt3__110shared_ptrIN5swift8Demangle4NodeEEEE0_clES6_, 
                       __ZZN12_GLOBAL__N_19Demangler21demangleArchetypeTypeEvENKUlNSt3__110shared_ptrIN5swift8Demangle4NodeEEEE_clES6_, 
                       __ZZN12_GLOBAL__N_19Demangler24demangleGenericSignatureEbENKUlvE_clEv, 
                       __ZZlsRN5swift8Demangle16DemanglerPrinterERKN12_GLOBAL__N_112QuotedStringEE8Hexdigit, 
                       _swift_reflection_addReflectionInfo, _swift_reflection_childOfInstance, 
                       _swift_reflection_childOfMetadata, _swift_reflection_childOfTypeRef, 
                       _swift_reflection_createReflectionContext, _swift_reflection_demangle, 
                       _swift_reflection_destroyReflectionContext, _swift_reflection_dumpInfoForInstance, 
                       _swift_reflection_dumpInfoForMetadata, _swift_reflection_dumpInfoForTypeRef, 
                       _swift_reflection_dumpTypeRef, _swift_reflection_genericArgumentCountOfTypeRef, 
                       _swift_reflection_genericArgumentOfTypeRef, _swift_reflection_getSupportedMetadataVersion, 
                       _swift_reflection_infoForInstance, _swift_reflection_infoForMetadata, 
                       _swift_reflection_infoForTypeRef, _swift_reflection_projectExistential, 
                       _swift_reflection_readIsaMask, _swift_reflection_typeRefForInstance, 
                       _swift_reflection_typeRefForMangledTypeName, _swift_reflection_typeRefForMetadata ]
    weak-def-symbols: [ __ZN5swift6remote14MetadataReaderINS_9InProcessENS_10reflection14TypeRefBuilderEED2Ev, 
                        __ZN12PrintTypeRef10printFieldIA13_cEERNSt3__113basic_ostreamIcNS2_11char_traitsIcEEEENS2_12basic_stringIcS5_NS2_9allocatorIcEEEERKT_, 
                        __ZN12PrintTypeRef10printFieldIA2_cEERNSt3__113basic_ostreamIcNS2_11char_traitsIcEEEENS2_12basic_stringIcS5_NS2_9allocatorIcEEEERKT_, 
                        __ZN12PrintTypeRef10printFieldIA5_cEERNSt3__113basic_ostreamIcNS2_11char_traitsIcEEEENS2_12basic_stringIcS5_NS2_9allocatorIcEEEERKT_, 
                        __ZN12PrintTypeRef10printFieldIA6_cEERNSt3__113basic_ostreamIcNS2_11char_traitsIcEEEENS2_12basic_stringIcS5_NS2_9allocatorIcEEEERKT_, 
                        __ZN12PrintTypeRef10printFieldINSt3__112basic_stringIcNS1_11char_traitsIcEENS1_9allocatorIcEEEEEERNS1_13basic_ostreamIcS4_EES7_RKT_, 
                        __ZN12PrintTypeRef10printFieldIjEERNSt3__113basic_ostreamIcNS1_11char_traitsIcEEEENS1_12basic_stringIcS4_NS1_9allocatorIcEEEERKT_, 
                        __ZN12PrintTypeRef11printHeaderENSt3__112basic_stringIcNS0_11char_traitsIcEENS0_9allocatorIcEEEE, 
                        __ZN12PrintTypeRef17visitTupleTypeRefEPKN5swift10reflection12TupleTypeRefE, 
                        __ZN12PrintTypeRef19visitBuiltinTypeRefEPKN5swift10reflection14BuiltinTypeRefE, 
                        __ZN12PrintTypeRef19visitNominalTypeRefEPKN5swift10reflection14NominalTypeRefE, 
                        __ZN12PrintTypeRef20visitFunctionTypeRefEPKN5swift10reflection15FunctionTypeRefE, 
                        __ZN12PrintTypeRef20visitMetatypeTypeRefEPKN5swift10reflection15MetatypeTypeRefE, 
                        __ZN12PrintTypeRef20visitProtocolTypeRefEPKN5swift10reflection15ProtocolTypeRefE, 
                        __ZN12PrintTypeRef21visitObjCClassTypeRefEPKN5swift10reflection16ObjCClassTypeRefE, 
                        __ZN12PrintTypeRef24visitBoundGenericTypeRefEPKN5swift10reflection19BoundGenericTypeRefE, 
                        __ZN12PrintTypeRef24visitForeignClassTypeRefEPKN5swift10reflection19ForeignClassTypeRefE, 
                        __ZN12PrintTypeRef27visitDependentMemberTypeRefEPKN5swift10reflection22DependentMemberTypeRefE, 
                        __ZN12PrintTypeRef31visitProtocolCompositionTypeRefEPKN5swift10reflection26ProtocolCompositionTypeRefE, 
                        __ZN12PrintTypeRef32visitGenericTypeParameterTypeRefEPKN5swift10reflection27GenericTypeParameterTypeRefE, 
                        __ZN15ThickenMetatype17visitTupleTypeRefEPKN5swift10reflection12TupleTypeRefE, 
                        __ZN15ThickenMetatype20visitFunctionTypeRefEPKN5swift10reflection15FunctionTypeRefE, 
                        __ZN15ThickenMetatype24visitBoundGenericTypeRefEPKN5swift10reflection19BoundGenericTypeRefE, 
                        __ZN17TypeRefIsConcrete20visitFunctionTypeRefEPKN5swift10reflection15FunctionTypeRefE, 
                        __ZN19PrintMetadataSource10printFieldIjEERNSt3__113basic_ostreamIcNS1_11char_traitsIcEEEENS1_12basic_stringIcS4_NS1_9allocatorIcEEEERKT_, 
                        __ZN19PrintMetadataSource11printHeaderENSt3__112basic_stringIcNS0_11char_traitsIcEENS0_9allocatorIcEEEE, 
                        __ZN19PrintMetadataSource34visitGenericArgumentMetadataSourceEPKN5swift10reflection29GenericArgumentMetadataSourceE, 
                        __ZN19TypeRefSubstitution17visitTupleTypeRefEPKN5swift10reflection12TupleTypeRefE, 
                        __ZN19TypeRefSubstitution20visitFunctionTypeRefEPKN5swift10reflection15FunctionTypeRefE, 
                        __ZN19TypeRefSubstitution24visitBoundGenericTypeRefEPKN5swift10reflection19BoundGenericTypeRefE, 
                        __ZN19TypeRefSubstitution27visitDependentMemberTypeRefEPKN5swift10reflection22DependentMemberTypeRefE, 
                        __ZN4llvm12DenseMapBaseINS_8DenseMapINSt3__14pairIjjEEPKN5swift10reflection17ReferenceTypeInfoENS_12DenseMapInfoIS4_EENS_6detail12DenseMapPairIS4_S9_EEEES4_S9_SB_SE_E20InsertIntoBucketImplIS4_EEPSE_RKS4_RKT_SI_, 
                        __ZN4llvm12DenseMapBaseINS_8DenseMapINSt3__14pairIjjEEPKN5swift10reflection7TypeRefENS_12DenseMapInfoIS4_EENS_6detail12DenseMapPairIS4_S9_EEEES4_S9_SB_SE_E20InsertIntoBucketImplIS4_EEPSE_RKS4_RKT_SI_, 
                        __ZN4llvm12DenseMapBaseINS_8DenseMapIPKN5swift10reflection7TypeRefENS_6detail13DenseSetEmptyENS_12DenseMapInfoIS6_EENS7_12DenseSetPairIS6_EEEES6_S8_SA_SC_E18moveFromOldBucketsEPSC_SF_, 
                        __ZN4llvm12DenseMapBaseINS_8DenseMapIPKN5swift10reflection7TypeRefENS_6detail13DenseSetEmptyENS_12DenseMapInfoIS6_EENS7_12DenseSetPairIS6_EEEES6_S8_SA_SC_E20InsertIntoBucketImplIS6_EEPSC_RKS6_RKT_SG_, 
                        __ZN4llvm12DenseMapBaseINS_8DenseMapIPKN5swift10reflection7TypeRefEPKNS3_8TypeInfoENS_12DenseMapInfoIS6_EENS_6detail12DenseMapPairIS6_S9_EEEES6_S9_SB_SE_E18moveFromOldBucketsEPSE_SH_, 
                        __ZN4llvm12DenseMapBaseINS_8DenseMapIPKN5swift10reflection7TypeRefEPKNS3_8TypeInfoENS_12DenseMapInfoIS6_EENS_6detail12DenseMapPairIS6_S9_EEEES6_S9_SB_SE_E20InsertIntoBucketImplIS6_EEPSE_RKS6_RKT_SI_, 
                        __ZN4llvm8DenseMapINSt3__14pairIjjEEPKN5swift10reflection17ReferenceTypeInfoENS_12DenseMapInfoIS3_EENS_6detail12DenseMapPairIS3_S8_EEE4growEj, 
                        __ZN4llvm8DenseMapINSt3__14pairIjjEEPKN5swift10reflection7TypeRefENS_12DenseMapInfoIS3_EENS_6detail12DenseMapPairIS3_S8_EEE4growEj, 
                        __ZN4llvm8DenseMapIPKN5swift10reflection7TypeRefENS_6detail13DenseSetEmptyENS_12DenseMapInfoIS5_EENS6_12DenseSetPairIS5_EEE4growEj, 
                        __ZN4llvm8DenseMapIPKN5swift10reflection7TypeRefEPKNS2_8TypeInfoENS_12DenseMapInfoIS5_EENS_6detail12DenseMapPairIS5_S8_EEE4growEj, 
                        __ZN4llvm8OptionalINSt3__112basic_stringIcNS1_11char_traitsIcEENS1_9allocatorIcEEEEEaSEOS8_, 
                        __ZN5swift10reflection12TupleTypeRef6createINS0_14TypeRefBuilderEEEPKS1_RT_NSt3__16vectorIPKNS0_7TypeRefENS8_9allocatorISC_EEEEb, 
                        __ZN5swift10reflection12TupleTypeRefD0Ev, __ZN5swift10reflection12TupleTypeRefD1Ev, 
                        __ZN5swift10reflection13OpaqueTypeRefD0Ev, __ZN5swift10reflection13OpaqueTypeRefD1Ev, 
                        __ZN5swift10reflection13SILBoxTypeRef6createINS0_14TypeRefBuilderEEEPKS1_RT_PKNS0_7TypeRefE, 
                        __ZN5swift10reflection13SILBoxTypeRefD0Ev, __ZN5swift10reflection13SILBoxTypeRefD1Ev, 
                        __ZN5swift10reflection13TypeConverter12makeTypeInfoINS0_15BuiltinTypeInfoEJPKNS0_21BuiltinTypeDescriptorEEEEPKT_DpT0_, 
                        __ZN5swift10reflection14BuiltinTypeRef6createINS0_14TypeRefBuilderEEEPKS1_RT_NSt3__112basic_stringIcNS8_11char_traitsIcEENS8_9allocatorIcEEEE, 
                        __ZN5swift10reflection14BuiltinTypeRefD0Ev, __ZN5swift10reflection14BuiltinTypeRefD1Ev, 
                        __ZN5swift10reflection14MetadataSource12decodeParentINS0_21MetadataSourceBuilderEEEPKS1_RT_RNSt3__111__wrap_iterIPKcEERKSC_, 
                        __ZN5swift10reflection14MetadataSource20decodeClosureBindingINS0_21MetadataSourceBuilderEEEPKS1_RT_RNSt3__111__wrap_iterIPKcEERKSC_, 
                        __ZN5swift10reflection14MetadataSource21decodeGenericArgumentINS0_21MetadataSourceBuilderEEEPKS1_RT_RNSt3__111__wrap_iterIPKcEERKSC_, 
                        __ZN5swift10reflection14MetadataSource21decodeMetadataCaptureINS0_21MetadataSourceBuilderEEEPKS1_RT_RNSt3__111__wrap_iterIPKcEERKSC_, 
                        __ZN5swift10reflection14MetadataSource22decodeReferenceCaptureINS0_21MetadataSourceBuilderEEEPKS1_RT_RNSt3__111__wrap_iterIPKcEERKSC_, 
                        __ZN5swift10reflection14MetadataSource6decodeINS0_21MetadataSourceBuilderEEEPKS1_RT_RNSt3__111__wrap_iterIPKcEERKSC_, 
                        __ZN5swift10reflection14NominalTypeRef6createINS0_14TypeRefBuilderEEEPKS1_RT_RKNSt3__112basic_stringIcNS8_11char_traitsIcEENS8_9allocatorIcEEEEPKNS0_7TypeRefE, 
                        __ZN5swift10reflection14NominalTypeRefD0Ev, __ZN5swift10reflection14NominalTypeRefD1Ev, 
                        __ZN5swift10reflection14TypeRefBuilder11makeTypeRefINS0_12TupleTypeRefEJNSt3__16vectorIPKNS0_7TypeRefENS4_9allocatorIS8_EEEEbEEEPKT_DpT0_, 
                        __ZN5swift10reflection14TypeRefBuilder11makeTypeRefINS0_15FunctionTypeRefEJNSt3__16vectorIPKNS0_7TypeRefENS4_9allocatorIS8_EEEES8_NS_23TargetFunctionTypeFlagsImEEEEEPKT_DpT0_, 
                        __ZN5swift10reflection14TypeRefBuilder11makeTypeRefINS0_19BoundGenericTypeRefEJNSt3__112basic_stringIcNS4_11char_traitsIcEENS4_9allocatorIcEEEENS4_6vectorIPKNS0_7TypeRefENS8_ISE_EEEESE_EEEPKT_DpT0_, 
                        __ZN5swift10reflection14TypeRefBuilder11makeTypeRefINS0_26ProtocolCompositionTypeRefEJNSt3__16vectorIPKNS0_7TypeRefENS4_9allocatorIS8_EEEEEEEPKT_DpT0_, 
                        __ZN5swift10reflection14TypeRefBuilder15createTupleTypeERKNSt3__16vectorIPKNS0_7TypeRefENS2_9allocatorIS6_EEEEONS2_12basic_stringIcNS2_11char_traitsIcEENS7_IcEEEEb, 
                        __ZN5swift10reflection14TypeRefBuilder18createFunctionTypeERKNSt3__16vectorIPKNS0_7TypeRefENS2_9allocatorIS6_EEEERKNS3_IbNS7_IbEEEES6_NS_23TargetFunctionTypeFlagsImEE, 
                        __ZN5swift10reflection14TypeRefBuilder22createBoundGenericTypeERKN4llvm8OptionalINSt3__112basic_stringIcNS4_11char_traitsIcEENS4_9allocatorIcEEEEEERKNS4_6vectorIPKNS0_7TypeRefENS8_ISH_EEEESH_, 
                        __ZN5swift10reflection14TypeRefBuilder29createProtocolCompositionTypeERKNSt3__16vectorIPKNS0_7TypeRefENS2_9allocatorIS6_EEEE, 
                        __ZN5swift10reflection14TypeRefBuilderD2Ev, __ZN5swift10reflection14TypeRefVisitorI12PrintTypeRefvJEE5visitEPKNS0_7TypeRefE, 
                        __ZN5swift10reflection14TypeRefVisitorI15ThickenMetatypePKNS0_7TypeRefEJEE5visitES5_, 
                        __ZN5swift10reflection14TypeRefVisitorI17TypeRefIsConcretebJEE5visitEPKNS0_7TypeRefE, 
                        __ZN5swift10reflection14TypeRefVisitorI19TypeRefSubstitutionPKNS0_7TypeRefEJEE5visitES5_, 
                        __ZN5swift10reflection14TypeRefVisitorINS0_12HasFixedSizeEbJEE5visitEPKNS0_7TypeRefE, 
                        __ZN5swift10reflection14TypeRefVisitorINS0_20HasSingletonMetatypeENS0_22MetatypeRepresentationEJEE5visitEPKNS0_7TypeRefE, 
                        __ZN5swift10reflection14TypeRefVisitorINS0_9LowerTypeEPKNS0_8TypeInfoEJEE5visitEPKNS0_7TypeRefE, 
                        __ZN5swift10reflection15FunctionTypeRef6createINS0_14TypeRefBuilderEEEPKS1_RT_NSt3__16vectorIPKNS0_7TypeRefENS8_9allocatorISC_EEEESC_NS_23TargetFunctionTypeFlagsImEE, 
                        __ZN5swift10reflection15FunctionTypeRef7ProfileERKNSt3__16vectorIPKNS0_7TypeRefENS2_9allocatorIS6_EEEES6_NS_23TargetFunctionTypeFlagsImEE, 
                        __ZN5swift10reflection15FunctionTypeRefD0Ev, __ZN5swift10reflection15FunctionTypeRefD1Ev, 
                        __ZN5swift10reflection15MetatypeTypeRef6createINS0_14TypeRefBuilderEEEPKS1_RT_PKNS0_7TypeRefEb, 
                        __ZN5swift10reflection15MetatypeTypeRefD0Ev, __ZN5swift10reflection15MetatypeTypeRefD1Ev, 
                        __ZN5swift10reflection15ProtocolTypeRef6createINS0_14TypeRefBuilderEEEPKS1_RT_RKNSt3__112basic_stringIcNS8_11char_traitsIcEENS8_9allocatorIcEEEE, 
                        __ZN5swift10reflection15ProtocolTypeRefD0Ev, __ZN5swift10reflection15ProtocolTypeRefD1Ev, 
                        __ZN5swift10reflection16ObjCClassTypeRef6createINS0_14TypeRefBuilderEEEPKS1_RT_RKNSt3__112basic_stringIcNS8_11char_traitsIcEENS8_9allocatorIcEEEE, 
                        __ZN5swift10reflection16ObjCClassTypeRefD0Ev, __ZN5swift10reflection16ObjCClassTypeRefD1Ev, 
                        __ZN5swift10reflection18SelfMetadataSourceD0Ev, 
                        __ZN5swift10reflection18SelfMetadataSourceD1Ev, 
                        __ZN5swift10reflection18WeakStorageTypeRef6createINS0_14TypeRefBuilderEEEPKS1_RT_PKNS0_7TypeRefE, 
                        __ZN5swift10reflection18WeakStorageTypeRefD0Ev, 
                        __ZN5swift10reflection18WeakStorageTypeRefD1Ev, 
                        __ZN5swift10reflection19BoundGenericTypeRef6createINS0_14TypeRefBuilderEEEPKS1_RT_RKNSt3__112basic_stringIcNS8_11char_traitsIcEENS8_9allocatorIcEEEENS8_6vectorIPKNS0_7TypeRefENSC_ISK_EEEESK_, 
                        __ZN5swift10reflection19BoundGenericTypeRefD0Ev, 
                        __ZN5swift10reflection19BoundGenericTypeRefD1Ev, 
                        __ZN5swift10reflection19EnumTypeInfoBuilder5buildEPKNS0_7TypeRefEPKNS0_15FieldDescriptorE, 
                        __ZN5swift10reflection19EnumTypeInfoBuilder7addCaseERKNSt3__112basic_stringIcNS2_11char_traitsIcEENS2_9allocatorIcEEEEPKNS0_7TypeRefEPKNS0_8TypeInfoE, 
                        __ZN5swift10reflection19ForeignClassTypeRef6createINS0_14TypeRefBuilderEEEPKS1_RT_RKNSt3__112basic_stringIcNS8_11char_traitsIcEENS8_9allocatorIcEEEE, 
                        __ZN5swift10reflection19ForeignClassTypeRefD0Ev, 
                        __ZN5swift10reflection19ForeignClassTypeRefD1Ev, 
                        __ZN5swift10reflection20ParentMetadataSourceD0Ev, 
                        __ZN5swift10reflection20ParentMetadataSourceD1Ev, 
                        __ZN5swift10reflection21MetadataSourceVisitorI19PrintMetadataSourcevJEE5visitEPKNS0_14MetadataSourceE, 
                        __ZN5swift10reflection21UnownedStorageTypeRef6createINS0_14TypeRefBuilderEEEPKS1_RT_PKNS0_7TypeRefE, 
                        __ZN5swift10reflection21UnownedStorageTypeRefD0Ev, 
                        __ZN5swift10reflection21UnownedStorageTypeRefD1Ev, 
                        __ZN5swift10reflection22DependentMemberTypeRef6createINS0_14TypeRefBuilderEEEPKS1_RT_RKNSt3__112basic_stringIcNS8_11char_traitsIcEENS8_9allocatorIcEEEEPKNS0_7TypeRefESJ_, 
                        __ZN5swift10reflection22DependentMemberTypeRefD0Ev, 
                        __ZN5swift10reflection22DependentMemberTypeRefD1Ev, 
                        __ZN5swift10reflection23UnmanagedStorageTypeRef6createINS0_14TypeRefBuilderEEEPKS1_RT_PKNS0_7TypeRefE, 
                        __ZN5swift10reflection23UnmanagedStorageTypeRefD0Ev, 
                        __ZN5swift10reflection23UnmanagedStorageTypeRefD1Ev, 
                        __ZN5swift10reflection26ExistentialMetatypeTypeRef6createINS0_14TypeRefBuilderEEEPKS1_RT_PKNS0_7TypeRefE, 
                        __ZN5swift10reflection26ExistentialMetatypeTypeRefD0Ev, 
                        __ZN5swift10reflection26ExistentialMetatypeTypeRefD1Ev, 
                        __ZN5swift10reflection26ExistentialTypeInfoBuilder13buildMetatypeEv, 
                        __ZN5swift10reflection26ExistentialTypeInfoBuilder16examineProtocolsEv, 
                        __ZN5swift10reflection26ExistentialTypeInfoBuilder5buildEv, 
                        __ZN5swift10reflection26ProtocolCompositionTypeRef6createINS0_14TypeRefBuilderEEEPKS1_RT_NSt3__16vectorIPKNS0_7TypeRefENS8_9allocatorISC_EEEE, 
                        __ZN5swift10reflection26ProtocolCompositionTypeRefD0Ev, 
                        __ZN5swift10reflection26ProtocolCompositionTypeRefD1Ev, 
                        __ZN5swift10reflection27GenericTypeParameterTypeRef6createINS0_14TypeRefBuilderEEEPKS1_RT_jj, 
                        __ZN5swift10reflection27GenericTypeParameterTypeRefD0Ev, 
                        __ZN5swift10reflection27GenericTypeParameterTypeRefD1Ev, 
                        __ZN5swift10reflection28ClosureBindingMetadataSourceD0Ev, 
                        __ZN5swift10reflection28ClosureBindingMetadataSourceD1Ev, 
                        __ZN5swift10reflection29GenericArgumentMetadataSourceD0Ev, 
                        __ZN5swift10reflection29GenericArgumentMetadataSourceD1Ev, 
                        __ZN5swift10reflection29MetadataCaptureMetadataSourceD0Ev, 
                        __ZN5swift10reflection29MetadataCaptureMetadataSourceD1Ev, 
                        __ZN5swift10reflection30ReferenceCaptureMetadataSourceD0Ev, 
                        __ZN5swift10reflection30ReferenceCaptureMetadataSourceD1Ev, 
                        __ZN5swift10reflection7TypeRefD0Ev, __ZN5swift10reflection7TypeRefD1Ev, 
                        __ZN5swift10reflection9LowerType17visitTupleTypeRefEPKNS0_12TupleTypeRefE, 
                        __ZN5swift10reflection9LowerType19visitBuiltinTypeRefEPKNS0_14BuiltinTypeRefE, 
                        __ZN5swift10reflection9LowerType20visitFunctionTypeRefEPKNS0_15FunctionTypeRefE, 
                        __ZN5swift10reflection9LowerType20visitMetatypeTypeRefEPKNS0_15MetatypeTypeRefE, 
                        __ZN5swift10reflection9LowerType20visitProtocolTypeRefEPKNS0_15ProtocolTypeRefE, 
                        __ZN5swift10reflection9LowerType22rebuildStorageTypeInfoEPKNS0_8TypeInfoENS0_13ReferenceKindE, 
                        __ZN5swift10reflection9LowerType22visitAnyNominalTypeRefEPKNS0_7TypeRefE, 
                        __ZN5swift10reflection9LowerType31visitExistentialMetatypeTypeRefEPKNS0_26ExistentialMetatypeTypeRefE, 
                        __ZN5swift10reflection9LowerType31visitProtocolCompositionTypeRefEPKNS0_26ProtocolCompositionTypeRefE, 
                        __ZN5swift10reflection9TypeRefID9addStringERKNSt3__112basic_stringIcNS2_11char_traitsIcEENS2_9allocatorIcEEEE, 
                        __ZN5swift6remote11TypeDecoderINS_10reflection14TypeRefBuilderEE17decodeMangledTypeERKNSt3__110shared_ptrINS_8Demangle4NodeEEE, 
                        __ZN5swift6remote11TypeDecoderINS_10reflection14TypeRefBuilderEE24decodeMangledNominalTypeERKNSt3__110shared_ptrINS_8Demangle4NodeEEERN4llvm8OptionalINS5_12basic_stringIcNS5_11char_traitsIcEENS5_9allocatorIcEEEEEERPKNS2_7TypeRefE, 
                        __ZN5swift6remote11TypeDecoderINS_10reflection14TypeRefBuilderEE30decodeMangledFunctionInputTypeERKNSt3__110shared_ptrINS_8Demangle4NodeEEERNS5_6vectorIPKNS2_7TypeRefENS5_9allocatorISF_EEEERNSC_IbNSG_IbEEEERNS_23TargetFunctionTypeFlagsImEE, 
                        __ZN5swift6remote13CMemoryReader10readStringENS0_13RemoteAddressERNSt3__112basic_stringIcNS3_11char_traitsIcEENS3_9allocatorIcEEEE, 
                        __ZN5swift6remote13CMemoryReader11getSizeSizeEv, 
                        __ZN5swift6remote13CMemoryReader14getPointerSizeEv, 
                        __ZN5swift6remote13CMemoryReader16getSymbolAddressERKNSt3__112basic_stringIcNS2_11char_traitsIcEENS2_9allocatorIcEEEE, 
                        __ZN5swift6remote13CMemoryReader9readBytesENS0_13RemoteAddressEPhy, 
                        __ZN5swift6remote13CMemoryReaderD0Ev, __ZN5swift6remote13CMemoryReaderD1Ev, 
                        __ZN5swift8Demangle11NodeFactory6createENS0_4Node4KindEN4llvm9StringRefE, 
                        __ZN5swift8Demangle4Node11addChildrenENSt3__110shared_ptrIS1_EES4_, 
                        __ZNK4llvm12DenseMapBaseINS_8DenseMapINSt3__14pairIjjEEPKN5swift10reflection17ReferenceTypeInfoENS_12DenseMapInfoIS4_EENS_6detail12DenseMapPairIS4_S9_EEEES4_S9_SB_SE_E15LookupBucketForIS4_EEbRKT_RPKSE_, 
                        __ZNK4llvm12DenseMapBaseINS_8DenseMapINSt3__14pairIjjEEPKN5swift10reflection7TypeRefENS_12DenseMapInfoIS4_EENS_6detail12DenseMapPairIS4_S9_EEEES4_S9_SB_SE_E15LookupBucketForIS4_EEbRKT_RPKSE_, 
                        __ZNSt3__112__hash_tableINS_17__hash_value_typeIN5swift10reflection9TypeRefIDEPKNS3_19BoundGenericTypeRefEEENS_22__unordered_map_hasherIS4_S8_NS4_4HashELb1EEENS_21__unordered_map_equalIS4_S8_NS4_5EqualELb1EEENS_9allocatorIS8_EEE4findIS4_EENS_15__hash_iteratorIPNS_11__hash_nodeIS8_PvEEEERKT_, 
                        __ZNSt3__112__hash_tableINS_17__hash_value_typeIN5swift10reflection9TypeRefIDEPKNS3_19BoundGenericTypeRefEEENS_22__unordered_map_hasherIS4_S8_NS4_4HashELb1EEENS_21__unordered_map_equalIS4_S8_NS4_5EqualELb1EEENS_9allocatorIS8_EEE6rehashEm, 
                        __ZNSt3__112__hash_tableINS_17__hash_value_typeIN5swift10reflection9TypeRefIDEPKNS3_19BoundGenericTypeRefEEENS_22__unordered_map_hasherIS4_S8_NS4_4HashELb1EEENS_21__unordered_map_equalIS4_S8_NS4_5EqualELb1EEENS_9allocatorIS8_EEE8__rehashEm, 
                        __ZNSt3__113basic_ostreamIcNS_11char_traitsIcEEE3putEc, 
                        __ZNSt3__113basic_ostreamIcNS_11char_traitsIcEEE5flushEv, 
                        __ZNSt3__113basic_ostreamIcNS_11char_traitsIcEEElsEj, 
                        __ZNSt3__114__copy_alignedINS_6vectorIbNS_9allocatorIbEEEELb0EEENS_14__bit_iteratorIT_Lb0EXLi0EEEENS5_IS6_XT0_EXLi0EEEES8_S7_, 
                        __ZNSt3__116__copy_unalignedINS_6vectorIbNS_9allocatorIbEEEELb0EEENS_14__bit_iteratorIT_Lb0EXLi0EEEENS5_IS6_XT0_EXLi0EEEES8_S7_, 
                        __ZNSt3__116__pad_and_outputIcNS_11char_traitsIcEEEENS_19ostreambuf_iteratorIT_T0_EES6_PKS4_S8_S8_RNS_8ios_baseES4_, 
                        __ZNSt3__120__shared_ptr_emplaceIN5swift6remote13CMemoryReaderENS_9allocatorIS3_EEE16__on_zero_sharedEv, 
                        __ZNSt3__120__shared_ptr_emplaceIN5swift6remote13CMemoryReaderENS_9allocatorIS3_EEE21__on_zero_shared_weakEv, 
                        __ZNSt3__120__shared_ptr_emplaceIN5swift6remote13CMemoryReaderENS_9allocatorIS3_EEED0Ev, 
                        __ZNSt3__120__shared_ptr_emplaceIN5swift6remote13CMemoryReaderENS_9allocatorIS3_EEED1Ev, 
                        __ZNSt3__120__shared_ptr_pointerIPN5swift8Demangle4NodeENS_14default_deleteIS3_EENS_9allocatorIS3_EEE16__on_zero_sharedEv, 
                        __ZNSt3__120__shared_ptr_pointerIPN5swift8Demangle4NodeENS_14default_deleteIS3_EENS_9allocatorIS3_EEED0Ev, 
                        __ZNSt3__120__shared_ptr_pointerIPN5swift8Demangle4NodeENS_14default_deleteIS3_EENS_9allocatorIS3_EEED1Ev, 
                        __ZNSt3__124__put_character_sequenceIcNS_11char_traitsIcEEEERNS_13basic_ostreamIT_T0_EES7_PKS4_m, 
                        __ZNSt3__127__tree_balance_after_insertIPNS_16__tree_node_baseIPvEEEEvT_S5_, 
                        __ZNSt3__16__treeINS_4pairIPKN5swift10reflection7TypeRefEPKNS3_14MetadataSourceEEENS_4lessISA_EENS_9allocatorISA_EEE15__insert_uniqueERKSA_, 
                        __ZNSt3__16__treeINS_4pairIPKN5swift10reflection7TypeRefEPKNS3_14MetadataSourceEEENS_4lessISA_EENS_9allocatorISA_EEE7destroyEPNS_11__tree_nodeISA_PvEE, 
                        __ZNSt3__16vectorIN5swift10reflection13FieldTypeInfoENS_9allocatorIS3_EEE21__push_back_slow_pathIRKS3_EEvOT_, 
                        __ZNSt3__16vectorIN5swift10reflection13FieldTypeInfoENS_9allocatorIS3_EEE21__push_back_slow_pathIS3_EEvOT_, 
                        __ZNSt3__16vectorIN5swift10reflection14ReflectionInfoENS_9allocatorIS3_EEE21__push_back_slow_pathIRKS3_EEvOT_, 
                        __ZNSt3__16vectorIN5swift10reflection9FieldInfoENS_9allocatorIS3_EEE21__push_back_slow_pathIRKS3_EEvOT_, 
                        __ZNSt3__16vectorIN5swift10reflection9FieldInfoENS_9allocatorIS3_EEE21__push_back_slow_pathIS3_EEvOT_, 
                        __ZNSt3__16vectorINS_10shared_ptrIN5swift8Demangle4NodeEEENS_9allocatorIS5_EEE21__push_back_slow_pathIRKS5_EEvOT_, 
                        __ZNSt3__16vectorINS_10unique_ptrIKN5swift10reflection7TypeRefENS_14default_deleteIS5_EEEENS_9allocatorIS8_EEE21__push_back_slow_pathIS8_EEvOT_, 
                        __ZNSt3__16vectorINS_10unique_ptrIKN5swift10reflection8TypeInfoENS_14default_deleteIS5_EEEENS_9allocatorIS8_EEE21__push_back_slow_pathIS8_EEvOT_, 
                        __ZNSt3__16vectorINS_4pairIPKN5swift10reflection7TypeRefEPKNS3_14MetadataSourceEEENS_9allocatorISA_EEE21__push_back_slow_pathISA_EEvOT_, 
                        __ZNSt3__16vectorIPKN5swift10reflection7TypeRefENS_9allocatorIS5_EEE21__push_back_slow_pathIRKS5_EEvOT_, 
                        __ZNSt3__16vectorIbNS_9allocatorIbEEE18__construct_at_endINS_14__bit_iteratorIS3_Lb0ELm0EEEEENS_9enable_ifIXsr21__is_forward_iteratorIT_EE5valueEvE4typeES8_S8_, 
                        __ZNSt3__16vectorIbNS_9allocatorIbEEE7reserveEm, 
                        __ZNSt3__16vectorIbNS_9allocatorIbEEE9push_backERKb, 
                        __ZNSt3__16vectorIjNS_9allocatorIjEEE21__push_back_slow_pathIRKjEEvOT_, 
                        __ZNSt3__16vectorIjNS_9allocatorIjEEE6insertENS_11__wrap_iterIPKjEERS5_, 
                        __ZNSt3__1lsINS_11char_traitsIcEEEERNS_13basic_ostreamIcT_EES6_PKc, 
                        __ZTVN5swift10reflection12TupleTypeRefE, __ZTVN5swift10reflection13OpaqueTypeRefE, 
                        __ZTVN5swift10reflection13SILBoxTypeRefE, __ZTVN5swift10reflection14BuiltinTypeRefE, 
                        __ZTVN5swift10reflection14NominalTypeRefE, __ZTVN5swift10reflection15FunctionTypeRefE, 
                        __ZTVN5swift10reflection15MetatypeTypeRefE, __ZTVN5swift10reflection15ProtocolTypeRefE, 
                        __ZTVN5swift10reflection16ObjCClassTypeRefE, __ZTVN5swift10reflection18SelfMetadataSourceE, 
                        __ZTVN5swift10reflection18WeakStorageTypeRefE, 
                        __ZTVN5swift10reflection19BoundGenericTypeRefE, 
                        __ZTVN5swift10reflection19ForeignClassTypeRefE, 
                        __ZTVN5swift10reflection20ParentMetadataSourceE, 
                        __ZTVN5swift10reflection21UnownedStorageTypeRefE, 
                        __ZTVN5swift10reflection22DependentMemberTypeRefE, 
                        __ZTVN5swift10reflection23UnmanagedStorageTypeRefE, 
                        __ZTVN5swift10reflection26ExistentialMetatypeTypeRefE, 
                        __ZTVN5swift10reflection26ProtocolCompositionTypeRefE, 
                        __ZTVN5swift10reflection27GenericTypeParameterTypeRefE, 
                        __ZTVN5swift10reflection28ClosureBindingMetadataSourceE, 
                        __ZTVN5swift10reflection29GenericArgumentMetadataSourceE, 
                        __ZTVN5swift10reflection29MetadataCaptureMetadataSourceE, 
                        __ZTVN5swift10reflection30ReferenceCaptureMetadataSourceE, 
                        __ZTVN5swift10reflection7TypeRefE, __ZTVN5swift6remote13CMemoryReaderE, 
                        __ZTVNSt3__120__shared_ptr_emplaceIN5swift6remote13CMemoryReaderENS_9allocatorIS3_EEEE, 
                        __ZTVNSt3__120__shared_ptr_pointerIPN5swift8Demangle4NodeENS_14default_deleteIS3_EENS_9allocatorIS3_EEEE ]
...
