---
archs:           [ armv7, armv7s, arm64 ]
platform:        ios
install-name:    /var/lib/libswift/4.0/libswiftCore.dylib
current-version: 0.0
compatibility-version: 0.0
exports:         
  - archs:           [ armv7, armv7s ]
    symbols:         [ ' stub helpers', '_CFStringCompare$shim', '_CFStringCreateCopy$shim', 
                       '_CFStringCreateWithSubstring$shim', '_CFStringFindWithOptions$shim', 
                       '_CFStringGetCStringPtr$shim', '_CFStringGetCharacterAtIndex$shim', 
                       '_CFStringGetCharacters$shim', '_CFStringGetCharactersPtr$shim', 
                       '_CFStringGetLength$shim', '_CFStringHashCString$shim', 
                       '_NSStringFromClass$shim', __T0SRyyXlGSis5Error_pIxydzo_AASisAB_pIxyrzo_TRTA.288, 
                       __T0SRyyXlGs5Error_pIxyzo_AAytsAB_pIxyrzo_TRTA.274, 
                       __T0SRyyXlGyXls5Error_pIxyozo_AAyXlsAB_pIxyrzo_TRTA.260, 
                       __T0SS13CharacterViewV5indexSS5IndexVAE6before_tFTm, 
                       __T0SS5IndexVABSi13encodedOffset_tcfCTm, __T0SS8UTF8ViewV16_forwardDistanceSiSS5IndexV4from_AE2totFys06_ValidA6BufferVys6UInt32VGcfU_TA.762, 
                       __T0SS8UTF8ViewV16_forwardDistanceSiSS5IndexV4from_AE2totFys06_ValidA6BufferVys6UInt32VGcfU_TA.766, 
                       __T0SS9UTF16ViewV5indexSS5IndexVAE5after_tFTm, __T0SS9UTF16ViewV7IndicesVs23_BidirectionalIndexablessAEP5index5IndexQzAI6before_tFTWTm, 
                       __T0Sa16_copyToNewBufferySi8oldCount_tFs18BidirectionalSliceVys6UInt64V5WordsVG_Tgq5Tm, 
                       __T0Sa16_copyToNewBufferySi8oldCount_tFs9SubstringV13CharacterViewV_Tgq5Tm, 
                       __T0Sa22_allocateUninitializedSayxG_SpyxGtSiFZSS13CharacterViewV_Tgq5Tfq4nd_nTm, 
                       __T0Sbs5Error_pIxdzo_SbsAA_pIxrzo_TRTA.594, __T0Sbs5Error_pIxdzo_SbsAA_pIxrzo_TRTA.616, 
                       __T0Sbs5Error_pIxdzo_SbsAA_pIxrzo_TRTA.774, __T0Si12customMirrors0B0VfgTm, 
                       __T0Sis17CustomReflectablessAAP12customMirrors0D0VfgTWTm, 
                       __T0Sis5Error_pIxdzo_SisAA_pIxrzo_TRTA.219, __T0Sis5Error_pIxdzo_SisAA_pIxrzo_TRTA.227, 
                       __T0s11_StringCoreV15_withCSubstringxs5RangeVySiG2in_q_m8encodingxSPy8CodeUnitQy_GKctKs16_UnicodeEncodingR_r0_lFxAK_SitKcfU_TA.246, 
                       __T0s11_StringCoreV19_highByteMultipliers6UInt16Vfg, 
                       __T0s11_StringCoreV6appendyx10contentsOf_ts8SequenceRzs6UInt16V7ElementRtzlFSbycfU_TA.590, 
                       __T0s11_StringCoreV6appendyx10contentsOf_ts8SequenceRzs6UInt16V7ElementRtzlFSbycfU_TA.612, 
                       __T0s11_StringCoreV6appendyx10contentsOf_ts8SequenceRzs6UInt16V7ElementRtzlFSbycfU_TA.770, 
                       __T0s15ContiguousArrayV16_copyToNewBufferySi8oldCount_tFSS_Tgq5Tm, 
                       __T0s17_assertionFailures5NeverOs12StaticStringV_SSAE4fileSu4lines6UInt32V5flagstFySRys5UInt8VGcfU_yAMcfU_yAMcfU_TA.748, 
                       __T0s19RawKeyPathComponentV6HeaderV13discriminators6UInt32Vfg, 
                       __T0s20_ArrayBufferProtocolPsE025_forceCreateUniqueMutableB0s011_ContiguousaB0Vy7ElementQzGSi011countForNewB0_Si03minL8CapacitytFAEys7UnicodeO6ScalarVG_Tgq5Tm, 
                       __T0s20_ArrayBufferProtocolPsE025_forceCreateUniqueMutableB0s011_ContiguousaB0Vy7ElementQzGSi011countForNewB0_Si03minL8CapacitytFs01_aB0Vys18BidirectionalSliceVys5Int64V5WordsVGG_Tgq5Tm, 
                       __T0s20_ArrayBufferProtocolPsE22_arrayOutOfPlaceUpdateys011_ContiguousaB0Vy7ElementQzGz_S2iqd__ts16_PointerFunctionRd__AFQyd__AGRSlFs01_aB0Vys9SubstringV8UTF8ViewVG_s07_IgnoreK0VyAPGTgq5Tfq4nnndn_nTm, 
                       __T0s21_arrayConditionalCastSayq_GSgSayxGr0_lFq_xKcfU_TA.851, 
                       __T0s22KeyedDecodingContainerVyxGs0abC8Protocolss9CodingKeyRzlsADP15decodeIfPresents5Int64VSgAIm_0F0Qz03forF0tKFTWTm, 
                       __T0s22KeyedDecodingContainerVyxGs0abC8Protocolss9CodingKeyRzlsADP6decodes5Int64VAIm_0F0Qz03forF0tKFTWTm, 
                       __T0s22LazyCollectionProtocolPsE7flatMaps0aB0Vys07FlattenB0Vys0aeB0Vy8ElementsQzqd__GGGqd__7ElementQzcs0B0Rd__lFAOs8SequencePQzs7UnicodeO6ScalarV9UTF16ViewVIxir_xAEyAGyAIyAjBQzAZGGGsAARzAZRsd__r__lItMxnr_Tpq5Tm, 
                       __T0s22_ContiguousArrayBufferVAByxGSi19_uninitializedCount_Si15minimumCapacitytcfCs7UnicodeO6ScalarV_Tgq5Tfq4nnd_nTm, 
                       __T0s23_setDownCastConditionals3SetVyq_GSgACyxGs8HashableRzsAGR_r0_lFTm, 
                       __T0s40_SwiftNativeNSArrayWithContiguousStorageC10getObjectsySpyyXlG_SC01_A7NSRangeV5rangetFySRyyXlGcfU_TA.270, 
                       __T0s40_SwiftNativeNSArrayWithContiguousStorageC18countByEnumeratingSiSpySC01_A22NSFastEnumerationStateVG4with_SpyyXlGSg7objectsSi0G0tFSiSRyyXlGcfU_TA.284, 
                       __T0s40_SwiftNativeNSArrayWithContiguousStorageC8objectAtyXlSiFyXlSRyyXlGcfU_TA.256, 
                       __T0s6MirrorVABs01_A0_p6legacy_ypXp11subjectTypeABSgycSg014makeSuperclassA0tcfcAFycfU_TA.816, 
                       __T0s6MirrorVABx_q_17unlabeledChildrenAB12DisplayStyleOSg07displayE0AB22AncestorRepresentationO08ancestorH0tcs10CollectionR_sAK7IndicesRp_sAK11SubSequenceRp_r0_lufCs5Int64V_s05EmptyJ0VyytGTgq5Tfq4ndngd_nTm, 
                       __T0s6MirrorVAByXl_yXlXp12subjectClassAB8ancestors01_A0_pSg6legacytcfcABSgycfU_TA.806, 
                       __T0s6UInt64V5WordsVs8SequencessAEP5splitSay03SubC0QzGSi9maxSplits_Sb25omittingEmptySubsequencesSb7ElementQzKc14whereSeparatortKFTWTm, 
                       __T0s8SequencePssAARzs14StringProtocol7ElementRpzlE7_joinedS2S9separator_tFSiycfU_TA.223, 
                       __T0s9SubstringV9UTF16ViewVs23BidirectionalCollectionssAEP5index5IndexQzAI6before_tFTWTm, 
                       __T0s9SubstringV9UTF16ViewVs23BidirectionalCollectionssAEP9formIndexy0G0Qzz6before_tFTWTm, 
                       __ZN5swift10CacheEntryIN12_GLOBAL__N_117GenericCacheEntryENS1_23GenericCacheEntryHeaderEE8allocateERNS_17MetadataAllocatorEPKPKvmm, 
                       __ZN5swift12metadataimpl20BufferValueWitnessesINS0_14ValueWitnessesIN12_GLOBAL__N_116ThickFunctionBoxEEELm8ELm4ELNS0_12FixedPackingE1EE13projectBufferEPNS_11ValueBufferEPKNS_14TargetMetadataINS_9InProcessEEE, 
                       __ZN5swift12metadataimpl20BufferValueWitnessesINS0_14ValueWitnessesIN12_GLOBAL__N_116ThickFunctionBoxEEELm8ELm4ELNS0_12FixedPackingE1EE14allocateBufferEPNS_11ValueBufferEPKNS_14TargetMetadataINS_9InProcessEEE, 
                       __ZN5swift12metadataimpl20BufferValueWitnessesINS0_14ValueWitnessesIN12_GLOBAL__N_116ThickFunctionBoxEEELm8ELm4ELNS0_12FixedPackingE1EE16deallocateBufferEPNS_11ValueBufferEPKNS_14TargetMetadataINS_9InProcessEEE, 
                       __ZN5swift12metadataimpl20BufferValueWitnessesINS0_14ValueWitnessesIN12_GLOBAL__N_116ThickFunctionBoxEEELm8ELm4ELNS0_12FixedPackingE1EE32initializeBufferWithCopyOfBufferEPNS_11ValueBufferES9_PKNS_14TargetMetadataINS_9InProcessEEE, 
                       __ZN5swift12metadataimpl20BufferValueWitnessesINS0_14ValueWitnessesIN12_GLOBAL__N_116ThickFunctionBoxEEELm8ELm4ELNS0_12FixedPackingE1EE32initializeBufferWithTakeOfBufferEPNS_11ValueBufferES9_PKNS_14TargetMetadataINS_9InProcessEEE, 
                       '__ZNSt3__112basic_stringIcNS_11char_traitsIcEENS_9allocatorIcEEE6appendEPKcm$shim', 
                       '__ZNSt3__112basic_stringIcNS_11char_traitsIcEENS_9allocatorIcEEE9push_backEc$shim', 
                       '__ZNSt3__16thread20hardware_concurrencyEv$shim', 
                       '__ZdlPv$shim', '___swbuf$shim', '__dyld_register_func_for_add_image$shim', 
                       '__objc_rootAutorelease$shim', '__swift_bridgeNonVerbatimFromObjectiveCToAny$shim', 
                       '__swift_class_getSuperclass$shim', '__swift_getBridgedNonVerbatimObjectiveCType$shim', 
                       '__swift_instantiateInertHeapObject$shim', '__swift_isBridgedNonVerbatimToObjectiveC$shim', 
                       '__swift_isClassOrObjCExistentialType$shim', '__swift_stdlib_CFStringGetCharacters$shim', 
                       '__swift_stdlib_flockfile_stdout$shim', '__swift_stdlib_funlockfile_stdout$shim', 
                       '__swift_stdlib_fwrite_stdout$shim', '__swift_stdlib_makeAnyHashableUsingDefaultRepresentation$shim', 
                       '__swift_stdlib_reportFatalError$shim', '__swift_stdlib_strlen$shim', 
                       '__swift_stdlib_strlen_unsigned$shim', '_class_respondsToSelector$shim', 
                       '_close$shim', '_dispatch_once_f$shim', '_flockfile$shim', 
                       '_free$shim', '_funlockfile$shim', '_fwrite$shim', 
                       '_malloc_default_zone$shim', '_malloc_size$shim', 
                       '_memcmp$shim', '_memcpy$shim', '_objc_copyWeak$shim', 
                       '_objc_destroyWeak$shim', '_objc_initWeak$shim', 
                       '_objc_loadWeakRetained$shim', '_objc_moveWeak$shim', 
                       '_objc_msgSend$shim', '_objc_release$shim', '_objc_retain$shim', 
                       '_objc_storeWeak$shim', '_object_dispose$shim', 
                       '_pthread_getspecific$shim', '_pthread_key_create$shim', 
                       '_pthread_setspecific$shim', '_putc$shim', '_read$shim', 
                       '_strlen$shim', '_swift_ClassMirror_count$shim', 
                       '_swift_EnumMirror_count$shim', '_swift_ObjCMirror_count$shim', 
                       '_swift_StructMirror_count$shim', '_swift_TupleMirror_count$shim', 
                       '_swift_bridgeObjectRelease$shim', '_swift_bufferAllocate$shim', 
                       '_swift_deallocClassInstance$shim', '_swift_deletedMethodError$shim', 
                       '_swift_errorRelease$shim', '_swift_getDefaultErrorCode$shim', 
                       '_swift_isUniquelyReferencedNonObjC$shim', '_swift_isUniquelyReferencedNonObjC_nonNull$shim', 
                       '_swift_isUniquelyReferencedNonObjC_nonNull_bridgeObject$shim', 
                       '_swift_isUniquelyReferencedOrPinnedNonObjC_nonNull$shim', 
                       '_swift_isUniquelyReferencedOrPinnedNonObjC_nonNull_bridgeObject$shim', 
                       '_swift_stdlib_Hashable_hashValue_indirect$shim', 
                       '_swift_stdlib_compareNSStringDeterministicUnicodeCollation$shim', 
                       '_swift_stdlib_getErrorDefaultUserInfo$shim', '_swift_storeEnumTagMultiPayload$shim', 
                       '_swift_stringFromUTF8InRawMemory$shim', '_swift_unknownRelease$shim', 
                       '_swift_unknownRelease_n$shim', '_swift_unknownRetain$shim', 
                       '_ubrk_close$shim', '_ubrk_following$shim', '_ubrk_open$shim', 
                       '_ubrk_preceding$shim', '_ubrk_setText$shim', '_write$shim' ]
    weak-def-symbols: [ __T0S2ryxGSpyxGSg5start_Si5counttcfCs5UInt8V_Tgq5, 
                        __T0SS13CharacterViewV15replaceSubrangeys5RangeVySS5IndexVG_x4withts10CollectionRzs0A0V7ElementRtzlFs0E29ReplaceableBidirectionalSliceVySSG_Tgq5Tfq4xnn_n, 
                        __T0SS13CharacterViewV9subscriptABs5RangeVySS5IndexVGcfgTfq4xx_nTfq4nnxn_n, 
                        __T0SS17UnicodeScalarViewV10startIndexSS0E0VfgTfq4x_n, 
                        __T0SS17UnicodeScalarViewV14_fromCoreIndexSS0F0VSiFTfq4nx_n, 
                        __T0SS17UnicodeScalarViewV28_isOnGraphemeClusterBoundarySbSS5IndexVFTfq4xn_n, 
                        __T0SS5IndexV13encodedOffsetSifgTfq4x_n, __T0SS5IndexV6_CacheOwCP, 
                        __T0SS5IndexV6_CacheOwCp, __T0SS5IndexV6_CacheOwTk, 
                        __T0SS5IndexV6_CacheOwXX, __T0SS5IndexV6_CacheOwal, 
                        __T0SS5IndexV6_CacheOwde, __T0SS5IndexV6_CacheOwpr, 
                        __T0SS5IndexVABSgAB_SS9UTF16ViewV6withintcfCTfq4xdd_n, 
                        __T0SS5IndexVABSi13encodedOffset_Si010transcodedC0AB6_CacheOtcfCTfq4nnnd_n, 
                        __T0SS5IndexVABSi13encodedOffset_tcfCTfq4nd_n, 
                        __T0SS5IndexVABSi7_offset_tcfCTfq4nd_n, __T0SS5IndexVwCP, 
                        __T0SS5IndexVwCp, __T0SS5IndexVwTk, __T0SS5IndexVwXX, 
                        __T0SS5IndexVwal, __T0SS5IndexVwde, __T0SS5IndexVwpr, 
                        __T0SS9UTF16ViewV10startIndexSS0D0VfgTfq4x_n, __T0SS9UTF16ViewV5indexSS5IndexVAE5after_tFTfq4xd_n, 
                        __T0SS9UTF16ViewV5indexSS5IndexVAE6before_tFTfq4xd_n, 
                        __T0SS9UTF16ViewV5indexSS5IndexVAE_Si8offsetBytFTfq4xnd_n, 
                        __T0SS9UTF16ViewV8distanceSiSS5IndexV4from_AE2totFTfq4xxd_n, 
                        __T0SS9UTF16ViewV8endIndexSS0D0VfgTfq4x_n, __T0SdwCP, 
                        __T0SdwCp, __T0SdwTk, __T0SdwXX, __T0Sdwal, __T0Sdwde, 
                        __T0Sdwpr, __T0Sp10initializeyx2to_Si5counttFs9CharacterV_Tgq5Tfq4gnn_n, 
                        __T0Sq27_unsafelyUnwrappedUncheckedxfgSrys5UInt8VG_Tgq5, 
                        __T0Sq27_unsafelyUnwrappedUncheckedxfgs7UnicodeO6ScalarV_Tgq5, 
                        __T0Sr5countSifgs9CharacterV_Tgq5Tfq4x_n, __T0Sr8endIndexSifgs5UInt8V_Tgq5, 
                        __T0Sr9subscriptxSicfgs5UInt8V_Tgq5, __T0s10CollectionPsE5count13IndexDistanceQzfgSS9UTF16ViewV7IndicesV_Tgq5, 
                        __T0s10CollectionPsE6prefix11SubSequenceQz5IndexQz7through_tFSS13CharacterViewV_Tgq5Tfq4xn_n, 
                        __T0s10StrideablePsE5_stepSiSg5index_x5valuetAdE_xAFt5after_x4from6StrideQz2bytFZs5Int64V_Tgq5, 
                        __T0s10_IndexablePsE8distance13IndexDistanceQz0C0Qz4from_AG2totFs17FlattenCollectionVys07LazyMapH0Vys05EmptyH0Vys9CharacterVGSS9UTF16ViewVGG_Tgq5Tfq4xxn_n, 
                        __T0s10_UTFParserPssAARzs26RangeReplaceableCollection8Encoding_13EncodedScalarRPzlE05parseG0s7UnicodeO11ParseResultOy_AFGqd__z4from_ts16IteratorProtocolRd__AD_8CodeUnitQZ7ElementRtd__lFAI5UTF16O13ForwardParserV_s08IndexingM0Vys11_StringCoreVGTgq5, 
                        __T0s10_expectEndyx2of_5IndexQz2ists10CollectionRzlFSS13CharacterViewV_Tgq5Tfq4gx_n, 
                        __T0s10_expectEndyx2of_5IndexQz2ists10CollectionRzlFSS_Tgq5Tfq4gXx_nTfq4dnnn_n, 
                        __T0s10_expectEndyx2of_5IndexQz2ists10CollectionRzlFs9CharacterV17UnicodeScalarViewV_Tgq5Tfq4gx_n, 
                        __T0s11_StringCoreV12nativeBuffers01_aD0VSgfgTfq4x_n, 
                        __T0s11_StringCoreV19_highByteMultipliers6UInt16VfgTfq4x_n, 
                        __T0s12StaticStringV14withUTF8BufferxxSRys5UInt8VGclFyAEcfU_Tfq0nss_n, 
                        __T0s13BinaryIntegerPsE1loiSbx_qd__tsAARd__lFZSi_SiTgq5, 
                        __T0s13BinaryIntegerPsE1loiSbx_qd__tsAARd__lFZSi_s6UInt64VTgq5, 
                        __T0s13SignedIntegerPss010FixedWidthB0RzsAARzlExqd__cs06BinaryB0Rd__lufCSi_SiTgq5, 
                        __T0s13SignedIntegerPss010FixedWidthB0RzsAARzlExqd__cs06BinaryB0Rd__lufCSi_s6UInt64VTgq5, 
                        __T0s14CountableRangeV5indexxx5after_tFs5Int64V_Tgq5, 
                        __T0s15UnsignedIntegerPsE11descriptionSSfgs6UInt64V_Tgq5, 
                        __T0s15UnsignedIntegerPss010FixedWidthB0RzsAARzlExqd__cs06BinaryB0Rd__lufCs6UInt64V_SiTgq5, 
                        __T0s16_DebuggerSupportO12shouldExpandSbs6MirrorV6mirror_AB16CollectionStatusO010collectionH0Sb6isRoottFZTfq4gXnnn_n, 
                        __T0s16_ValidUTF8BufferV03_isA0SbAB5IndexVyx_GFs6UInt64V_Tgq5, 
                        __T0s17FixedWidthIntegerPsE20_nonMaskingLeftShiftxx_SitFZSi_Tgq5, 
                        __T0s17FixedWidthIntegerPsE21_nonMaskingRightShiftxx_SitFZs6UInt64V_Tgq5, 
                        __T0s17FixedWidthIntegerPsE3aggoixx_qd__ts06BinaryC0Rd__lFZs6UInt64V_SiTgq5Tfq4nnd_n, 
                        __T0s17LazyMapCollectionV9subscriptq_5IndexQzcfgs34RangeReplaceableBidirectionalSliceVySSG_SS9UTF16ViewVTgq5Tfq4xn_n, 
                        __T0s2neoiSbxSg_ABts9EquatableRzlFSv_Tgq5, __T0s34RangeReplaceableBidirectionalSliceV15replaceSubrangeys0A0Vy5Indexs14_IndexableBasePQzG_qd__4withts10CollectionRd__7ElementQyd__AmHRtzlFAEySSAFVGqd__ABySSGSSRszsALRd__s9CharacterVAMs8SequencePRtd__r__lItMyil_Tpq5Tfq4xnn_nTfq4ndxnn_n, 
                        __T0s34RangeReplaceableBidirectionalSliceV15replaceSubrangeys0A0Vy5Indexs14_IndexableBasePQzG_qd__4withts10CollectionRd__7ElementQyd__AmHRtzlFSS_s05EmptyK0Vys9CharacterVGTgq5Tfq4xdn_nTfq4ndxn_n, 
                        __T0s34RangeReplaceableBidirectionalSliceV15replaceSubrangeys0A0Vy5Indexs14_IndexableBasePQzG_qd__4withts10CollectionRd__7ElementQyd__AmHRtzlFSS_s0K5OfOneVys9CharacterVGTgq5Tfq4xnn_nTfq4ndxnn_n, 
                        __T0s5Int64V5WordsVwCP, __T0s5Int64V5WordsVwCp, 
                        __T0s5Int64V5WordsVwTk, __T0s5Int64V5WordsVwXX, 
                        __T0s5Int64V5WordsVwal, __T0s5Int64V5WordsVwde, 
                        __T0s5Int64V5WordsVwpr, __T0s5Int64VwCP, __T0s5Int64VwCp, 
                        __T0s5Int64VwTk, __T0s5Int64VwXX, __T0s5Int64Vwal, 
                        __T0s5Int64Vwde, __T0s5Int64Vwpr, __T0s6UInt64V5WordsVwCP, 
                        __T0s6UInt64V5WordsVwCp, __T0s6UInt64V5WordsVwTk, 
                        __T0s6UInt64V5WordsVwXX, __T0s6UInt64V5WordsVwal, 
                        __T0s6UInt64V5WordsVwde, __T0s6UInt64V5WordsVwpr, 
                        __T0s6UInt64VwCP, __T0s6UInt64VwCp, __T0s6UInt64VwTk, 
                        __T0s6UInt64VwXX, __T0s6UInt64Vwal, __T0s6UInt64Vwde, 
                        __T0s6UInt64Vwpr, __T0s7UnicodeO4UTF8O9transcodes06_ValidB6BufferVys6UInt32VGSg13EncodedScalarQz_xm4fromts01_A8EncodingRzlFZAB5UTF16O_Tgq5, 
                        __T0s9CharacterV14RepresentationOwTk, __T0s9CharacterV14RepresentationOwal, 
                        __T0s9CharacterV14RepresentationOwde, __T0s9CharacterV14RepresentationOwpr, 
                        __T0s9CharacterV17UnicodeScalarViewV8IteratorVwTk, 
                        __T0s9CharacterV17UnicodeScalarViewV8IteratorVwal, 
                        __T0s9CharacterV17UnicodeScalarViewV8IteratorVwde, 
                        __T0s9CharacterV17UnicodeScalarViewV8IteratorVwpr, 
                        __T0s9CharacterV17UnicodeScalarViewVwTk, __T0s9CharacterV17UnicodeScalarViewVwal, 
                        __T0s9CharacterV17UnicodeScalarViewVwde, __T0s9CharacterV17UnicodeScalarViewVwpr, 
                        __T0s9CharacterVwTk, __T0s9CharacterVwal, __T0s9CharacterVwde, 
                        __T0s9CharacterVwpr, __ZN16ConformanceState12cacheSuccessEPKvPKN5swift24TargetProtocolDescriptorINS2_9InProcessEEEPKNS2_12WitnessTableE, 
                        __ZN5swift12metadataimpl14ValueWitnessesINS0_9NativeBoxINS_11ValueBufferELm4ELm12ELm12EEEE12destroyArrayEPNS_11OpaqueValueEmPKNS_14TargetMetadataINS_9InProcessEEE, 
                        __ZN5swift12metadataimpl14ValueWitnessesINS0_9NativeBoxINS_11ValueBufferELm4ELm12ELm12EEEE14assignWithCopyEPNS_11OpaqueValueES7_PKNS_14TargetMetadataINS_9InProcessEEE, 
                        __ZN5swift12metadataimpl14ValueWitnessesINS0_9NativeBoxINS_11ValueBufferELm4ELm12ELm12EEEE14assignWithTakeEPNS_11OpaqueValueES7_PKNS_14TargetMetadataINS_9InProcessEEE, 
                        __ZN5swift12metadataimpl14ValueWitnessesINS0_9NativeBoxINS_11ValueBufferELm4ELm12ELm12EEEE18initializeWithCopyEPNS_11OpaqueValueES7_PKNS_14TargetMetadataINS_9InProcessEEE, 
                        __ZN5swift12metadataimpl14ValueWitnessesINS0_9NativeBoxINS_11ValueBufferELm4ELm12ELm12EEEE18initializeWithTakeEPNS_11OpaqueValueES7_PKNS_14TargetMetadataINS_9InProcessEEE, 
                        __ZN5swift12metadataimpl14ValueWitnessesINS0_9NativeBoxINS_11ValueBufferELm4ELm12ELm12EEEE23initializeArrayWithCopyEPNS_11OpaqueValueES7_mPKNS_14TargetMetadataINS_9InProcessEEE, 
                        __ZN5swift12metadataimpl14ValueWitnessesINS0_9NativeBoxINS_11ValueBufferELm4ELm12ELm12EEEE34initializeArrayWithTakeBackToFrontEPNS_11OpaqueValueES7_mPKNS_14TargetMetadataINS_9InProcessEEE, 
                        __ZN5swift12metadataimpl14ValueWitnessesINS0_9NativeBoxINS_11ValueBufferELm4ELm12ELm12EEEE34initializeArrayWithTakeFrontToBackEPNS_11OpaqueValueES7_mPKNS_14TargetMetadataINS_9InProcessEEE, 
                        __ZN5swift12metadataimpl14ValueWitnessesINS0_9NativeBoxINS_11ValueBufferELm4ELm12ELm12EEEE7destroyEPNS_11OpaqueValueEPKNS_14TargetMetadataINS_9InProcessEEE, 
                        __ZN5swift12metadataimpl20BufferValueWitnessesINS0_14ValueWitnessesINS0_13RawPointerBoxEEELm4ELm4ELNS0_12FixedPackingE1EE13projectBufferEPNS_11ValueBufferEPKNS_14TargetMetadataINS_9InProcessEEE, 
                        __ZN5swift12metadataimpl20BufferValueWitnessesINS0_14ValueWitnessesINS0_13RawPointerBoxEEELm4ELm4ELNS0_12FixedPackingE1EE14allocateBufferEPNS_11ValueBufferEPKNS_14TargetMetadataINS_9InProcessEEE, 
                        __ZN5swift12metadataimpl20BufferValueWitnessesINS0_14ValueWitnessesINS0_13RawPointerBoxEEELm4ELm4ELNS0_12FixedPackingE1EE16deallocateBufferEPNS_11ValueBufferEPKNS_14TargetMetadataINS_9InProcessEEE, 
                        __ZN5swift12metadataimpl20BufferValueWitnessesINS0_14ValueWitnessesINS0_13RawPointerBoxEEELm4ELm4ELNS0_12FixedPackingE1EE32initializeBufferWithCopyOfBufferEPNS_11ValueBufferES8_PKNS_14TargetMetadataINS_9InProcessEEE, 
                        __ZN5swift12metadataimpl20BufferValueWitnessesINS0_14ValueWitnessesINS0_13RawPointerBoxEEELm4ELm4ELNS0_12FixedPackingE1EE32initializeBufferWithTakeOfBufferEPNS_11ValueBufferES8_PKNS_14TargetMetadataINS_9InProcessEEE, 
                        __ZN5swift12metadataimpl20BufferValueWitnessesINS0_14ValueWitnessesINS0_15BridgeObjectBoxEEELm4ELm4ELNS0_12FixedPackingE1EE13projectBufferEPNS_11ValueBufferEPKNS_14TargetMetadataINS_9InProcessEEE, 
                        __ZN5swift12metadataimpl20BufferValueWitnessesINS0_14ValueWitnessesINS0_15BridgeObjectBoxEEELm4ELm4ELNS0_12FixedPackingE1EE14allocateBufferEPNS_11ValueBufferEPKNS_14TargetMetadataINS_9InProcessEEE, 
                        __ZN5swift12metadataimpl20BufferValueWitnessesINS0_14ValueWitnessesINS0_15BridgeObjectBoxEEELm4ELm4ELNS0_12FixedPackingE1EE16deallocateBufferEPNS_11ValueBufferEPKNS_14TargetMetadataINS_9InProcessEEE, 
                        __ZN5swift12metadataimpl20BufferValueWitnessesINS0_14ValueWitnessesINS0_15BridgeObjectBoxEEELm4ELm4ELNS0_12FixedPackingE1EE32initializeBufferWithCopyOfBufferEPNS_11ValueBufferES8_PKNS_14TargetMetadataINS_9InProcessEEE, 
                        __ZN5swift12metadataimpl20BufferValueWitnessesINS0_14ValueWitnessesINS0_15BridgeObjectBoxEEELm4ELm4ELNS0_12FixedPackingE1EE32initializeBufferWithTakeOfBufferEPNS_11ValueBufferES8_PKNS_14TargetMetadataINS_9InProcessEEE, 
                        __ZN5swift12metadataimpl20BufferValueWitnessesINS0_14ValueWitnessesINS0_17ObjCRetainableBoxEEELm4ELm4ELNS0_12FixedPackingE1EE13projectBufferEPNS_11ValueBufferEPKNS_14TargetMetadataINS_9InProcessEEE, 
                        __ZN5swift12metadataimpl20BufferValueWitnessesINS0_14ValueWitnessesINS0_17ObjCRetainableBoxEEELm4ELm4ELNS0_12FixedPackingE1EE14allocateBufferEPNS_11ValueBufferEPKNS_14TargetMetadataINS_9InProcessEEE, 
                        __ZN5swift12metadataimpl20BufferValueWitnessesINS0_14ValueWitnessesINS0_17ObjCRetainableBoxEEELm4ELm4ELNS0_12FixedPackingE1EE16deallocateBufferEPNS_11ValueBufferEPKNS_14TargetMetadataINS_9InProcessEEE, 
                        __ZN5swift12metadataimpl20BufferValueWitnessesINS0_14ValueWitnessesINS0_17ObjCRetainableBoxEEELm4ELm4ELNS0_12FixedPackingE1EE32initializeBufferWithCopyOfBufferEPNS_11ValueBufferES8_PKNS_14TargetMetadataINS_9InProcessEEE, 
                        __ZN5swift12metadataimpl20BufferValueWitnessesINS0_14ValueWitnessesINS0_17ObjCRetainableBoxEEELm4ELm4ELNS0_12FixedPackingE1EE32initializeBufferWithTakeOfBufferEPNS_11ValueBufferES8_PKNS_14TargetMetadataINS_9InProcessEEE, 
                        __ZN5swift12metadataimpl20BufferValueWitnessesINS0_14ValueWitnessesINS0_17PointerPointerBoxEEELm4ELm4ELNS0_12FixedPackingE1EE13projectBufferEPNS_11ValueBufferEPKNS_14TargetMetadataINS_9InProcessEEE, 
                        __ZN5swift12metadataimpl20BufferValueWitnessesINS0_14ValueWitnessesINS0_17PointerPointerBoxEEELm4ELm4ELNS0_12FixedPackingE1EE14allocateBufferEPNS_11ValueBufferEPKNS_14TargetMetadataINS_9InProcessEEE, 
                        __ZN5swift12metadataimpl20BufferValueWitnessesINS0_14ValueWitnessesINS0_17PointerPointerBoxEEELm4ELm4ELNS0_12FixedPackingE1EE16deallocateBufferEPNS_11ValueBufferEPKNS_14TargetMetadataINS_9InProcessEEE, 
                        __ZN5swift12metadataimpl20BufferValueWitnessesINS0_14ValueWitnessesINS0_17PointerPointerBoxEEELm4ELm4ELNS0_12FixedPackingE1EE32initializeBufferWithCopyOfBufferEPNS_11ValueBufferES8_PKNS_14TargetMetadataINS_9InProcessEEE, 
                        __ZN5swift12metadataimpl20BufferValueWitnessesINS0_14ValueWitnessesINS0_17PointerPointerBoxEEELm4ELm4ELNS0_12FixedPackingE1EE32initializeBufferWithTakeOfBufferEPNS_11ValueBufferES8_PKNS_14TargetMetadataINS_9InProcessEEE, 
                        __ZN5swift12metadataimpl20BufferValueWitnessesINS0_14ValueWitnessesINS0_18FunctionPointerBoxEEELm4ELm4ELNS0_12FixedPackingE1EE13projectBufferEPNS_11ValueBufferEPKNS_14TargetMetadataINS_9InProcessEEE, 
                        __ZN5swift12metadataimpl20BufferValueWitnessesINS0_14ValueWitnessesINS0_18FunctionPointerBoxEEELm4ELm4ELNS0_12FixedPackingE1EE14allocateBufferEPNS_11ValueBufferEPKNS_14TargetMetadataINS_9InProcessEEE, 
                        __ZN5swift12metadataimpl20BufferValueWitnessesINS0_14ValueWitnessesINS0_18FunctionPointerBoxEEELm4ELm4ELNS0_12FixedPackingE1EE16deallocateBufferEPNS_11ValueBufferEPKNS_14TargetMetadataINS_9InProcessEEE, 
                        __ZN5swift12metadataimpl20BufferValueWitnessesINS0_14ValueWitnessesINS0_18FunctionPointerBoxEEELm4ELm4ELNS0_12FixedPackingE1EE32initializeBufferWithCopyOfBufferEPNS_11ValueBufferES8_PKNS_14TargetMetadataINS_9InProcessEEE, 
                        __ZN5swift12metadataimpl20BufferValueWitnessesINS0_14ValueWitnessesINS0_18FunctionPointerBoxEEELm4ELm4ELNS0_12FixedPackingE1EE32initializeBufferWithTakeOfBufferEPNS_11ValueBufferES8_PKNS_14TargetMetadataINS_9InProcessEEE, 
                        __ZN5swift12metadataimpl20BufferValueWitnessesINS0_14ValueWitnessesINS0_18SwiftRetainableBoxEEELm4ELm4ELNS0_12FixedPackingE1EE13projectBufferEPNS_11ValueBufferEPKNS_14TargetMetadataINS_9InProcessEEE, 
                        __ZN5swift12metadataimpl20BufferValueWitnessesINS0_14ValueWitnessesINS0_18SwiftRetainableBoxEEELm4ELm4ELNS0_12FixedPackingE1EE14allocateBufferEPNS_11ValueBufferEPKNS_14TargetMetadataINS_9InProcessEEE, 
                        __ZN5swift12metadataimpl20BufferValueWitnessesINS0_14ValueWitnessesINS0_18SwiftRetainableBoxEEELm4ELm4ELNS0_12FixedPackingE1EE16deallocateBufferEPNS_11ValueBufferEPKNS_14TargetMetadataINS_9InProcessEEE, 
                        __ZN5swift12metadataimpl20BufferValueWitnessesINS0_14ValueWitnessesINS0_18SwiftRetainableBoxEEELm4ELm4ELNS0_12FixedPackingE1EE32initializeBufferWithCopyOfBufferEPNS_11ValueBufferES8_PKNS_14TargetMetadataINS_9InProcessEEE, 
                        __ZN5swift12metadataimpl20BufferValueWitnessesINS0_14ValueWitnessesINS0_18SwiftRetainableBoxEEELm4ELm4ELNS0_12FixedPackingE1EE32initializeBufferWithTakeOfBufferEPNS_11ValueBufferES8_PKNS_14TargetMetadataINS_9InProcessEEE, 
                        __ZN5swift12metadataimpl20BufferValueWitnessesINS0_14ValueWitnessesINS0_19ClassExistentialBoxILj1EEEEELm8ELm4ELNS0_12FixedPackingE1EE13projectBufferEPNS_11ValueBufferEPKNS_14TargetMetadataINS_9InProcessEEE, 
                        __ZN5swift12metadataimpl20BufferValueWitnessesINS0_14ValueWitnessesINS0_19ClassExistentialBoxILj1EEEEELm8ELm4ELNS0_12FixedPackingE1EE14allocateBufferEPNS_11ValueBufferEPKNS_14TargetMetadataINS_9InProcessEEE, 
                        __ZN5swift12metadataimpl20BufferValueWitnessesINS0_14ValueWitnessesINS0_19ClassExistentialBoxILj1EEEEELm8ELm4ELNS0_12FixedPackingE1EE16deallocateBufferEPNS_11ValueBufferEPKNS_14TargetMetadataINS_9InProcessEEE, 
                        __ZN5swift12metadataimpl20BufferValueWitnessesINS0_14ValueWitnessesINS0_19ClassExistentialBoxILj1EEEEELm8ELm4ELNS0_12FixedPackingE1EE32initializeBufferWithCopyOfBufferEPNS_11ValueBufferES9_PKNS_14TargetMetadataINS_9InProcessEEE, 
                        __ZN5swift12metadataimpl20BufferValueWitnessesINS0_14ValueWitnessesINS0_19ClassExistentialBoxILj1EEEEELm8ELm4ELNS0_12FixedPackingE1EE32initializeBufferWithTakeOfBufferEPNS_11ValueBufferES9_PKNS_14TargetMetadataINS_9InProcessEEE, 
                        __ZN5swift12metadataimpl20BufferValueWitnessesINS0_14ValueWitnessesINS0_19ClassExistentialBoxILj2EEEEELm12ELm4ELNS0_12FixedPackingE1EE13projectBufferEPNS_11ValueBufferEPKNS_14TargetMetadataINS_9InProcessEEE, 
                        __ZN5swift12metadataimpl20BufferValueWitnessesINS0_14ValueWitnessesINS0_19ClassExistentialBoxILj2EEEEELm12ELm4ELNS0_12FixedPackingE1EE14allocateBufferEPNS_11ValueBufferEPKNS_14TargetMetadataINS_9InProcessEEE, 
                        __ZN5swift12metadataimpl20BufferValueWitnessesINS0_14ValueWitnessesINS0_19ClassExistentialBoxILj2EEEEELm12ELm4ELNS0_12FixedPackingE1EE16deallocateBufferEPNS_11ValueBufferEPKNS_14TargetMetadataINS_9InProcessEEE, 
                        __ZN5swift12metadataimpl20BufferValueWitnessesINS0_14ValueWitnessesINS0_19ClassExistentialBoxILj2EEEEELm12ELm4ELNS0_12FixedPackingE1EE32initializeBufferWithCopyOfBufferEPNS_11ValueBufferES9_PKNS_14TargetMetadataINS_9InProcessEEE, 
                        __ZN5swift12metadataimpl20BufferValueWitnessesINS0_14ValueWitnessesINS0_19ClassExistentialBoxILj2EEEEELm12ELm4ELNS0_12FixedPackingE1EE32initializeBufferWithTakeOfBufferEPNS_11ValueBufferES9_PKNS_14TargetMetadataINS_9InProcessEEE, 
                        __ZN5swift12metadataimpl20BufferValueWitnessesINS0_14ValueWitnessesINS0_20OpaqueExistentialBoxILj0EEEEELm16ELm4ELNS0_12FixedPackingE0EE13projectBufferEPNS_11ValueBufferEPKNS_14TargetMetadataINS_9InProcessEEE, 
                        __ZN5swift12metadataimpl20BufferValueWitnessesINS0_14ValueWitnessesINS0_20OpaqueExistentialBoxILj0EEEEELm16ELm4ELNS0_12FixedPackingE0EE14allocateBufferEPNS_11ValueBufferEPKNS_14TargetMetadataINS_9InProcessEEE, 
                        __ZN5swift12metadataimpl20BufferValueWitnessesINS0_14ValueWitnessesINS0_20OpaqueExistentialBoxILj0EEEEELm16ELm4ELNS0_12FixedPackingE0EE16deallocateBufferEPNS_11ValueBufferEPKNS_14TargetMetadataINS_9InProcessEEE, 
                        __ZN5swift12metadataimpl20BufferValueWitnessesINS0_14ValueWitnessesINS0_20OpaqueExistentialBoxILj0EEEEELm16ELm4ELNS0_12FixedPackingE0EE32initializeBufferWithCopyOfBufferEPNS_11ValueBufferES9_PKNS_14TargetMetadataINS_9InProcessEEE, 
                        __ZN5swift12metadataimpl20BufferValueWitnessesINS0_14ValueWitnessesINS0_20OpaqueExistentialBoxILj0EEEEELm16ELm4ELNS0_12FixedPackingE0EE32initializeBufferWithTakeOfBufferEPNS_11ValueBufferES9_PKNS_14TargetMetadataINS_9InProcessEEE, 
                        __ZN5swift12metadataimpl20BufferValueWitnessesINS0_14ValueWitnessesINS0_20OpaqueExistentialBoxILj1EEEEELm20ELm4ELNS0_12FixedPackingE0EE13projectBufferEPNS_11ValueBufferEPKNS_14TargetMetadataINS_9InProcessEEE, 
                        __ZN5swift12metadataimpl20BufferValueWitnessesINS0_14ValueWitnessesINS0_20OpaqueExistentialBoxILj1EEEEELm20ELm4ELNS0_12FixedPackingE0EE14allocateBufferEPNS_11ValueBufferEPKNS_14TargetMetadataINS_9InProcessEEE, 
                        __ZN5swift12metadataimpl20BufferValueWitnessesINS0_14ValueWitnessesINS0_20OpaqueExistentialBoxILj1EEEEELm20ELm4ELNS0_12FixedPackingE0EE16deallocateBufferEPNS_11ValueBufferEPKNS_14TargetMetadataINS_9InProcessEEE, 
                        __ZN5swift12metadataimpl20BufferValueWitnessesINS0_14ValueWitnessesINS0_20OpaqueExistentialBoxILj1EEEEELm20ELm4ELNS0_12FixedPackingE0EE32initializeBufferWithCopyOfBufferEPNS_11ValueBufferES9_PKNS_14TargetMetadataINS_9InProcessEEE, 
                        __ZN5swift12metadataimpl20BufferValueWitnessesINS0_14ValueWitnessesINS0_20OpaqueExistentialBoxILj1EEEEELm20ELm4ELNS0_12FixedPackingE0EE32initializeBufferWithTakeOfBufferEPNS_11ValueBufferES9_PKNS_14TargetMetadataINS_9InProcessEEE, 
                        __ZN5swift12metadataimpl20BufferValueWitnessesINS0_14ValueWitnessesINS0_21ObjCWeakRetainableBoxEEELm4ELm4ELNS0_12FixedPackingE1EE13projectBufferEPNS_11ValueBufferEPKNS_14TargetMetadataINS_9InProcessEEE, 
                        __ZN5swift12metadataimpl20BufferValueWitnessesINS0_14ValueWitnessesINS0_21ObjCWeakRetainableBoxEEELm4ELm4ELNS0_12FixedPackingE1EE14allocateBufferEPNS_11ValueBufferEPKNS_14TargetMetadataINS_9InProcessEEE, 
                        __ZN5swift12metadataimpl20BufferValueWitnessesINS0_14ValueWitnessesINS0_21ObjCWeakRetainableBoxEEELm4ELm4ELNS0_12FixedPackingE1EE16deallocateBufferEPNS_11ValueBufferEPKNS_14TargetMetadataINS_9InProcessEEE, 
                        __ZN5swift12metadataimpl20BufferValueWitnessesINS0_14ValueWitnessesINS0_21ObjCWeakRetainableBoxEEELm4ELm4ELNS0_12FixedPackingE1EE32initializeBufferWithCopyOfBufferEPNS_11ValueBufferES8_PKNS_14TargetMetadataINS_9InProcessEEE, 
                        __ZN5swift12metadataimpl20BufferValueWitnessesINS0_14ValueWitnessesINS0_21ObjCWeakRetainableBoxEEELm4ELm4ELNS0_12FixedPackingE1EE32initializeBufferWithTakeOfBufferEPNS_11ValueBufferES8_PKNS_14TargetMetadataINS_9InProcessEEE, 
                        __ZN5swift12metadataimpl20BufferValueWitnessesINS0_14ValueWitnessesINS0_22ExistentialMetatypeBoxILj1EEEEELm8ELm4ELNS0_12FixedPackingE1EE13projectBufferEPNS_11ValueBufferEPKNS_14TargetMetadataINS_9InProcessEEE, 
                        __ZN5swift12metadataimpl20BufferValueWitnessesINS0_14ValueWitnessesINS0_22ExistentialMetatypeBoxILj1EEEEELm8ELm4ELNS0_12FixedPackingE1EE14allocateBufferEPNS_11ValueBufferEPKNS_14TargetMetadataINS_9InProcessEEE, 
                        __ZN5swift12metadataimpl20BufferValueWitnessesINS0_14ValueWitnessesINS0_22ExistentialMetatypeBoxILj1EEEEELm8ELm4ELNS0_12FixedPackingE1EE16deallocateBufferEPNS_11ValueBufferEPKNS_14TargetMetadataINS_9InProcessEEE, 
                        __ZN5swift12metadataimpl20BufferValueWitnessesINS0_14ValueWitnessesINS0_22ExistentialMetatypeBoxILj1EEEEELm8ELm4ELNS0_12FixedPackingE1EE32initializeBufferWithCopyOfBufferEPNS_11ValueBufferES9_PKNS_14TargetMetadataINS_9InProcessEEE, 
                        __ZN5swift12metadataimpl20BufferValueWitnessesINS0_14ValueWitnessesINS0_22ExistentialMetatypeBoxILj1EEEEELm8ELm4ELNS0_12FixedPackingE1EE32initializeBufferWithTakeOfBufferEPNS_11ValueBufferES9_PKNS_14TargetMetadataINS_9InProcessEEE, 
                        __ZN5swift12metadataimpl20BufferValueWitnessesINS0_14ValueWitnessesINS0_22ExistentialMetatypeBoxILj2EEEEELm12ELm4ELNS0_12FixedPackingE1EE13projectBufferEPNS_11ValueBufferEPKNS_14TargetMetadataINS_9InProcessEEE, 
                        __ZN5swift12metadataimpl20BufferValueWitnessesINS0_14ValueWitnessesINS0_22ExistentialMetatypeBoxILj2EEEEELm12ELm4ELNS0_12FixedPackingE1EE14allocateBufferEPNS_11ValueBufferEPKNS_14TargetMetadataINS_9InProcessEEE, 
                        __ZN5swift12metadataimpl20BufferValueWitnessesINS0_14ValueWitnessesINS0_22ExistentialMetatypeBoxILj2EEEEELm12ELm4ELNS0_12FixedPackingE1EE16deallocateBufferEPNS_11ValueBufferEPKNS_14TargetMetadataINS_9InProcessEEE, 
                        __ZN5swift12metadataimpl20BufferValueWitnessesINS0_14ValueWitnessesINS0_22ExistentialMetatypeBoxILj2EEEEELm12ELm4ELNS0_12FixedPackingE1EE32initializeBufferWithCopyOfBufferEPNS_11ValueBufferES9_PKNS_14TargetMetadataINS_9InProcessEEE, 
                        __ZN5swift12metadataimpl20BufferValueWitnessesINS0_14ValueWitnessesINS0_22ExistentialMetatypeBoxILj2EEEEELm12ELm4ELNS0_12FixedPackingE1EE32initializeBufferWithTakeOfBufferEPNS_11ValueBufferES9_PKNS_14TargetMetadataINS_9InProcessEEE, 
                        __ZN5swift12metadataimpl20BufferValueWitnessesINS0_14ValueWitnessesINS0_22SwiftWeakRetainableBoxEEELm4ELm4ELNS0_12FixedPackingE1EE13projectBufferEPNS_11ValueBufferEPKNS_14TargetMetadataINS_9InProcessEEE, 
                        __ZN5swift12metadataimpl20BufferValueWitnessesINS0_14ValueWitnessesINS0_22SwiftWeakRetainableBoxEEELm4ELm4ELNS0_12FixedPackingE1EE14allocateBufferEPNS_11ValueBufferEPKNS_14TargetMetadataINS_9InProcessEEE, 
                        __ZN5swift12metadataimpl20BufferValueWitnessesINS0_14ValueWitnessesINS0_22SwiftWeakRetainableBoxEEELm4ELm4ELNS0_12FixedPackingE1EE16deallocateBufferEPNS_11ValueBufferEPKNS_14TargetMetadataINS_9InProcessEEE, 
                        __ZN5swift12metadataimpl20BufferValueWitnessesINS0_14ValueWitnessesINS0_22SwiftWeakRetainableBoxEEELm4ELm4ELNS0_12FixedPackingE1EE32initializeBufferWithCopyOfBufferEPNS_11ValueBufferES8_PKNS_14TargetMetadataINS_9InProcessEEE, 
                        __ZN5swift12metadataimpl20BufferValueWitnessesINS0_14ValueWitnessesINS0_22SwiftWeakRetainableBoxEEELm4ELm4ELNS0_12FixedPackingE1EE32initializeBufferWithTakeOfBufferEPNS_11ValueBufferES8_PKNS_14TargetMetadataINS_9InProcessEEE, 
                        __ZN5swift12metadataimpl20BufferValueWitnessesINS0_14ValueWitnessesINS0_24ObjCUnownedRetainableBoxEEELm4ELm4ELNS0_12FixedPackingE1EE13projectBufferEPNS_11ValueBufferEPKNS_14TargetMetadataINS_9InProcessEEE, 
                        __ZN5swift12metadataimpl20BufferValueWitnessesINS0_14ValueWitnessesINS0_24ObjCUnownedRetainableBoxEEELm4ELm4ELNS0_12FixedPackingE1EE14allocateBufferEPNS_11ValueBufferEPKNS_14TargetMetadataINS_9InProcessEEE, 
                        __ZN5swift12metadataimpl20BufferValueWitnessesINS0_14ValueWitnessesINS0_24ObjCUnownedRetainableBoxEEELm4ELm4ELNS0_12FixedPackingE1EE16deallocateBufferEPNS_11ValueBufferEPKNS_14TargetMetadataINS_9InProcessEEE, 
                        __ZN5swift12metadataimpl20BufferValueWitnessesINS0_14ValueWitnessesINS0_24ObjCUnownedRetainableBoxEEELm4ELm4ELNS0_12FixedPackingE1EE32initializeBufferWithCopyOfBufferEPNS_11ValueBufferES8_PKNS_14TargetMetadataINS_9InProcessEEE, 
                        __ZN5swift12metadataimpl20BufferValueWitnessesINS0_14ValueWitnessesINS0_24ObjCUnownedRetainableBoxEEELm4ELm4ELNS0_12FixedPackingE1EE32initializeBufferWithTakeOfBufferEPNS_11ValueBufferES8_PKNS_14TargetMetadataINS_9InProcessEEE, 
                        __ZN5swift12metadataimpl20BufferValueWitnessesINS0_14ValueWitnessesINS0_25SwiftUnownedRetainableBoxEEELm4ELm4ELNS0_12FixedPackingE1EE13projectBufferEPNS_11ValueBufferEPKNS_14TargetMetadataINS_9InProcessEEE, 
                        __ZN5swift12metadataimpl20BufferValueWitnessesINS0_14ValueWitnessesINS0_25SwiftUnownedRetainableBoxEEELm4ELm4ELNS0_12FixedPackingE1EE14allocateBufferEPNS_11ValueBufferEPKNS_14TargetMetadataINS_9InProcessEEE, 
                        __ZN5swift12metadataimpl20BufferValueWitnessesINS0_14ValueWitnessesINS0_25SwiftUnownedRetainableBoxEEELm4ELm4ELNS0_12FixedPackingE1EE16deallocateBufferEPNS_11ValueBufferEPKNS_14TargetMetadataINS_9InProcessEEE, 
                        __ZN5swift12metadataimpl20BufferValueWitnessesINS0_14ValueWitnessesINS0_25SwiftUnownedRetainableBoxEEELm4ELm4ELNS0_12FixedPackingE1EE32initializeBufferWithCopyOfBufferEPNS_11ValueBufferES8_PKNS_14TargetMetadataINS_9InProcessEEE, 
                        __ZN5swift12metadataimpl20BufferValueWitnessesINS0_14ValueWitnessesINS0_25SwiftUnownedRetainableBoxEEELm4ELm4ELNS0_12FixedPackingE1EE32initializeBufferWithTakeOfBufferEPNS_11ValueBufferES8_PKNS_14TargetMetadataINS_9InProcessEEE, 
                        __ZN5swift12metadataimpl20BufferValueWitnessesINS0_14ValueWitnessesINS0_9NativeBoxINS_11ValueBufferELm4ELm12ELm12EEEEELm12ELm4ELNS0_12FixedPackingE1EE13projectBufferEPS4_PKNS_14TargetMetadataINS_9InProcessEEE, 
                        __ZN5swift12metadataimpl20BufferValueWitnessesINS0_14ValueWitnessesINS0_9NativeBoxINS_11ValueBufferELm4ELm12ELm12EEEEELm12ELm4ELNS0_12FixedPackingE1EE14allocateBufferEPS4_PKNS_14TargetMetadataINS_9InProcessEEE, 
                        __ZN5swift12metadataimpl20BufferValueWitnessesINS0_14ValueWitnessesINS0_9NativeBoxINS_11ValueBufferELm4ELm12ELm12EEEEELm12ELm4ELNS0_12FixedPackingE1EE16deallocateBufferEPS4_PKNS_14TargetMetadataINS_9InProcessEEE, 
                        __ZN5swift12metadataimpl20BufferValueWitnessesINS0_14ValueWitnessesINS0_9NativeBoxINS_11ValueBufferELm4ELm12ELm12EEEEELm12ELm4ELNS0_12FixedPackingE1EE32initializeBufferWithCopyOfBufferEPS4_S9_PKNS_14TargetMetadataINS_9InProcessEEE, 
                        __ZN5swift12metadataimpl20BufferValueWitnessesINS0_14ValueWitnessesINS0_9NativeBoxINS_11ValueBufferELm4ELm12ELm12EEEEELm12ELm4ELNS0_12FixedPackingE1EE32initializeBufferWithTakeOfBufferEPS4_S9_PKNS_14TargetMetadataINS_9InProcessEEE, 
                        __ZN5swift12metadataimpl20BufferValueWitnessesINS0_14ValueWitnessesINS0_9NativeBoxIyLm8ELm8ELm8EEEEELm8ELm8ELNS0_12FixedPackingE0EE13projectBufferEPNS_11ValueBufferEPKNS_14TargetMetadataINS_9InProcessEEE, 
                        __ZN5swift12metadataimpl20BufferValueWitnessesINS0_14ValueWitnessesINS0_9NativeBoxIyLm8ELm8ELm8EEEEELm8ELm8ELNS0_12FixedPackingE0EE14allocateBufferEPNS_11ValueBufferEPKNS_14TargetMetadataINS_9InProcessEEE, 
                        __ZN5swift12metadataimpl20BufferValueWitnessesINS0_14ValueWitnessesINS0_9NativeBoxIyLm8ELm8ELm8EEEEELm8ELm8ELNS0_12FixedPackingE0EE16deallocateBufferEPNS_11ValueBufferEPKNS_14TargetMetadataINS_9InProcessEEE, 
                        __ZN5swift12metadataimpl20BufferValueWitnessesINS0_14ValueWitnessesINS0_9NativeBoxIyLm8ELm8ELm8EEEEELm8ELm8ELNS0_12FixedPackingE0EE32initializeBufferWithCopyOfBufferEPNS_11ValueBufferES9_PKNS_14TargetMetadataINS_9InProcessEEE, 
                        __ZN5swift12metadataimpl20BufferValueWitnessesINS0_14ValueWitnessesINS0_9NativeBoxIyLm8ELm8ELm8EEEEELm8ELm8ELNS0_12FixedPackingE0EE32initializeBufferWithTakeOfBufferEPNS_11ValueBufferES9_PKNS_14TargetMetadataINS_9InProcessEEE, 
                        __ZN5swift12metadataimpl24BufferValueWitnessesBaseINS0_14ValueWitnessesINS0_9NativeBoxINS_11ValueBufferELm4ELm12ELm12EEEEEE13destroyBufferEPS4_PKNS_14TargetMetadataINS_9InProcessEEE, 
                        __ZN5swift12metadataimpl24BufferValueWitnessesBaseINS0_14ValueWitnessesINS0_9NativeBoxINS_11ValueBufferELm4ELm12ELm12EEEEEE24initializeBufferWithCopyEPS4_PNS_11OpaqueValueEPKNS_14TargetMetadataINS_9InProcessEEE, 
                        __ZN5swift12metadataimpl24BufferValueWitnessesBaseINS0_14ValueWitnessesINS0_9NativeBoxINS_11ValueBufferELm4ELm12ELm12EEEEEE24initializeBufferWithTakeEPS4_PNS_11OpaqueValueEPKNS_14TargetMetadataINS_9InProcessEEE, 
                        __ZN5swift13WeakReference14nativeCopyInitEPS0_, 
                        __ZN5swift13WeakReference15unknownCopyInitEPS0_, 
                        __ZN5swift13WeakReference17unknownTakeStrongEv, 
                        __ZN5swift13WeakReference21destroyWithNativenessEb, 
                        __ZN5swift9RefCountsINS_13RefCountBitsTILNS_19RefCountInlinednessE1EEEE25incrementUnownedNonAtomicEj, 
                        __ZN5swift9RefCountsINS_13RefCountBitsTILNS_19RefCountInlinednessE1EEEE26decrementUnownedShouldFreeEj, 
                        __ZN5swift9RefCountsINS_13RefCountBitsTILNS_19RefCountInlinednessE1EEEE35decrementUnownedShouldFreeNonAtomicEj, 
                        __ZN5swift9RefCountsINS_21SideTableRefCountBitsEE12tryIncrementEv, 
                        __ZN5swift9RefCountsINS_21SideTableRefCountBitsEE16incrementUnownedEj, 
                        __ZN5swift9RefCountsINS_21SideTableRefCountBitsEE18tryIncrementAndPinEv, 
                        ___swift_copy_outline_existential_box_pointer4, 
                        ___swift_memcpy10_4, ___swift_memcpy12_4, ___swift_memcpy14_4, 
                        ___swift_memcpy16_4, ___swift_memcpy17_4, ___swift_memcpy20_4, 
                        ___swift_memcpy21_4, ___swift_memcpy29_4, ___swift_memcpy32_4, 
                        ___swift_memcpy48_4, ___swift_memcpy56_8, ___swift_memcpy58_8, 
                        ___swift_memcpy60_8, ___swift_memcpy64_4, ___swift_memcpy6_4, 
                        ___swift_memcpy8_4, ___swift_memcpy9_4, ___swift_memcpy_array12_4, 
                        ___swift_memcpy_array16_4, ___swift_memcpy_array32_4, 
                        ___swift_memcpy_array64_4, ___swift_memmove_array12_4, 
                        ___swift_memmove_array16_4, ___swift_memmove_array20_4, 
                        ___swift_memmove_array24_4, ___swift_memmove_array32_4, 
                        ___swift_memmove_array48_4, ___swift_memmove_array56_8, 
                        ___swift_memmove_array64_4 ]
  - archs:           [ arm64 ]
    symbols:         [ __T0s15ContiguousArrayV16_copyToNewBufferySi8oldCount_tFSSSg5label_yp5valuet_Tgq5Tm, 
                       __GLOBAL__sub_I_SwiftObject.mm, __T0SRyyXlGSis5Error_pIxydzo_AASisAB_pIxyrzo_TRTA.291, 
                       __T0SRyyXlGs5Error_pIxyzo_AAytsAB_pIxyrzo_TRTA.277, 
                       __T0SRyyXlGyXls5Error_pIxyozo_AAyXlsAB_pIxyrzo_TRTA.263, 
                       __T0SS13CharacterViewVs8SequencessACP13_copyContents8IteratorQz_SitSry7ElementQzG12initializing_tFTWTm, 
                       __T0SS8UTF8ViewV16_forwardDistanceSiSS5IndexV4from_AE2totFys06_ValidA6BufferVys6UInt32VGcfU_TA.759, 
                       __T0SS8UTF8ViewV16_forwardDistanceSiSS5IndexV4from_AE2totFys06_ValidA6BufferVys6UInt32VGcfU_TA.763, 
                       __T0SS9UTF16ViewVs23CustomStringConvertiblessACP11descriptionSSfgTWTm, 
                       __T0Sbs5Error_pIxdzo_SbsAA_pIxrzo_TRTA.589, __T0Sbs5Error_pIxdzo_SbsAA_pIxrzo_TRTA.611, 
                       __T0Sbs5Error_pIxdzo_SbsAA_pIxrzo_TRTA.771, __T0Sis5Error_pIxdzo_SisAA_pIxrzo_TRTA.222, 
                       __T0Sis5Error_pIxdzo_SisAA_pIxrzo_TRTA.230, __T0s10AnyKeyPathC10withBufferxxs0bcE0VKcKlF, 
                       __T0s10CollectionPsE5splitSay11SubSequenceQzGSi9maxSplits_Sb25omittingEmptySubsequencesSb7ElementQzKc14whereSeparatortKF17appendSubsequenceL_Sb5IndexQz3end_tsAARzlFs5Int32V5WordsV_Tgq5Tfq4ngngg_nTm, 
                       __T0s11_StringCoreV12nativeBuffers01_aD0VSgfgAEyXlcfU_, 
                       __T0s11_StringCoreV15_withCSubstringxs5RangeVySiG2in_q_m8encodingxSPy8CodeUnitQy_GKctKs16_UnicodeEncodingR_r0_lFxAK_SitKcfU_TA.249, 
                       __T0s11_StringCoreV6appendyx10contentsOf_ts8SequenceRzs6UInt16V7ElementRtzlFSbycfU_TA.585, 
                       __T0s11_StringCoreV6appendyx10contentsOf_ts8SequenceRzs6UInt16V7ElementRtzlFSbycfU_TA.607, 
                       __T0s11_StringCoreV6appendyx10contentsOf_ts8SequenceRzs6UInt16V7ElementRtzlFSbycfU_TA.767, 
                       __T0s15UnsignedIntegerPsE24renderNonZeroDescriptionSSyFs9CharacterVs7UnicodeO6ScalarVcfU_, 
                       __T0s17_assertionFailures5NeverOs12StaticStringV_SSAE4fileSu4lines6UInt32V5flagstFySRys5UInt8VGcfU_yAMcfU_yAMcfU_TA.745, 
                       __T0s19_cocoaStringReadAllyyXl_Spys6UInt16VGtF, 
                       __T0s20CountableClosedRangeVyxGs14_IndexableBasess10ComparableRzs11_StrideableRzs13SignedInteger6StridesAFPRpzl5IndexWtTm, 
                       __T0s20_ArrayBufferProtocolPsE025_forceCreateUniqueMutableB0s011_ContiguousaB0Vy7ElementQzGSi011countForNewB0_Si03minL8CapacitytFAEySS5IndexVG_Tgq5Tm, 
                       __T0s20_ArrayBufferProtocolPsE025_forceCreateUniqueMutableB0s011_ContiguousaB0Vy7ElementQzGSi011countForNewB0_Si03minL8CapacitytFAEySuG_Tgq5Tm, 
                       __T0s20_ArrayBufferProtocolPsE025_forceCreateUniqueMutableB0s011_ContiguousaB0Vy7ElementQzGSi011countForNewB0_Si03minL8CapacitytFs01_aB0VySS9UTF16ViewV7IndicesVG_Tgq5Tm, 
                       __T0s21_arrayConditionalCastSayq_GSgSayxGr0_lFq_xKcfU_TA.856, 
                       __T0s22KeyedDecodingContainerVyxGs0abC8Protocolss9CodingKeyRzlsADP15decodeIfPresents5Int32VSgAIm_0F0Qz03forF0tKFTWTm, 
                       __T0s22KeyedDecodingContainerVyxGs0abC8Protocolss9CodingKeyRzlsADP6decodes5Int32VAIm_0F0Qz03forF0tKFTWTm, 
                       __T0s22LazyCollectionProtocolPsE7flatMaps0aB0Vys07FlattenB0Vys0aeB0Vy8ElementsQzqd__GGGqd__7ElementQzcs0B0Rd__lFAOs8SequencePQzSS9UTF16ViewVIxir_xAEyAGyAIyAjBQzAVGGGsAARzAVRsd__r__lItMxnr_Tpq5Tm, 
                       __T0s22_ContiguousArrayBufferVAByxGSi19_uninitializedCount_Si15minimumCapacitytcfCs9CharacterV_Tgq5Tfq4nnd_nTm, 
                       __T0s40_SwiftNativeNSArrayWithContiguousStorageC10getObjectsySpyyXlG_SC01_A7NSRangeV5rangetFySRyyXlGcfU_TA.273, 
                       __T0s40_SwiftNativeNSArrayWithContiguousStorageC18countByEnumeratingSiSpySC01_A22NSFastEnumerationStateVG4with_SpyyXlGSg7objectsSi0G0tFSiSRyyXlGcfU_TA.287, 
                       __T0s40_SwiftNativeNSArrayWithContiguousStorageC8objectAtyXlSiFyXlSRyyXlGcfU_TA.259, 
                       __T0s5Int32V12customMirrors0C0VfgTm, __T0s5Int32Vs17CustomReflectablessACP12customMirrors0E0VfgTWTm, 
                       __T0s6MirrorVABs01_A0_p6legacy_ypXp11subjectTypeABSgycSg014makeSuperclassA0tcfcAFycfU_TA.826, 
                       __T0s6MirrorVABx_q_17unlabeledChildrenAB12DisplayStyleOSg07displayE0AB22AncestorRepresentationO08ancestorH0tcs10CollectionR_sAK7IndicesRp_sAK11SubSequenceRp_r0_lufCs5Int32V_s05EmptyJ0VyytGTgq5Tfq4ndngd_nTm, 
                       __T0s6MirrorVAByXl_yXlXp12subjectClassAB8ancestors01_A0_pSg6legacytcfcABSgycfU_TA.811, 
                       __T0s6UInt32V5WordsVs8SequencessAEP5splitSay03SubC0QzGSi9maxSplits_Sb25omittingEmptySubsequencesSb7ElementQzKc14whereSeparatortKFTWTm, 
                       __T0s7KeyPathC15projectReadOnlyq_x4from_tFq_s0aB6BufferVcfU_TA, 
                       __T0s7KeyPathC15projectReadOnlyq_x4from_tFq_s0aB6BufferVcfU_TA.790, 
                       __T0s7KeyPathC15projectReadOnlyq_x4from_tFq_s0aB6BufferVcfU_TA.795, 
                       __T0s8SequencePssAARzs14StringProtocol7ElementRpzlE7_joinedS2S9separator_tFSiycfU_TA.226, 
                       __ZN5swift12metadataimpl20BufferValueWitnessesINS0_14ValueWitnessesIN12_GLOBAL__N_116ThickFunctionBoxEEELm16ELm8ELNS0_12FixedPackingE1EE13projectBufferEPNS_11ValueBufferEPKNS_14TargetMetadataINS_9InProcessEEE, 
                       __ZN5swift12metadataimpl20BufferValueWitnessesINS0_14ValueWitnessesIN12_GLOBAL__N_116ThickFunctionBoxEEELm16ELm8ELNS0_12FixedPackingE1EE14allocateBufferEPNS_11ValueBufferEPKNS_14TargetMetadataINS_9InProcessEEE, 
                       __ZN5swift12metadataimpl20BufferValueWitnessesINS0_14ValueWitnessesIN12_GLOBAL__N_116ThickFunctionBoxEEELm16ELm8ELNS0_12FixedPackingE1EE16deallocateBufferEPNS_11ValueBufferEPKNS_14TargetMetadataINS_9InProcessEEE, 
                       __ZN5swift12metadataimpl20BufferValueWitnessesINS0_14ValueWitnessesIN12_GLOBAL__N_116ThickFunctionBoxEEELm16ELm8ELNS0_12FixedPackingE1EE32initializeBufferWithCopyOfBufferEPNS_11ValueBufferES9_PKNS_14TargetMetadataINS_9InProcessEEE, 
                       __ZN5swift12metadataimpl20BufferValueWitnessesINS0_14ValueWitnessesIN12_GLOBAL__N_116ThickFunctionBoxEEELm16ELm8ELNS0_12FixedPackingE1EE32initializeBufferWithTakeOfBufferEPNS_11ValueBufferES9_PKNS_14TargetMetadataINS_9InProcessEEE, 
                       _swift_isaMask ]
    weak-def-symbols: [ __T0s23BidirectionalCollectionPsE4last7ElementQzSgfgSS9UTF16ViewV7IndicesV_Tgq5, 
                        __T0SS13CharacterViewV9subscriptABs5RangeVySS5IndexVGcfgTfq4xn_n, 
                        __T0SS5IndexV12samePositionABSgSS2in_tFTfq4gXx_n, 
                        __T0SS9UTF16ViewV5indexSS5IndexVSgAE_Si8offsetByAE07limitedF0tFTfq4xnxd_n, 
                        __T0SS9UTF16ViewV7IndicesV5indexSS5IndexVAG_Si8offsetBytFTfq4xnd_n, 
                        __T0SS9UTF16ViewV7IndicesV5indexSS5IndexVSgAG_Si8offsetByAG07limitedG0tFTfq4xnxd_n, 
                        __T0SS9UTF16ViewV7indicesAB7IndicesVfgTfq4n_g, 
                        __T0s10CollectionPsE6prefix11SubSequenceQz5IndexQz7through_tFSS9UTF16ViewV_Tgq5Tfq4xn_g, 
                        __T0s10StrideablePsE5_stepSiSg5index_x5valuetAdE_xAFt5after_x4from6StrideQz2bytFZs5Int32V_Tgq5, 
                        __T0s10_IndexablePsE9formIndexy0C0Qzz_0C8DistanceQz8offsetBytFSS9UTF16ViewV7IndicesV_Tgq5, 
                        __T0s10_IndexablePsE9formIndexy0C0Qzz_0C8DistanceQz8offsetBytFSS9UTF16ViewV_Tgq5, 
                        __T0s11_StringCoreV12nativeBuffers01_aD0VSgfgAEyXlcfU_Tfq4g_nTfq4n_g, 
                        __T0s19BinaryFloatingPointPsExx6signOf_x09magnitudeE0tcfCSd_Tgq5Tfq4nnd_n, 
                        __T0s20ManagedBufferPointerVAByxq_GyXlXp010_uncheckedB5Class_Si15minimumCapacitytcfCs05_HeapB6HeaderVys07_StringB5IVarsVG_s6UInt16VTgq5Tfq4nnd_n, 
                        __T0s34RangeReplaceableBidirectionalSliceV15replaceSubrangeys0A0Vy5Indexs14_IndexableBasePQzG_qd__4withts10CollectionRd__7ElementQyd__AmHRtzlFAEySSAFVGqd__ABySSGSSRszsALRd__s9CharacterVAMs8SequencePRtd__r__lItMyil_Tpq5Tfq4xnn_n, 
                        __T0s34RangeReplaceableBidirectionalSliceV15replaceSubrangeys0A0Vy5Indexs14_IndexableBasePQzG_qd__4withts10CollectionRd__7ElementQyd__AmHRtzlFSS_s05EmptyK0Vys9CharacterVGTgq5Tfq4xdn_n, 
                        __T0s34RangeReplaceableBidirectionalSliceV15replaceSubrangeys0A0Vy5Indexs14_IndexableBasePQzG_qd__4withts10CollectionRd__7ElementQyd__AmHRtzlFSS_s0K5OfOneVys9CharacterVGTgq5Tfq4xnn_n, 
                        __T0s5UInt8VABs7UnicodeO6ScalarV5ascii_tcfCTfq4nd_n, 
                        __T0s7UnicodeO6ScalarVADSgSicfCTfq4nd_n, __T0s7UnicodeO6ScalarVADSgs6UInt32VcfCTfq4nd_n, 
                        __T0s8SequencePsE8containsS2b7ElementQzKc5where_tKFSRys6UInt16VG_Tgq505_T0s6E37VSbs5Error_pIxydzo_ABSbsAC_pIxidzo_TRAHSbs0H0_pIxydzo_Tfq1cn_nTfq4ng_n, 
                        __T0s9CharacterVABs7UnicodeO6ScalarVcfCTfq4nd_n, 
                        __ZN5swift12metadataimpl14ValueWitnessesINS0_9NativeBoxINS_11ValueBufferELm8ELm24ELm24EEEE12destroyArrayEPNS_11OpaqueValueEmPKNS_14TargetMetadataINS_9InProcessEEE, 
                        __ZN5swift12metadataimpl14ValueWitnessesINS0_9NativeBoxINS_11ValueBufferELm8ELm24ELm24EEEE14assignWithCopyEPNS_11OpaqueValueES7_PKNS_14TargetMetadataINS_9InProcessEEE, 
                        __ZN5swift12metadataimpl14ValueWitnessesINS0_9NativeBoxINS_11ValueBufferELm8ELm24ELm24EEEE14assignWithTakeEPNS_11OpaqueValueES7_PKNS_14TargetMetadataINS_9InProcessEEE, 
                        __ZN5swift12metadataimpl14ValueWitnessesINS0_9NativeBoxINS_11ValueBufferELm8ELm24ELm24EEEE18initializeWithCopyEPNS_11OpaqueValueES7_PKNS_14TargetMetadataINS_9InProcessEEE, 
                        __ZN5swift12metadataimpl14ValueWitnessesINS0_9NativeBoxINS_11ValueBufferELm8ELm24ELm24EEEE18initializeWithTakeEPNS_11OpaqueValueES7_PKNS_14TargetMetadataINS_9InProcessEEE, 
                        __ZN5swift12metadataimpl14ValueWitnessesINS0_9NativeBoxINS_11ValueBufferELm8ELm24ELm24EEEE23initializeArrayWithCopyEPNS_11OpaqueValueES7_mPKNS_14TargetMetadataINS_9InProcessEEE, 
                        __ZN5swift12metadataimpl14ValueWitnessesINS0_9NativeBoxINS_11ValueBufferELm8ELm24ELm24EEEE34initializeArrayWithTakeBackToFrontEPNS_11OpaqueValueES7_mPKNS_14TargetMetadataINS_9InProcessEEE, 
                        __ZN5swift12metadataimpl14ValueWitnessesINS0_9NativeBoxINS_11ValueBufferELm8ELm24ELm24EEEE34initializeArrayWithTakeFrontToBackEPNS_11OpaqueValueES7_mPKNS_14TargetMetadataINS_9InProcessEEE, 
                        __ZN5swift12metadataimpl14ValueWitnessesINS0_9NativeBoxINS_11ValueBufferELm8ELm24ELm24EEEE7destroyEPNS_11OpaqueValueEPKNS_14TargetMetadataINS_9InProcessEEE, 
                        __ZN5swift12metadataimpl20BufferValueWitnessesINS0_14ValueWitnessesINS0_13RawPointerBoxEEELm8ELm8ELNS0_12FixedPackingE1EE13projectBufferEPNS_11ValueBufferEPKNS_14TargetMetadataINS_9InProcessEEE, 
                        __ZN5swift12metadataimpl20BufferValueWitnessesINS0_14ValueWitnessesINS0_13RawPointerBoxEEELm8ELm8ELNS0_12FixedPackingE1EE14allocateBufferEPNS_11ValueBufferEPKNS_14TargetMetadataINS_9InProcessEEE, 
                        __ZN5swift12metadataimpl20BufferValueWitnessesINS0_14ValueWitnessesINS0_13RawPointerBoxEEELm8ELm8ELNS0_12FixedPackingE1EE16deallocateBufferEPNS_11ValueBufferEPKNS_14TargetMetadataINS_9InProcessEEE, 
                        __ZN5swift12metadataimpl20BufferValueWitnessesINS0_14ValueWitnessesINS0_13RawPointerBoxEEELm8ELm8ELNS0_12FixedPackingE1EE32initializeBufferWithCopyOfBufferEPNS_11ValueBufferES8_PKNS_14TargetMetadataINS_9InProcessEEE, 
                        __ZN5swift12metadataimpl20BufferValueWitnessesINS0_14ValueWitnessesINS0_13RawPointerBoxEEELm8ELm8ELNS0_12FixedPackingE1EE32initializeBufferWithTakeOfBufferEPNS_11ValueBufferES8_PKNS_14TargetMetadataINS_9InProcessEEE, 
                        __ZN5swift12metadataimpl20BufferValueWitnessesINS0_14ValueWitnessesINS0_15BridgeObjectBoxEEELm8ELm8ELNS0_12FixedPackingE1EE13projectBufferEPNS_11ValueBufferEPKNS_14TargetMetadataINS_9InProcessEEE, 
                        __ZN5swift12metadataimpl20BufferValueWitnessesINS0_14ValueWitnessesINS0_15BridgeObjectBoxEEELm8ELm8ELNS0_12FixedPackingE1EE14allocateBufferEPNS_11ValueBufferEPKNS_14TargetMetadataINS_9InProcessEEE, 
                        __ZN5swift12metadataimpl20BufferValueWitnessesINS0_14ValueWitnessesINS0_15BridgeObjectBoxEEELm8ELm8ELNS0_12FixedPackingE1EE16deallocateBufferEPNS_11ValueBufferEPKNS_14TargetMetadataINS_9InProcessEEE, 
                        __ZN5swift12metadataimpl20BufferValueWitnessesINS0_14ValueWitnessesINS0_15BridgeObjectBoxEEELm8ELm8ELNS0_12FixedPackingE1EE32initializeBufferWithCopyOfBufferEPNS_11ValueBufferES8_PKNS_14TargetMetadataINS_9InProcessEEE, 
                        __ZN5swift12metadataimpl20BufferValueWitnessesINS0_14ValueWitnessesINS0_15BridgeObjectBoxEEELm8ELm8ELNS0_12FixedPackingE1EE32initializeBufferWithTakeOfBufferEPNS_11ValueBufferES8_PKNS_14TargetMetadataINS_9InProcessEEE, 
                        __ZN5swift12metadataimpl20BufferValueWitnessesINS0_14ValueWitnessesINS0_17ObjCRetainableBoxEEELm8ELm8ELNS0_12FixedPackingE1EE13projectBufferEPNS_11ValueBufferEPKNS_14TargetMetadataINS_9InProcessEEE, 
                        __ZN5swift12metadataimpl20BufferValueWitnessesINS0_14ValueWitnessesINS0_17ObjCRetainableBoxEEELm8ELm8ELNS0_12FixedPackingE1EE14allocateBufferEPNS_11ValueBufferEPKNS_14TargetMetadataINS_9InProcessEEE, 
                        __ZN5swift12metadataimpl20BufferValueWitnessesINS0_14ValueWitnessesINS0_17ObjCRetainableBoxEEELm8ELm8ELNS0_12FixedPackingE1EE16deallocateBufferEPNS_11ValueBufferEPKNS_14TargetMetadataINS_9InProcessEEE, 
                        __ZN5swift12metadataimpl20BufferValueWitnessesINS0_14ValueWitnessesINS0_17ObjCRetainableBoxEEELm8ELm8ELNS0_12FixedPackingE1EE32initializeBufferWithCopyOfBufferEPNS_11ValueBufferES8_PKNS_14TargetMetadataINS_9InProcessEEE, 
                        __ZN5swift12metadataimpl20BufferValueWitnessesINS0_14ValueWitnessesINS0_17ObjCRetainableBoxEEELm8ELm8ELNS0_12FixedPackingE1EE32initializeBufferWithTakeOfBufferEPNS_11ValueBufferES8_PKNS_14TargetMetadataINS_9InProcessEEE, 
                        __ZN5swift12metadataimpl20BufferValueWitnessesINS0_14ValueWitnessesINS0_17PointerPointerBoxEEELm8ELm8ELNS0_12FixedPackingE1EE13projectBufferEPNS_11ValueBufferEPKNS_14TargetMetadataINS_9InProcessEEE, 
                        __ZN5swift12metadataimpl20BufferValueWitnessesINS0_14ValueWitnessesINS0_17PointerPointerBoxEEELm8ELm8ELNS0_12FixedPackingE1EE14allocateBufferEPNS_11ValueBufferEPKNS_14TargetMetadataINS_9InProcessEEE, 
                        __ZN5swift12metadataimpl20BufferValueWitnessesINS0_14ValueWitnessesINS0_17PointerPointerBoxEEELm8ELm8ELNS0_12FixedPackingE1EE16deallocateBufferEPNS_11ValueBufferEPKNS_14TargetMetadataINS_9InProcessEEE, 
                        __ZN5swift12metadataimpl20BufferValueWitnessesINS0_14ValueWitnessesINS0_17PointerPointerBoxEEELm8ELm8ELNS0_12FixedPackingE1EE32initializeBufferWithCopyOfBufferEPNS_11ValueBufferES8_PKNS_14TargetMetadataINS_9InProcessEEE, 
                        __ZN5swift12metadataimpl20BufferValueWitnessesINS0_14ValueWitnessesINS0_17PointerPointerBoxEEELm8ELm8ELNS0_12FixedPackingE1EE32initializeBufferWithTakeOfBufferEPNS_11ValueBufferES8_PKNS_14TargetMetadataINS_9InProcessEEE, 
                        __ZN5swift12metadataimpl20BufferValueWitnessesINS0_14ValueWitnessesINS0_18FunctionPointerBoxEEELm8ELm8ELNS0_12FixedPackingE1EE13projectBufferEPNS_11ValueBufferEPKNS_14TargetMetadataINS_9InProcessEEE, 
                        __ZN5swift12metadataimpl20BufferValueWitnessesINS0_14ValueWitnessesINS0_18FunctionPointerBoxEEELm8ELm8ELNS0_12FixedPackingE1EE14allocateBufferEPNS_11ValueBufferEPKNS_14TargetMetadataINS_9InProcessEEE, 
                        __ZN5swift12metadataimpl20BufferValueWitnessesINS0_14ValueWitnessesINS0_18FunctionPointerBoxEEELm8ELm8ELNS0_12FixedPackingE1EE16deallocateBufferEPNS_11ValueBufferEPKNS_14TargetMetadataINS_9InProcessEEE, 
                        __ZN5swift12metadataimpl20BufferValueWitnessesINS0_14ValueWitnessesINS0_18FunctionPointerBoxEEELm8ELm8ELNS0_12FixedPackingE1EE32initializeBufferWithCopyOfBufferEPNS_11ValueBufferES8_PKNS_14TargetMetadataINS_9InProcessEEE, 
                        __ZN5swift12metadataimpl20BufferValueWitnessesINS0_14ValueWitnessesINS0_18FunctionPointerBoxEEELm8ELm8ELNS0_12FixedPackingE1EE32initializeBufferWithTakeOfBufferEPNS_11ValueBufferES8_PKNS_14TargetMetadataINS_9InProcessEEE, 
                        __ZN5swift12metadataimpl20BufferValueWitnessesINS0_14ValueWitnessesINS0_18SwiftRetainableBoxEEELm8ELm8ELNS0_12FixedPackingE1EE13projectBufferEPNS_11ValueBufferEPKNS_14TargetMetadataINS_9InProcessEEE, 
                        __ZN5swift12metadataimpl20BufferValueWitnessesINS0_14ValueWitnessesINS0_18SwiftRetainableBoxEEELm8ELm8ELNS0_12FixedPackingE1EE14allocateBufferEPNS_11ValueBufferEPKNS_14TargetMetadataINS_9InProcessEEE, 
                        __ZN5swift12metadataimpl20BufferValueWitnessesINS0_14ValueWitnessesINS0_18SwiftRetainableBoxEEELm8ELm8ELNS0_12FixedPackingE1EE16deallocateBufferEPNS_11ValueBufferEPKNS_14TargetMetadataINS_9InProcessEEE, 
                        __ZN5swift12metadataimpl20BufferValueWitnessesINS0_14ValueWitnessesINS0_18SwiftRetainableBoxEEELm8ELm8ELNS0_12FixedPackingE1EE32initializeBufferWithCopyOfBufferEPNS_11ValueBufferES8_PKNS_14TargetMetadataINS_9InProcessEEE, 
                        __ZN5swift12metadataimpl20BufferValueWitnessesINS0_14ValueWitnessesINS0_18SwiftRetainableBoxEEELm8ELm8ELNS0_12FixedPackingE1EE32initializeBufferWithTakeOfBufferEPNS_11ValueBufferES8_PKNS_14TargetMetadataINS_9InProcessEEE, 
                        __ZN5swift12metadataimpl20BufferValueWitnessesINS0_14ValueWitnessesINS0_19ClassExistentialBoxILj1EEEEELm16ELm8ELNS0_12FixedPackingE1EE13projectBufferEPNS_11ValueBufferEPKNS_14TargetMetadataINS_9InProcessEEE, 
                        __ZN5swift12metadataimpl20BufferValueWitnessesINS0_14ValueWitnessesINS0_19ClassExistentialBoxILj1EEEEELm16ELm8ELNS0_12FixedPackingE1EE14allocateBufferEPNS_11ValueBufferEPKNS_14TargetMetadataINS_9InProcessEEE, 
                        __ZN5swift12metadataimpl20BufferValueWitnessesINS0_14ValueWitnessesINS0_19ClassExistentialBoxILj1EEEEELm16ELm8ELNS0_12FixedPackingE1EE16deallocateBufferEPNS_11ValueBufferEPKNS_14TargetMetadataINS_9InProcessEEE, 
                        __ZN5swift12metadataimpl20BufferValueWitnessesINS0_14ValueWitnessesINS0_19ClassExistentialBoxILj1EEEEELm16ELm8ELNS0_12FixedPackingE1EE32initializeBufferWithCopyOfBufferEPNS_11ValueBufferES9_PKNS_14TargetMetadataINS_9InProcessEEE, 
                        __ZN5swift12metadataimpl20BufferValueWitnessesINS0_14ValueWitnessesINS0_19ClassExistentialBoxILj1EEEEELm16ELm8ELNS0_12FixedPackingE1EE32initializeBufferWithTakeOfBufferEPNS_11ValueBufferES9_PKNS_14TargetMetadataINS_9InProcessEEE, 
                        __ZN5swift12metadataimpl20BufferValueWitnessesINS0_14ValueWitnessesINS0_19ClassExistentialBoxILj2EEEEELm24ELm8ELNS0_12FixedPackingE1EE13projectBufferEPNS_11ValueBufferEPKNS_14TargetMetadataINS_9InProcessEEE, 
                        __ZN5swift12metadataimpl20BufferValueWitnessesINS0_14ValueWitnessesINS0_19ClassExistentialBoxILj2EEEEELm24ELm8ELNS0_12FixedPackingE1EE14allocateBufferEPNS_11ValueBufferEPKNS_14TargetMetadataINS_9InProcessEEE, 
                        __ZN5swift12metadataimpl20BufferValueWitnessesINS0_14ValueWitnessesINS0_19ClassExistentialBoxILj2EEEEELm24ELm8ELNS0_12FixedPackingE1EE16deallocateBufferEPNS_11ValueBufferEPKNS_14TargetMetadataINS_9InProcessEEE, 
                        __ZN5swift12metadataimpl20BufferValueWitnessesINS0_14ValueWitnessesINS0_19ClassExistentialBoxILj2EEEEELm24ELm8ELNS0_12FixedPackingE1EE32initializeBufferWithCopyOfBufferEPNS_11ValueBufferES9_PKNS_14TargetMetadataINS_9InProcessEEE, 
                        __ZN5swift12metadataimpl20BufferValueWitnessesINS0_14ValueWitnessesINS0_19ClassExistentialBoxILj2EEEEELm24ELm8ELNS0_12FixedPackingE1EE32initializeBufferWithTakeOfBufferEPNS_11ValueBufferES9_PKNS_14TargetMetadataINS_9InProcessEEE, 
                        __ZN5swift12metadataimpl20BufferValueWitnessesINS0_14ValueWitnessesINS0_20OpaqueExistentialBoxILj0EEEEELm32ELm8ELNS0_12FixedPackingE0EE13projectBufferEPNS_11ValueBufferEPKNS_14TargetMetadataINS_9InProcessEEE, 
                        __ZN5swift12metadataimpl20BufferValueWitnessesINS0_14ValueWitnessesINS0_20OpaqueExistentialBoxILj0EEEEELm32ELm8ELNS0_12FixedPackingE0EE14allocateBufferEPNS_11ValueBufferEPKNS_14TargetMetadataINS_9InProcessEEE, 
                        __ZN5swift12metadataimpl20BufferValueWitnessesINS0_14ValueWitnessesINS0_20OpaqueExistentialBoxILj0EEEEELm32ELm8ELNS0_12FixedPackingE0EE16deallocateBufferEPNS_11ValueBufferEPKNS_14TargetMetadataINS_9InProcessEEE, 
                        __ZN5swift12metadataimpl20BufferValueWitnessesINS0_14ValueWitnessesINS0_20OpaqueExistentialBoxILj0EEEEELm32ELm8ELNS0_12FixedPackingE0EE32initializeBufferWithCopyOfBufferEPNS_11ValueBufferES9_PKNS_14TargetMetadataINS_9InProcessEEE, 
                        __ZN5swift12metadataimpl20BufferValueWitnessesINS0_14ValueWitnessesINS0_20OpaqueExistentialBoxILj0EEEEELm32ELm8ELNS0_12FixedPackingE0EE32initializeBufferWithTakeOfBufferEPNS_11ValueBufferES9_PKNS_14TargetMetadataINS_9InProcessEEE, 
                        __ZN5swift12metadataimpl20BufferValueWitnessesINS0_14ValueWitnessesINS0_20OpaqueExistentialBoxILj1EEEEELm40ELm8ELNS0_12FixedPackingE0EE13projectBufferEPNS_11ValueBufferEPKNS_14TargetMetadataINS_9InProcessEEE, 
                        __ZN5swift12metadataimpl20BufferValueWitnessesINS0_14ValueWitnessesINS0_20OpaqueExistentialBoxILj1EEEEELm40ELm8ELNS0_12FixedPackingE0EE14allocateBufferEPNS_11ValueBufferEPKNS_14TargetMetadataINS_9InProcessEEE, 
                        __ZN5swift12metadataimpl20BufferValueWitnessesINS0_14ValueWitnessesINS0_20OpaqueExistentialBoxILj1EEEEELm40ELm8ELNS0_12FixedPackingE0EE16deallocateBufferEPNS_11ValueBufferEPKNS_14TargetMetadataINS_9InProcessEEE, 
                        __ZN5swift12metadataimpl20BufferValueWitnessesINS0_14ValueWitnessesINS0_20OpaqueExistentialBoxILj1EEEEELm40ELm8ELNS0_12FixedPackingE0EE32initializeBufferWithCopyOfBufferEPNS_11ValueBufferES9_PKNS_14TargetMetadataINS_9InProcessEEE, 
                        __ZN5swift12metadataimpl20BufferValueWitnessesINS0_14ValueWitnessesINS0_20OpaqueExistentialBoxILj1EEEEELm40ELm8ELNS0_12FixedPackingE0EE32initializeBufferWithTakeOfBufferEPNS_11ValueBufferES9_PKNS_14TargetMetadataINS_9InProcessEEE, 
                        __ZN5swift12metadataimpl20BufferValueWitnessesINS0_14ValueWitnessesINS0_21ObjCWeakRetainableBoxEEELm8ELm8ELNS0_12FixedPackingE1EE13projectBufferEPNS_11ValueBufferEPKNS_14TargetMetadataINS_9InProcessEEE, 
                        __ZN5swift12metadataimpl20BufferValueWitnessesINS0_14ValueWitnessesINS0_21ObjCWeakRetainableBoxEEELm8ELm8ELNS0_12FixedPackingE1EE14allocateBufferEPNS_11ValueBufferEPKNS_14TargetMetadataINS_9InProcessEEE, 
                        __ZN5swift12metadataimpl20BufferValueWitnessesINS0_14ValueWitnessesINS0_21ObjCWeakRetainableBoxEEELm8ELm8ELNS0_12FixedPackingE1EE16deallocateBufferEPNS_11ValueBufferEPKNS_14TargetMetadataINS_9InProcessEEE, 
                        __ZN5swift12metadataimpl20BufferValueWitnessesINS0_14ValueWitnessesINS0_21ObjCWeakRetainableBoxEEELm8ELm8ELNS0_12FixedPackingE1EE32initializeBufferWithCopyOfBufferEPNS_11ValueBufferES8_PKNS_14TargetMetadataINS_9InProcessEEE, 
                        __ZN5swift12metadataimpl20BufferValueWitnessesINS0_14ValueWitnessesINS0_21ObjCWeakRetainableBoxEEELm8ELm8ELNS0_12FixedPackingE1EE32initializeBufferWithTakeOfBufferEPNS_11ValueBufferES8_PKNS_14TargetMetadataINS_9InProcessEEE, 
                        __ZN5swift12metadataimpl20BufferValueWitnessesINS0_14ValueWitnessesINS0_22ExistentialMetatypeBoxILj1EEEEELm16ELm8ELNS0_12FixedPackingE1EE13projectBufferEPNS_11ValueBufferEPKNS_14TargetMetadataINS_9InProcessEEE, 
                        __ZN5swift12metadataimpl20BufferValueWitnessesINS0_14ValueWitnessesINS0_22ExistentialMetatypeBoxILj1EEEEELm16ELm8ELNS0_12FixedPackingE1EE14allocateBufferEPNS_11ValueBufferEPKNS_14TargetMetadataINS_9InProcessEEE, 
                        __ZN5swift12metadataimpl20BufferValueWitnessesINS0_14ValueWitnessesINS0_22ExistentialMetatypeBoxILj1EEEEELm16ELm8ELNS0_12FixedPackingE1EE16deallocateBufferEPNS_11ValueBufferEPKNS_14TargetMetadataINS_9InProcessEEE, 
                        __ZN5swift12metadataimpl20BufferValueWitnessesINS0_14ValueWitnessesINS0_22ExistentialMetatypeBoxILj1EEEEELm16ELm8ELNS0_12FixedPackingE1EE32initializeBufferWithCopyOfBufferEPNS_11ValueBufferES9_PKNS_14TargetMetadataINS_9InProcessEEE, 
                        __ZN5swift12metadataimpl20BufferValueWitnessesINS0_14ValueWitnessesINS0_22ExistentialMetatypeBoxILj1EEEEELm16ELm8ELNS0_12FixedPackingE1EE32initializeBufferWithTakeOfBufferEPNS_11ValueBufferES9_PKNS_14TargetMetadataINS_9InProcessEEE, 
                        __ZN5swift12metadataimpl20BufferValueWitnessesINS0_14ValueWitnessesINS0_22ExistentialMetatypeBoxILj2EEEEELm24ELm8ELNS0_12FixedPackingE1EE13projectBufferEPNS_11ValueBufferEPKNS_14TargetMetadataINS_9InProcessEEE, 
                        __ZN5swift12metadataimpl20BufferValueWitnessesINS0_14ValueWitnessesINS0_22ExistentialMetatypeBoxILj2EEEEELm24ELm8ELNS0_12FixedPackingE1EE14allocateBufferEPNS_11ValueBufferEPKNS_14TargetMetadataINS_9InProcessEEE, 
                        __ZN5swift12metadataimpl20BufferValueWitnessesINS0_14ValueWitnessesINS0_22ExistentialMetatypeBoxILj2EEEEELm24ELm8ELNS0_12FixedPackingE1EE16deallocateBufferEPNS_11ValueBufferEPKNS_14TargetMetadataINS_9InProcessEEE, 
                        __ZN5swift12metadataimpl20BufferValueWitnessesINS0_14ValueWitnessesINS0_22ExistentialMetatypeBoxILj2EEEEELm24ELm8ELNS0_12FixedPackingE1EE32initializeBufferWithCopyOfBufferEPNS_11ValueBufferES9_PKNS_14TargetMetadataINS_9InProcessEEE, 
                        __ZN5swift12metadataimpl20BufferValueWitnessesINS0_14ValueWitnessesINS0_22ExistentialMetatypeBoxILj2EEEEELm24ELm8ELNS0_12FixedPackingE1EE32initializeBufferWithTakeOfBufferEPNS_11ValueBufferES9_PKNS_14TargetMetadataINS_9InProcessEEE, 
                        __ZN5swift12metadataimpl20BufferValueWitnessesINS0_14ValueWitnessesINS0_22SwiftWeakRetainableBoxEEELm8ELm8ELNS0_12FixedPackingE1EE13projectBufferEPNS_11ValueBufferEPKNS_14TargetMetadataINS_9InProcessEEE, 
                        __ZN5swift12metadataimpl20BufferValueWitnessesINS0_14ValueWitnessesINS0_22SwiftWeakRetainableBoxEEELm8ELm8ELNS0_12FixedPackingE1EE14allocateBufferEPNS_11ValueBufferEPKNS_14TargetMetadataINS_9InProcessEEE, 
                        __ZN5swift12metadataimpl20BufferValueWitnessesINS0_14ValueWitnessesINS0_22SwiftWeakRetainableBoxEEELm8ELm8ELNS0_12FixedPackingE1EE16deallocateBufferEPNS_11ValueBufferEPKNS_14TargetMetadataINS_9InProcessEEE, 
                        __ZN5swift12metadataimpl20BufferValueWitnessesINS0_14ValueWitnessesINS0_22SwiftWeakRetainableBoxEEELm8ELm8ELNS0_12FixedPackingE1EE32initializeBufferWithCopyOfBufferEPNS_11ValueBufferES8_PKNS_14TargetMetadataINS_9InProcessEEE, 
                        __ZN5swift12metadataimpl20BufferValueWitnessesINS0_14ValueWitnessesINS0_22SwiftWeakRetainableBoxEEELm8ELm8ELNS0_12FixedPackingE1EE32initializeBufferWithTakeOfBufferEPNS_11ValueBufferES8_PKNS_14TargetMetadataINS_9InProcessEEE, 
                        __ZN5swift12metadataimpl20BufferValueWitnessesINS0_14ValueWitnessesINS0_24ObjCUnownedRetainableBoxEEELm8ELm8ELNS0_12FixedPackingE1EE13projectBufferEPNS_11ValueBufferEPKNS_14TargetMetadataINS_9InProcessEEE, 
                        __ZN5swift12metadataimpl20BufferValueWitnessesINS0_14ValueWitnessesINS0_24ObjCUnownedRetainableBoxEEELm8ELm8ELNS0_12FixedPackingE1EE14allocateBufferEPNS_11ValueBufferEPKNS_14TargetMetadataINS_9InProcessEEE, 
                        __ZN5swift12metadataimpl20BufferValueWitnessesINS0_14ValueWitnessesINS0_24ObjCUnownedRetainableBoxEEELm8ELm8ELNS0_12FixedPackingE1EE16deallocateBufferEPNS_11ValueBufferEPKNS_14TargetMetadataINS_9InProcessEEE, 
                        __ZN5swift12metadataimpl20BufferValueWitnessesINS0_14ValueWitnessesINS0_24ObjCUnownedRetainableBoxEEELm8ELm8ELNS0_12FixedPackingE1EE32initializeBufferWithCopyOfBufferEPNS_11ValueBufferES8_PKNS_14TargetMetadataINS_9InProcessEEE, 
                        __ZN5swift12metadataimpl20BufferValueWitnessesINS0_14ValueWitnessesINS0_24ObjCUnownedRetainableBoxEEELm8ELm8ELNS0_12FixedPackingE1EE32initializeBufferWithTakeOfBufferEPNS_11ValueBufferES8_PKNS_14TargetMetadataINS_9InProcessEEE, 
                        __ZN5swift12metadataimpl20BufferValueWitnessesINS0_14ValueWitnessesINS0_25SwiftUnownedRetainableBoxEEELm8ELm8ELNS0_12FixedPackingE1EE13projectBufferEPNS_11ValueBufferEPKNS_14TargetMetadataINS_9InProcessEEE, 
                        __ZN5swift12metadataimpl20BufferValueWitnessesINS0_14ValueWitnessesINS0_25SwiftUnownedRetainableBoxEEELm8ELm8ELNS0_12FixedPackingE1EE14allocateBufferEPNS_11ValueBufferEPKNS_14TargetMetadataINS_9InProcessEEE, 
                        __ZN5swift12metadataimpl20BufferValueWitnessesINS0_14ValueWitnessesINS0_25SwiftUnownedRetainableBoxEEELm8ELm8ELNS0_12FixedPackingE1EE16deallocateBufferEPNS_11ValueBufferEPKNS_14TargetMetadataINS_9InProcessEEE, 
                        __ZN5swift12metadataimpl20BufferValueWitnessesINS0_14ValueWitnessesINS0_25SwiftUnownedRetainableBoxEEELm8ELm8ELNS0_12FixedPackingE1EE32initializeBufferWithCopyOfBufferEPNS_11ValueBufferES8_PKNS_14TargetMetadataINS_9InProcessEEE, 
                        __ZN5swift12metadataimpl20BufferValueWitnessesINS0_14ValueWitnessesINS0_25SwiftUnownedRetainableBoxEEELm8ELm8ELNS0_12FixedPackingE1EE32initializeBufferWithTakeOfBufferEPNS_11ValueBufferES8_PKNS_14TargetMetadataINS_9InProcessEEE, 
                        __ZN5swift12metadataimpl20BufferValueWitnessesINS0_14ValueWitnessesINS0_9NativeBoxINS_11ValueBufferELm8ELm24ELm24EEEEELm24ELm8ELNS0_12FixedPackingE1EE13projectBufferEPS4_PKNS_14TargetMetadataINS_9InProcessEEE, 
                        __ZN5swift12metadataimpl20BufferValueWitnessesINS0_14ValueWitnessesINS0_9NativeBoxINS_11ValueBufferELm8ELm24ELm24EEEEELm24ELm8ELNS0_12FixedPackingE1EE14allocateBufferEPS4_PKNS_14TargetMetadataINS_9InProcessEEE, 
                        __ZN5swift12metadataimpl20BufferValueWitnessesINS0_14ValueWitnessesINS0_9NativeBoxINS_11ValueBufferELm8ELm24ELm24EEEEELm24ELm8ELNS0_12FixedPackingE1EE16deallocateBufferEPS4_PKNS_14TargetMetadataINS_9InProcessEEE, 
                        __ZN5swift12metadataimpl20BufferValueWitnessesINS0_14ValueWitnessesINS0_9NativeBoxINS_11ValueBufferELm8ELm24ELm24EEEEELm24ELm8ELNS0_12FixedPackingE1EE32initializeBufferWithCopyOfBufferEPS4_S9_PKNS_14TargetMetadataINS_9InProcessEEE, 
                        __ZN5swift12metadataimpl20BufferValueWitnessesINS0_14ValueWitnessesINS0_9NativeBoxINS_11ValueBufferELm8ELm24ELm24EEEEELm24ELm8ELNS0_12FixedPackingE1EE32initializeBufferWithTakeOfBufferEPS4_S9_PKNS_14TargetMetadataINS_9InProcessEEE, 
                        __ZN5swift12metadataimpl20BufferValueWitnessesINS0_14ValueWitnessesINS0_9NativeBoxIyLm8ELm8ELm8EEEEELm8ELm8ELNS0_12FixedPackingE1EE13projectBufferEPNS_11ValueBufferEPKNS_14TargetMetadataINS_9InProcessEEE, 
                        __ZN5swift12metadataimpl20BufferValueWitnessesINS0_14ValueWitnessesINS0_9NativeBoxIyLm8ELm8ELm8EEEEELm8ELm8ELNS0_12FixedPackingE1EE14allocateBufferEPNS_11ValueBufferEPKNS_14TargetMetadataINS_9InProcessEEE, 
                        __ZN5swift12metadataimpl20BufferValueWitnessesINS0_14ValueWitnessesINS0_9NativeBoxIyLm8ELm8ELm8EEEEELm8ELm8ELNS0_12FixedPackingE1EE16deallocateBufferEPNS_11ValueBufferEPKNS_14TargetMetadataINS_9InProcessEEE, 
                        __ZN5swift12metadataimpl20BufferValueWitnessesINS0_14ValueWitnessesINS0_9NativeBoxIyLm8ELm8ELm8EEEEELm8ELm8ELNS0_12FixedPackingE1EE32initializeBufferWithCopyOfBufferEPNS_11ValueBufferES9_PKNS_14TargetMetadataINS_9InProcessEEE, 
                        __ZN5swift12metadataimpl20BufferValueWitnessesINS0_14ValueWitnessesINS0_9NativeBoxIyLm8ELm8ELm8EEEEELm8ELm8ELNS0_12FixedPackingE1EE32initializeBufferWithTakeOfBufferEPNS_11ValueBufferES9_PKNS_14TargetMetadataINS_9InProcessEEE, 
                        __ZN5swift12metadataimpl24BufferValueWitnessesBaseINS0_14ValueWitnessesINS0_9NativeBoxINS_11ValueBufferELm8ELm24ELm24EEEEEE13destroyBufferEPS4_PKNS_14TargetMetadataINS_9InProcessEEE, 
                        __ZN5swift12metadataimpl24BufferValueWitnessesBaseINS0_14ValueWitnessesINS0_9NativeBoxINS_11ValueBufferELm8ELm24ELm24EEEEEE24initializeBufferWithCopyEPS4_PNS_11OpaqueValueEPKNS_14TargetMetadataINS_9InProcessEEE, 
                        __ZN5swift12metadataimpl24BufferValueWitnessesBaseINS0_14ValueWitnessesINS0_9NativeBoxINS_11ValueBufferELm8ELm24ELm24EEEEEE24initializeBufferWithTakeEPS4_PNS_11OpaqueValueEPKNS_14TargetMetadataINS_9InProcessEEE, 
                        __ZN5swift13WeakReference14unknownDestroyEv, __ZN5swift13WeakReference17unknownCopyAssignEPS0_, 
                        __ZN5swift13WeakReference24nativeTakeStrongFromBitsENS_17WeakReferenceBitsE, 
                        __ZN5swift24HeapObjectSideTableEntry26decrementUnownedShouldFreeEj, 
                        __ZN5swift9RefCountsINS_13RefCountBitsTILNS_19RefCountInlinednessE1EEEE16incrementUnownedEj, 
                        ___swift_memcpy10_8, ___swift_memcpy128_8, ___swift_memcpy14_8, 
                        ___swift_memcpy16_8, ___swift_memcpy22_8, ___swift_memcpy26_8, 
                        ___swift_memcpy32_8, ___swift_memcpy33_8, ___swift_memcpy40_8, 
                        ___swift_memcpy41_8, ___swift_memcpy57_8, ___swift_memcpy72_8, 
                        ___swift_memcpy74_8, ___swift_memcpy80_8, ___swift_memcpy81_8, 
                        ___swift_memcpy88_8, ___swift_memcpy_array128_8, 
                        ___swift_memcpy_array32_8, ___swift_memcpy_array64_8, 
                        ___swift_memmove_array128_8, ___swift_memmove_array32_8, 
                        ___swift_memmove_array40_8, ___swift_memmove_array48_8, 
                        ___swift_memmove_array80_8, ___swift_memmove_array88_8 ]
  - archs:           [ armv7, armv7s, arm64 ]
    symbols:         [ __T0s17_VariantSetBufferOWy, '+[SwiftObject _isDeallocating]', 
                       '+[SwiftObject _tryRetain]', '+[SwiftObject allocWithZone:]', 
                       '+[SwiftObject alloc]', '+[SwiftObject allowsWeakReference]', 
                       '+[SwiftObject autorelease]', '+[SwiftObject class]', 
                       '+[SwiftObject conformsToProtocol:]', '+[SwiftObject debugDescription]', 
                       '+[SwiftObject description]', '+[SwiftObject initialize]', 
                       '+[SwiftObject instancesRespondToSelector:]', '+[SwiftObject isMemberOfClass:]', 
                       '+[SwiftObject isSubclassOfClass:]', '+[SwiftObject release]', 
                       '+[SwiftObject respondsToSelector:]', '+[SwiftObject retainCount]', 
                       '+[SwiftObject retainWeakReference]', '+[SwiftObject retain]', 
                       '+[SwiftObject superclass]', '+[_SwiftNativeNSError allocWithZone:]', 
                       '+[_SwiftValue allocWithZone:]', '-[SwiftObject _cfTypeID]', 
                       '-[SwiftObject _copyDescription]', '-[SwiftObject _isDeallocating]', 
                       '-[SwiftObject _tryRetain]', '-[SwiftObject allowsWeakReference]', 
                       '-[SwiftObject autorelease]', '-[SwiftObject class]', 
                       '-[SwiftObject conformsToProtocol:]', '-[SwiftObject dealloc]', 
                       '-[SwiftObject debugDescription]', '-[SwiftObject description]', 
                       '-[SwiftObject doesNotRecognizeSelector:]', '-[SwiftObject hash]', 
                       '-[SwiftObject isEqual:]', '-[SwiftObject isKindOfClass:]', 
                       '-[SwiftObject isMemberOfClass:]', '-[SwiftObject isNSArray__]', 
                       '-[SwiftObject isNSData__]', '-[SwiftObject isNSDate__]', 
                       '-[SwiftObject isNSDictionary__]', '-[SwiftObject isNSNumber__]', 
                       '-[SwiftObject isNSOrderedSet__]', '-[SwiftObject isNSSet__]', 
                       '-[SwiftObject isNSString__]', '-[SwiftObject isNSValue__]', 
                       '-[SwiftObject isProxy]', '-[SwiftObject performSelector:]', 
                       '-[SwiftObject performSelector:withObject:]', '-[SwiftObject performSelector:withObject:withObject:]', 
                       '-[SwiftObject release]', '-[SwiftObject respondsToSelector:]', 
                       '-[SwiftObject retainCount]', '-[SwiftObject retainWeakReference]', 
                       '-[SwiftObject retain]', '-[SwiftObject self]', 
                       '-[SwiftObject superclass]', '-[SwiftObject zone]', 
                       '-[_SwiftNativeNSArrayBase _isDeallocating]', '-[_SwiftNativeNSArrayBase _tryRetain]', 
                       '-[_SwiftNativeNSArrayBase allowsWeakReference]', 
                       '-[_SwiftNativeNSArrayBase autorelease]', '-[_SwiftNativeNSArrayBase dealloc]', 
                       '-[_SwiftNativeNSArrayBase release]', '-[_SwiftNativeNSArrayBase retainWeakReference]', 
                       '-[_SwiftNativeNSArrayBase retain]', '-[_SwiftNativeNSDataBase _isDeallocating]', 
                       '-[_SwiftNativeNSDataBase _tryRetain]', '-[_SwiftNativeNSDataBase allowsWeakReference]', 
                       '-[_SwiftNativeNSDataBase autorelease]', '-[_SwiftNativeNSDataBase dealloc]', 
                       '-[_SwiftNativeNSDataBase release]', '-[_SwiftNativeNSDataBase retainWeakReference]', 
                       '-[_SwiftNativeNSDataBase retain]', '-[_SwiftNativeNSDictionaryBase _isDeallocating]', 
                       '-[_SwiftNativeNSDictionaryBase _tryRetain]', '-[_SwiftNativeNSDictionaryBase allowsWeakReference]', 
                       '-[_SwiftNativeNSDictionaryBase autorelease]', '-[_SwiftNativeNSDictionaryBase dealloc]', 
                       '-[_SwiftNativeNSDictionaryBase release]', '-[_SwiftNativeNSDictionaryBase retainWeakReference]', 
                       '-[_SwiftNativeNSDictionaryBase retain]', '-[_SwiftNativeNSEnumeratorBase _isDeallocating]', 
                       '-[_SwiftNativeNSEnumeratorBase _tryRetain]', '-[_SwiftNativeNSEnumeratorBase allowsWeakReference]', 
                       '-[_SwiftNativeNSEnumeratorBase autorelease]', '-[_SwiftNativeNSEnumeratorBase dealloc]', 
                       '-[_SwiftNativeNSEnumeratorBase release]', '-[_SwiftNativeNSEnumeratorBase retainWeakReference]', 
                       '-[_SwiftNativeNSEnumeratorBase retain]', '-[_SwiftNativeNSError classForCoder]', 
                       '-[_SwiftNativeNSError code]', '-[_SwiftNativeNSError copyWithZone:]', 
                       '-[_SwiftNativeNSError dealloc]', '-[_SwiftNativeNSError domain]', 
                       '-[_SwiftNativeNSError isEqual:]', '-[_SwiftNativeNSError userInfo]', 
                       '-[_SwiftNativeNSIndexSetBase _isDeallocating]', 
                       '-[_SwiftNativeNSIndexSetBase _tryRetain]', '-[_SwiftNativeNSIndexSetBase allowsWeakReference]', 
                       '-[_SwiftNativeNSIndexSetBase autorelease]', '-[_SwiftNativeNSIndexSetBase dealloc]', 
                       '-[_SwiftNativeNSIndexSetBase release]', '-[_SwiftNativeNSIndexSetBase retainWeakReference]', 
                       '-[_SwiftNativeNSIndexSetBase retain]', '-[_SwiftNativeNSSetBase _isDeallocating]', 
                       '-[_SwiftNativeNSSetBase _tryRetain]', '-[_SwiftNativeNSSetBase allowsWeakReference]', 
                       '-[_SwiftNativeNSSetBase autorelease]', '-[_SwiftNativeNSSetBase dealloc]', 
                       '-[_SwiftNativeNSSetBase release]', '-[_SwiftNativeNSSetBase retainWeakReference]', 
                       '-[_SwiftNativeNSSetBase retain]', '-[_SwiftNativeNSStringBase _isDeallocating]', 
                       '-[_SwiftNativeNSStringBase _tryRetain]', '-[_SwiftNativeNSStringBase allowsWeakReference]', 
                       '-[_SwiftNativeNSStringBase autorelease]', '-[_SwiftNativeNSStringBase dealloc]', 
                       '-[_SwiftNativeNSStringBase release]', '-[_SwiftNativeNSStringBase retainWeakReference]', 
                       '-[_SwiftNativeNSStringBase retain]', '-[_SwiftNull description]', 
                       '-[_SwiftValue _swiftTypeMetadata]', '-[_SwiftValue _swiftTypeName]', 
                       '-[_SwiftValue _swiftValue]', '-[_SwiftValue copyWithZone:]', 
                       '-[_SwiftValue dealloc]', '-[_SwiftValue debugDescription]', 
                       '-[_SwiftValue description]', '-[_SwiftValue hash]', 
                       '-[_SwiftValue isEqual:]', GCC_except_table1, GCC_except_table106, 
                       GCC_except_table21, GCC_except_table78, GCC_except_table79, 
                       GCC_except_table83, GCC_except_table85, __GLOBAL__sub_I_GlobalObjects.cpp, 
                       __T011SubSequenceQzs03AnyB0Vy7ElementQzGs5Error_pIxiozo_AbGsAH_pIxirzo_s0B0RzAA_AEQZAFRSsAiBRQAA_AAQZABRSlTRTA, 
                       __T011SubSequenceQzs03AnyB0Vy7ElementQzGs5Error_pIxiozo_AbGsAH_pIxirzo_s10CollectionRzsAI7IndicesRpzsAiBRQsAiA_AJRPzlTRTA, 
                       __T011SubSequenceQzs03AnyB0Vy7ElementQzGs5Error_pIxiozo_AbGsAH_pIxirzo_s22RandomAccessCollectionRzsAI7IndicesRpzsAiBRQsAiA_AJRPzlTRTA, 
                       __T011SubSequenceQzs03AnyB0Vy7ElementQzGs5Error_pIxiozo_AbGsAH_pIxirzo_s23BidirectionalCollectionRzsAI7IndicesRpzsAiBRQsAiA_AJRPzlTRTA, 
                       __T011SubSequenceQzs13AnyCollectionVy7ElementQzGs5Error_pIxiozo_AbGsAH_pIxirzo_s012RandomAccessD0RzsAI7IndicesRpzsAiBRQsAiA_AJRPzlTRTA, 
                       __T011SubSequenceQzs13AnyCollectionVy7ElementQzGs5Error_pIxiozo_AbGsAH_pIxirzo_s013BidirectionalD0RzsAI7IndicesRpzsAiBRQsAiA_AJRPzlTRTA, 
                       __T011SubSequenceQzs13AnyCollectionVy7ElementQzGs5Error_pIxiozo_AbGsAH_pIxirzo_s0D0RzsAI7IndicesRpzsAiBRQsAiA_AJRPzlTRTA, 
                       __T011SubSequenceQzs25AnyRandomAccessCollectionVy7ElementQzGs5Error_pIxiozo_AbGsAH_pIxirzo_s0deF0RzsAI7IndicesRpzsAiBRQsAiA_AJRPzlTRTA, 
                       __T011SubSequenceQzs26AnyBidirectionalCollectionVy7ElementQzGs5Error_pIxiozo_AbGsAH_pIxirzo_s012RandomAccessE0RzsAI7IndicesRpzsAiBRQsAiA_AJRPzlTRTA, 
                       __T011SubSequenceQzs26AnyBidirectionalCollectionVy7ElementQzGs5Error_pIxiozo_AbGsAH_pIxirzo_s0dE0RzsAI7IndicesRpzsAiBRQsAiA_AJRPzlTRTA, 
                       __T07ElementQy_SSSgypIxior_AbC5label_yp5valuetIxir_s10CollectionR_sAF7IndicesRp_sAF11SubSequenceRp_r0_lTRTA, 
                       __T07ElementQzSSs5Error_pIxiozo_ABSSsAC_pIxirzo_s8SequenceRzlTRTA, 
                       __T0BBMB, __T0BBN, __T0BOMB, __T0BON, __T0BOSgXwWV, 
                       __T0BOWV, __T0BOXoWV, __T0BbMB, __T0BbN, __T0BbWV, 
                       __T0Bf32_MB, __T0Bf64_MB, __T0Bi128_N, __T0Bi128_WV, 
                       __T0Bi16_MB, __T0Bi16_N, __T0Bi16_WV, __T0Bi1_MB, 
                       __T0Bi256_N, __T0Bi256_WV, __T0Bi32_MB, __T0Bi32_N, 
                       __T0Bi32_WV, __T0Bi512_N, __T0Bi512_WV, __T0Bi63_MB, 
                       __T0Bi64_MB, __T0Bi64_N, __T0Bi64_WV, __T0Bi8_MB, 
                       __T0Bi8_N, __T0Bi8_WV, __T0BoMB, __T0BoN, __T0BoSgXwWV, 
                       __T0BoWV, __T0BoXoWV, __T0BomWV, __T0BpMB, __T0BpN, 
                       __T0BpWV, __T0BwMB, __T0S2PyxGSPyqd__GclufC, __T0S2PyxGSgSPyqd__GSgclufC, 
                       __T0S2PyxGSgSpyqd__GSgclufC, __T0S2PyxGSpyqd__GclufC, 
                       __T0S2PyxGycfC, __T0S2QyxGxcfC, __T0S2QyxGycfC, 
                       __T0S2QyxGyt10nilLiteral_tcfC, __T0S2RyxGSPyxG20_unboundedStartingAt_tcfC, 
                       __T0S2RyxGSPyxGSg5start_Si5counttcfC, __T0S2RyxGs17RandomAccessSliceVyAAG8rebasing_tcfC, 
                       __T0S2RyxGs24MutableRandomAccessSliceVySryxGG8rebasing_tcfC, 
                       __T0S2RyxGyt6_empty_tcfC, __T0S2SBi32_28_builtinUnicodeScalarLiteral_tcfC, 
                       __T0S2SBp21_builtinStringLiteral_Bw17utf8CodeUnitCountBi1_7isASCIItcfC, 
                       __T0S2SBp26_builtinUTF16StringLiteral_Bw18utf16CodeUnitCounttcfC, 
                       __T0S2SBp38_builtinExtendedGraphemeClusterLiteral_Bw17utf8CodeUnitCountBi1_7isASCIItcfC, 
                       __T0S2SSPy8CodeUnitQzG15decodingCString_xm2astcs16_UnicodeEncodingRzlufC, 
                       __T0S2SSPys4Int8VG7cString_tcfC, __T0S2SSPys5UInt8VG7cString_tcfC, 
                       __T0S2SSaySSG19stringInterpolationd_tcfC, __T0S2SSgSPys4Int8VG14validatingUTF8_tcfC, 
                       __T0S2SSgSS8UTF8ViewVcfC, __T0S2SSgSS9UTF16ViewVcfC, 
                       __T0S2SSgSScfC, __T0S2SSgs9SubstringV8UTF8ViewVcfC, 
                       __T0S2SSgs9SubstringV9UTF16ViewVcfC, __T0S2SSi5count_s7UnicodeO6ScalarV13repeatedValuetcfC, 
                       __T0S2SSi5count_s9CharacterV13repeatedValuetcfC, 
                       __T0S2Ss11_StringCoreVcfC, __T0S2Ss13_StringBufferV8_storage_tcfC, 
                       __T0S2Ss7Decoder_p4from_tKcfC, __T0S2Ss7UnicodeO6ScalarV9repeating_Si5counttcfC, 
                       __T0S2Ss7UnicodeO6ScalarVcfC, __T0S2Ss9CharacterV9repeating_Si5counttcfC, 
                       __T0S2Ss9CharacterVcfC, __T0S2Ss9SubstringV13CharacterViewVcfC, 
                       __T0S2Ss9SubstringV17UnicodeScalarViewVcfC, __T0S2Ss9SubstringVcfC, 
                       __T0S2Sx10describing_tclufC, __T0S2Sx10reflecting_tclufC, 
                       __T0S2Sx26stringInterpolationSegment_tclufC, __T0S2Sx26stringInterpolationSegment_tcs20TextOutputStreamableRzlufC, 
                       __T0S2Sx26stringInterpolationSegment_tcs23CustomStringConvertibleRzlufC, 
                       __T0S2Sx26stringInterpolationSegment_tcs23CustomStringConvertibleRzs20TextOutputStreamableRzlufC, 
                       __T0S2Sx8decoding_q_m2astcs10CollectionRzs16_UnicodeEncodingR_8CodeUnitQy_7ElementRtzr0_lufC, 
                       __T0S2Sx_Si5radixSb9uppercasetcs13SignedIntegerRzlufC, 
                       __T0S2Sx_Si5radixSb9uppercasetcs13SignedIntegerRzlufcfA0_, 
                       __T0S2Sx_Si5radixSb9uppercasetcs13SignedIntegerRzlufcfA1_, 
                       __T0S2Sx_Si5radixSb9uppercasetcs15UnsignedIntegerRzlufC, 
                       __T0S2Sx_Si5radixSb9uppercasetcs15UnsignedIntegerRzlufcfA0_, 
                       __T0S2Sx_Si5radixSb9uppercasetcs15UnsignedIntegerRzlufcfA1_, 
                       __T0S2Sx_Si5radixSb9uppercasetcs17FixedWidthIntegerRzlufC, 
                       __T0S2Sx_Si5radixSb9uppercasetcs17FixedWidthIntegerRzlufcfA0_, 
                       __T0S2Sx_Si5radixSb9uppercasetcs17FixedWidthIntegerRzlufcfA1_, 
                       __T0S2Sx_Si5radixSb9uppercasetcs17FixedWidthIntegerRzs06SignedE0RzlufC, 
                       __T0S2Sx_Si5radixSb9uppercasetcs17FixedWidthIntegerRzs06SignedE0RzlufcfA0_, 
                       __T0S2Sx_Si5radixSb9uppercasetcs17FixedWidthIntegerRzs06SignedE0RzlufcfA1_, 
                       __T0S2Sx_Si5radixSb9uppercasetcs17FixedWidthIntegerRzs08UnsignedE0RzlufC, 
                       __T0S2Sx_Si5radixSb9uppercasetcs17FixedWidthIntegerRzs08UnsignedE0RzlufcfA0_, 
                       __T0S2Sx_Si5radixSb9uppercasetcs17FixedWidthIntegerRzs08UnsignedE0RzlufcfA1_, 
                       __T0S2SxclufC, __T0S2Sxcs25LosslessStringConvertibleRzlufC, 
                       __T0S2Sxcs25LosslessStringConvertibleRzs8SequenceRzs9CharacterV7ElementsABPRtzlufC, 
                       __T0S2Sxcs8SequenceRzs9CharacterV7ElementRtzlufC, 
                       __T0S2SyXl12_cocoaString_tcfC, __T0S2SyXl12_cocoaString_tcfCTfq4gd_n, 
                       __T0S2SycfC, __T0S2ayxGAA12arrayLiterald_tcfC, __T0S2ayxGSi19_uninitializedCount_tcfC, 
                       __T0S2ayxGqd__c7ElementQyd__Rszs8SequenceRd__lufC, 
                       __T0S2ayxGs12_ArrayBufferVyxG7_buffer_tcfC, __T0S2ayxGs12_NSArrayCore_p20_immutableCocoaArray_tcfC, 
                       __T0S2ayxGs7Decoder_p4from_tKcfC, __T0S2ayxGx9repeating_Si5counttcfC, 
                       __T0S2ayxGycfC, __T0S2bSgSScfC, __T0S2bs7Decoder_p4from_tKcfC, 
                       __T0S2dSgSd7exactly_tcfC, __T0S2dSgSf7exactly_tcfC, 
                       __T0S2dSgSi7exactly_tcfC, __T0S2dSgSu7exactly_tcfC, 
                       __T0S2dSgs4Int8V7exactly_tcfC, __T0S2dSgs5Int16V7exactly_tcfC, 
                       __T0S2dSgs5Int32V7exactly_tcfC, __T0S2dSgs5Int64V7exactly_tcfC, 
                       __T0S2dSgs5UInt8V7exactly_tcfC, __T0S2dSgs6UInt16V7exactly_tcfC, 
                       __T0S2dSgs6UInt32V7exactly_tcfC, __T0S2dSgs6UInt64V7exactly_tcfC, 
                       __T0S2dSgx7exactly_tcs13BinaryIntegerRzlufC, __T0S2dSgxcs14StringProtocolRzlufC, 
                       __T0S2ds17FloatingPointSignO4sign_Si8exponentSd11significandtcfC, 
                       __T0S2ds17FloatingPointSignO4sign_Su18exponentBitPatterns6UInt64V011significandfG0tcfC, 
                       __T0S2ds6UInt64V10bitPattern_tcfC, __T0S2ds6UInt64V3nan_Sb9signalingtcfC, 
                       __T0S2ds7Decoder_p4from_tKcfC, __T0S2fSgSd7exactly_tcfC, 
                       __T0S2fSgSf7exactly_tcfC, __T0S2fSgSi7exactly_tcfC, 
                       __T0S2fSgSu7exactly_tcfC, __T0S2fSgs4Int8V7exactly_tcfC, 
                       __T0S2fSgs5Int16V7exactly_tcfC, __T0S2fSgs5Int32V7exactly_tcfC, 
                       __T0S2fSgs5Int64V7exactly_tcfC, __T0S2fSgs5UInt8V7exactly_tcfC, 
                       __T0S2fSgs6UInt16V7exactly_tcfC, __T0S2fSgs6UInt32V7exactly_tcfC, 
                       __T0S2fSgs6UInt64V7exactly_tcfC, __T0S2fSgx7exactly_tcs13BinaryIntegerRzlufC, 
                       __T0S2fSgxcs14StringProtocolRzlufC, __T0S2fs17FloatingPointSignO4sign_Si8exponentSf11significandtcfC, 
                       __T0S2fs17FloatingPointSignO4sign_Su18exponentBitPatterns6UInt32V011significandfG0tcfC, 
                       __T0S2fs6UInt32V10bitPattern_tcfC, __T0S2fs6UInt32V3nan_Sb9signalingtcfC, 
                       __T0S2fs7Decoder_p4from_tKcfC, __T0S2iSPyxGSg10bitPattern_tclufC, 
                       __T0S2iSVSg10bitPattern_tcfC, __T0S2iSpyxGSg10bitPattern_tclufC, 
                       __T0S2iSvSg10bitPattern_tcfC, __T0S2is13OpaquePointerVSg10bitPattern_tcfC, 
                       __T0S2is16ObjectIdentifierV10bitPattern_tcfC, __T0S2is16ObjectIdentifierVcfC, 
                       __T0S2is7Decoder_p4from_tKcfC, __T0S2ixcs19BinaryFloatingPointRzlufC, 
                       __T0S2pyxGSPyqd__GclufC, __T0S2pyxGSPyxGcfC, __T0S2pyxGSgSPyqd__GSgclufC, 
                       __T0S2pyxGSgSPyxGSgcfC, __T0S2pyxGSgSpyqd__GSgclufC, 
                       __T0S2pyxGSi18allocatingCapacity_tcfC, __T0S2pyxGSpyqd__GclufC, 
                       __T0S2pyxGycfC, __T0S2ryxGSpyxG20_unboundedStartingAt_tcfC, 
                       __T0S2ryxGSpyxGSg5start_Si5counttcfC, __T0S2ryxGs24MutableRandomAccessSliceVyAAG8rebasing_tcfC, 
                       __T0S2ryxGs24MutableRandomAccessSliceVyAAG8rebasing_tcfCTm, 
                       __T0S2ryxGyt6_empty_tcfC, __T0S2uSPyxGSg10bitPattern_tclufC, 
                       __T0S2uSVSg10bitPattern_tcfC, __T0S2uSpyxGSg10bitPattern_tclufC, 
                       __T0S2uSvSg10bitPattern_tcfC, __T0S2us13OpaquePointerVSg10bitPattern_tcfC, 
                       __T0S2us16ObjectIdentifierV10bitPattern_tcfC, __T0S2us16ObjectIdentifierVcfC, 
                       __T0S2us7Decoder_p4from_tKcfC, __T0S2uxcs19BinaryFloatingPointRzlufC, 
                       __T0S2vSPyxGclufC, __T0S2vSVcfC, __T0S2vSgSPyxGSgclufC, 
                       __T0S2vSgSVSgcfC, __T0S3S13CharacterViewVcfC, __T0S3S13stringLiteral_tcfC, 
                       __T0S3S17UnicodeScalarViewVcfC, __T0S3S8UTF8ViewVcfC, 
                       __T0S3S9UTF16ViewVcfC, __T0S3S9repeating_Si5counttcfC, 
                       __T0S3bcfC, __T0SC30_SwiftNSOperatingSystemVersionVs10ComparablesWP, 
                       __T0SC30_SwiftNSOperatingSystemVersionVs10ComparablesWa, 
                       __T0SC30_SwiftNSOperatingSystemVersionVs9EquatablesWP, 
                       __T0SC30_SwiftNSOperatingSystemVersionVs9EquatablesWa, 
                       __T0SC30_SwiftNSOperatingSystemVersionVsE1loiSbAB_ABtFZ, 
                       __T0SC30_SwiftNSOperatingSystemVersionVsE2eeoiSbAB_ABtFZ, 
                       __T0SC30_SwiftNSOperatingSystemVersionVsE2geoiSbAB_ABtFZ, 
                       __T0SP11predecessorSPyxGyF, __T0SP12customMirrors0B0Vfg, 
                       __T0SP16_cVarArgEncodingSaySiGfg, __T0SP16_cVarArgEncodingSaySiGfgTm, 
                       __T0SP16debugDescriptionSSfg, __T0SP17withMemoryReboundqd_0_qd__m2to_Si8capacityqd_0_SPyqd__GKctKr0_lF, 
                       __T0SP1loiSbSPyxG_ABtFZ, __T0SP25customPlaygroundQuickLooks0bcD0Ofg, 
                       __T0SP2eeoiSbSPyxG_ABtFZ, __T0SP4_maxSPyxGfgZ, __T0SP6memoryxfg, 
                       __T0SP7summarySSfg, __T0SP8advancedSPyxGSi2by_tF, 
                       __T0SP8distanceSiSPyxG2to_tF, __T0SP9hashValueSifg, 
                       __T0SP9successorSPyxGyF, __T0SPMF, __T0SPMP, __T0SPMa, 
                       __T0SPMn, __T0SPWV, __T0SPyxGs10ComparableslWP, 
                       __T0SPyxGs10ComparableslWa, __T0SPyxGs10StrideableslMA, 
                       __T0SPyxGs10StrideableslWP, __T0SPyxGs10StrideableslWa, 
                       __T0SPyxGs11_StrideableslMA, __T0SPyxGs11_StrideableslWP, 
                       __T0SPyxGs11_StrideableslWa, __T0SPyxGs17CustomReflectableslWP, 
                       __T0SPyxGs17CustomReflectableslWa, __T0SPyxGs28CustomDebugStringConvertibleslWP, 
                       __T0SPyxGs28CustomDebugStringConvertibleslWa, __T0SPyxGs29CustomPlaygroundQuickLookableslWP, 
                       __T0SPyxGs29CustomPlaygroundQuickLookableslWa, __T0SPyxGs7CVarArgslWP, 
                       __T0SPyxGs7CVarArgslWa, __T0SPyxGs8HashableslWP, 
                       __T0SPyxGs8HashableslWa, __T0SPyxGs8_PointerslWP, 
                       __T0SPyxGs8_PointerslWa, __T0SPyxGs9EquatableslWP, 
                       __T0SPyxGs9EquatableslWa, __T0SQ11descriptionSSfg, 
                       __T0SQ16debugDescriptionSSfg, __T0SQ19_bridgeToObjectiveCyXlyF, 
                       __T0SQ26_forceBridgeFromObjectiveCyyXl_SQyxGSgz6resulttFZ, 
                       __T0SQ34_conditionallyBridgeFromObjectiveCSbyXl_SQyxGSgz6resulttFZ, 
                       __T0SQ36_unconditionallyBridgeFromObjectiveCSQyxGyXlSgFZ, 
                       __T0SQ3mapSQyqd__Gqd__xKcKlF, __T0SQ7flatMapSQyqd__GABxKcKlF, 
                       __T0SQMF, __T0SQMP, __T0SQMa, __T0SQMn, __T0SQyxGs21_ObjectiveCBridgeableslMA, 
                       __T0SQyxGs21_ObjectiveCBridgeableslWP, __T0SQyxGs21_ObjectiveCBridgeableslWa, 
                       __T0SQyxGs21_ObjectiveCBridgeableslsABP09_bridgeToA1C01_A5CTypeQzyFTWTm, 
                       __T0SQyxGs23CustomStringConvertibleslWP, __T0SQyxGs23CustomStringConvertibleslWa, 
                       __T0SQyxGs23CustomStringConvertibleslsABP11descriptionSSfgTWTm, 
                       __T0SQyxGs23ExpressibleByNilLiteralslWP, __T0SQyxGs23ExpressibleByNilLiteralslWa, 
                       __T0SQyxGs28CustomDebugStringConvertibleslWP, __T0SQyxGs28CustomDebugStringConvertibleslWa, 
                       __T0SR10startIndexSifg, __T0SR11baseAddressSPyxGSgfg, 
                       __T0SR12makeIterators019UnsafeBufferPointerB0VyxGyF, 
                       __T0SR13_copyContentss27UnsafeBufferPointerIteratorVyxG_SitSryxG12initializing_tF, 
                       __T0SR16debugDescriptionSSfg, __T0SR20_failEarlyRangeCheckySi_s0C0VySiG6boundstF, 
                       __T0SR20_failEarlyRangeCheckys0C0VySiG_AD6boundstF, 
                       __T0SR5countSifg, __T0SR5indexS2i5after_tF, __T0SR5indexS2i6before_tF, 
                       __T0SR5indexS2i_Si8offsetBytF, __T0SR5indexSiSgSi_Si8offsetBySi07limitedC0tF, 
                       __T0SR7indicess14CountableRangeVySiGfg, __T0SR8distanceS2i4from_Si2totF, 
                       __T0SR8endIndexSifg, __T0SR9formIndexySiz5after_tF, 
                       __T0SR9formIndexySiz6before_tF, __T0SR9subscripts17RandomAccessSliceVySRyxGGs5RangeVySiGcfg, 
                       __T0SR9subscriptxSicfg, __T0SRMF, __T0SRMP, __T0SRMa, 
                       __T0SRMn, __T0SRWV, __T0SRyxGs10Collectionsl11SubSequenceWt, 
                       __T0SRyxGs10Collectionsl11SubSequences0C0PWT, __T0SRyxGs10Collectionsl11SubSequences14_IndexableBasePWT, 
                       __T0SRyxGs10Collectionsl8IteratorWt, __T0SRyxGs10CollectionslMA, 
                       __T0SRyxGs10CollectionslWG, __T0SRyxGs10CollectionslWI, 
                       __T0SRyxGs10CollectionslWP, __T0SRyxGs10CollectionslWa, 
                       __T0SRyxGs10_IndexableslMA, __T0SRyxGs10_IndexableslWG, 
                       __T0SRyxGs10_IndexableslWI, __T0SRyxGs10_IndexableslWP, 
                       __T0SRyxGs10_IndexableslWa, __T0SRyxGs14_IndexableBasesl11SubSequenceWt, 
                       __T0SRyxGs14_IndexableBasesl7ElementWt, __T0SRyxGs14_IndexableBaseslMA, 
                       __T0SRyxGs14_IndexableBaseslWG, __T0SRyxGs14_IndexableBaseslWP, 
                       __T0SRyxGs14_IndexableBaseslWa, __T0SRyxGs22RandomAccessCollectionsl11SubSequenceWt, 
                       __T0SRyxGs22RandomAccessCollectionsl11SubSequences013BidirectionalC0PWT, 
                       __T0SRyxGs22RandomAccessCollectionsl11SubSequences01_aB9IndexablePWT, 
                       __T0SRyxGs22RandomAccessCollectionslMA, __T0SRyxGs22RandomAccessCollectionslWG, 
                       __T0SRyxGs22RandomAccessCollectionslWI, __T0SRyxGs22RandomAccessCollectionslWP, 
                       __T0SRyxGs22RandomAccessCollectionslWa, __T0SRyxGs22_RandomAccessIndexableslWG, 
                       __T0SRyxGs22_RandomAccessIndexableslWI, __T0SRyxGs22_RandomAccessIndexableslWP, 
                       __T0SRyxGs22_RandomAccessIndexableslWa, __T0SRyxGs23BidirectionalCollectionsl11SubSequenceWt, 
                       __T0SRyxGs23BidirectionalCollectionsl11SubSequences01_A9IndexablePWT, 
                       __T0SRyxGs23BidirectionalCollectionsl11SubSequences0B0PWT, 
                       __T0SRyxGs23BidirectionalCollectionslMA, __T0SRyxGs23BidirectionalCollectionslWG, 
                       __T0SRyxGs23BidirectionalCollectionslWI, __T0SRyxGs23BidirectionalCollectionslWP, 
                       __T0SRyxGs23BidirectionalCollectionslWa, __T0SRyxGs23_BidirectionalIndexableslWG, 
                       __T0SRyxGs23_BidirectionalIndexableslWI, __T0SRyxGs23_BidirectionalIndexableslWP, 
                       __T0SRyxGs23_BidirectionalIndexableslWa, __T0SRyxGs28CustomDebugStringConvertibleslWP, 
                       __T0SRyxGs28CustomDebugStringConvertibleslWa, __T0SRyxGs8Sequencesl03SubA0Wt, 
                       __T0SRyxGs8Sequencesl7ElementWt, __T0SRyxGs8Sequencesl8IteratorWt, 
                       __T0SRyxGs8Sequencesl8Iterators0B8ProtocolPWT, __T0SRyxGs8SequenceslMA, 
                       __T0SRyxGs8SequenceslWG, __T0SRyxGs8SequenceslWP, 
                       __T0SRyxGs8SequenceslWa, __T0SRyyXlGSis5Error_pIxydzo_AASisAB_pIxyrzo_TRTA, 
                       __T0SRyyXlGs5Error_pIxyzo_AAytsAB_pIxyrzo_TRTA, 
                       __T0SRyyXlGyXls5Error_pIxyozo_AAyXlsAB_pIxyrzo_TRTA, 
                       __T0SS10charactersSS13CharacterViewVfg, __T0SS10charactersSS13CharacterViewVfs, 
                       __T0SS10lowercasedSSyF, __T0SS10startIndexSS0B0Vfg, 
                       __T0SS10uppercasedSSyF, __T0SS11descriptionSSfg, 
                       __T0SS11fromCStringSSSgSPys4Int8VGFZ, __T0SS11removeRangeys0B0VySS5IndexVGF, 
                       __T0SS11utf8CStrings15ContiguousArrayVys4Int8VGfg, 
                       __T0SS11withCStringxq_m9encodedAs_xSPy8CodeUnitQy_GKctKs16_UnicodeEncodingR_r0_lF, 
                       __T0SS11withCStringxxSPys4Int8VGKcKlF, __T0SS12customMirrors0B0Vfg, 
                       __T0SS12replaceRangeys0B0VySS5IndexVG_SS4withtF, 
                       __T0SS12replaceRangeys0B0VySS5IndexVG_x4withts10CollectionRzs9CharacterV7ElementRtzlF, 
                       __T0SS13CharacterViewV10startIndexSS0D0Vfg, __T0SS13CharacterViewV12replaceRangeys0D0VySS5IndexVG_x4withts10CollectionRzs0A0V7ElementRtzlF, 
                       __T0SS13CharacterViewV14unicodeScalarsSS013UnicodeScalarB0Vfg, 
                       __T0SS13CharacterViewV15replaceSubrangeys5RangeVySS5IndexVG_x4withts10CollectionRzs0A0V7ElementRtzlF, 
                       __T0SS13CharacterViewV15reserveCapacityySiF, __T0SS13CharacterViewV16appendContentsOfyxs8SequenceRzs0A0V7ElementRtzlF, 
                       __T0SS13CharacterViewV31_quickCheckGraphemeBreakBetweenSbs6UInt16V_AEtFZ, 
                       __T0SS13CharacterViewV38_measureExtendedGraphemeClusterForwardSiSS5IndexV4from_tF, 
                       __T0SS13CharacterViewV39_internalExtraCheckGraphemeBreakBetweenSbs6UInt16V_AEtFZ, 
                       __T0SS13CharacterViewV39_measureExtendedGraphemeClusterBackwardSiSS5IndexV4from_tF, 
                       __T0SS13CharacterViewV42_measureExtendedGraphemeClusterForwardSlowS2i14relativeOffset_SS5IndexV5startAF3endSi0lK5UTF16tF, 
                       __T0SS13CharacterViewV43_measureExtendedGraphemeClusterBackwardSlowS2i9endOffset_SS5IndexV5startAF0I0Si0iK5UTF16tF, 
                       __T0SS13CharacterViewV5indexSS5IndexVAE5after_tF, 
                       __T0SS13CharacterViewV5indexSS5IndexVAE6before_tF, 
                       __T0SS13CharacterViewV6_indexSS5IndexVSi15atEncodedOffset_tF, 
                       __T0SS13CharacterViewV6appendys0A0VF, __T0SS13CharacterViewV6appendyx10contentsOf_ts8SequenceRzs0A0V7ElementRtzlF, 
                       __T0SS13CharacterViewV8endIndexSS0D0Vfg, __T0SS13CharacterViewV9subscriptABs5RangeVySS5IndexVGcfg, 
                       __T0SS13CharacterViewV9subscripts0A0VSS5IndexVcfg, 
                       __T0SS13CharacterViewVABSScfC, __T0SS13CharacterViewVABs11_StringCoreV_Si10coreOffsettcfC, 
                       __T0SS13CharacterViewVABs11_StringCoreV_Si10coreOffsettcfcfA0_, 
                       __T0SS13CharacterViewVABycfC, __T0SS13CharacterViewVMF, 
                       __T0SS13CharacterViewVMa, __T0SS13CharacterViewVMf, 
                       __T0SS13CharacterViewVMn, __T0SS13CharacterViewVN, 
                       __T0SS13CharacterViewVWV, __T0SS13CharacterViewVs012_SwiftStringB0sWP, 
                       __T0SS13CharacterViewVs012_SwiftStringB0sWa, __T0SS13CharacterViewVs012_SwiftStringB0ssACP17_ephemeralContentSSfgTW, 
                       __T0SS13CharacterViewVs012_SwiftStringB0ssACP18_persistentContentSSfgTW, 
                       __T0SS13CharacterViewVs10CollectionsMA, __T0SS13CharacterViewVs10CollectionsWP, 
                       __T0SS13CharacterViewVs10CollectionsWa, __T0SS13CharacterViewVs10CollectionssACP5count13IndexDistanceQzfgTWTm, 
                       __T0SS13CharacterViewVs10CollectionssACP5index5IndexQzAG_0E8DistanceQz8offsetBytFTWTm, 
                       __T0SS13CharacterViewVs10CollectionssACP5index5IndexQzSgAG_0E8DistanceQz8offsetByAG07limitedH0tFTWTm, 
                       __T0SS13CharacterViewVs10CollectionssACP6prefix11SubSequenceQz5IndexQz4upTo_tFTWTm, 
                       __T0SS13CharacterViewVs10CollectionssACP7indices7IndicesQzfgTWTm, 
                       __T0SS13CharacterViewVs10_IndexablesMA, __T0SS13CharacterViewVs10_IndexablesWP, 
                       __T0SS13CharacterViewVs10_IndexablesWa, __T0SS13CharacterViewVs10_IndexablessACP9formIndexSb0E0Qzz_0E8DistanceQz8offsetByAG07limitedH0tFTWTm, 
                       __T0SS13CharacterViewVs10_IndexablessACP9formIndexy0E0Qzz_0E8DistanceQz8offsetBytFTWTm, 
                       __T0SS13CharacterViewVs14_IndexableBasesMA, __T0SS13CharacterViewVs14_IndexableBasesWP, 
                       __T0SS13CharacterViewVs14_IndexableBasesWa, __T0SS13CharacterViewVs23BidirectionalCollectionsMA, 
                       __T0SS13CharacterViewVs23BidirectionalCollectionsWP, 
                       __T0SS13CharacterViewVs23BidirectionalCollectionsWa, 
                       __T0SS13CharacterViewVs23BidirectionalCollectionssACP5index5IndexQzAG6before_tFTWTm, 
                       __T0SS13CharacterViewVs23_BidirectionalIndexablesWP, 
                       __T0SS13CharacterViewVs23_BidirectionalIndexablesWa, 
                       __T0SS13CharacterViewVs26RangeReplaceableCollectionsMA, 
                       __T0SS13CharacterViewVs26RangeReplaceableCollectionsWP, 
                       __T0SS13CharacterViewVs26RangeReplaceableCollectionsWa, 
                       __T0SS13CharacterViewVs26RangeReplaceableCollectionssACP15replaceSubrangeys0C0Vy5IndexQzG_qd__4withts0E0Rd__7ElementQyd__AMRtzlFTWTm, 
                       __T0SS13CharacterViewVs26_RangeReplaceableIndexablesWP, 
                       __T0SS13CharacterViewVs26_RangeReplaceableIndexablesWa, 
                       __T0SS13CharacterViewVs8SequencesMA, __T0SS13CharacterViewVs8SequencesWP, 
                       __T0SS13CharacterViewVs8SequencesWa, __T0SS13CharacterViewVs8SequencessACP18_preprocessingPassqd__Sgqd__yKcKlFTWTm, 
                       __T0SS13CharacterViewVs8SequencessACP19underestimatedCountSifgTWTm, 
                       __T0SS13CharacterViewVs8SequencessACP3mapSayqd__Gqd__7ElementQzKcKlFTWTm, 
                       __T0SS13CharacterViewVs8SequencessACP4drop03SubC0QzSb7ElementQzKc5while_tKFTWTm, 
                       __T0SS13CharacterViewVs8SequencessACP5splitSay03SubC0QzGSi9maxSplits_Sb25omittingEmptySubsequencesSb7ElementQzKc14whereSeparatortKFTWTm, 
                       __T0SS13CharacterViewVs8SequencessACP6filterSay7ElementQzGSbAGKcKFTWTm, 
                       __T0SS13CharacterViewVs8SequencessACP7forEachyy7ElementQzKcKFTWTm, 
                       __T0SS13CharacterViewVs8SequencessACP9dropFirst03SubC0QzSiFTWTm, 
                       __T0SS13CharacterViewVwCpTm, __T0SS13_compareASCIISiSSF, 
                       __T0SS13decodeCStringSS6result_Sb11repairsMadetSgSPy8CodeUnitQzGSg_xm2asSb016repairingInvalidF5Unitsts16_UnicodeEncodingRzlFZ, 
                       __T0SS13decodeCStringSS6result_Sb11repairsMadetSgSPy8CodeUnitQzGSg_xm2asSb016repairingInvalidF5Unitsts16_UnicodeEncodingRzlFZfA1_, 
                       __T0SS13removeAtIndexs9CharacterVSS0C0VF, __T0SS14_compareStringSiSSF, 
                       __T0SS14removeSubrangeys5RangeVySS5IndexVGF, __T0SS14unicodeScalarsSS17UnicodeScalarViewVfg, 
                       __T0SS14unicodeScalarsSS17UnicodeScalarViewVfs, 
                       __T0SS15lowercaseStringSSfg, __T0SS15replaceSubrangeys5RangeVySS5IndexVG_x4withts10CollectionRzs9CharacterV7ElementRtzlF, 
                       __T0SS15reserveCapacityySiF, __T0SS15uppercaseStringSSfg, 
                       __T0SS16appendContentsOfySSF, __T0SS16appendContentsOfyxs8SequenceRzs9CharacterV7ElementRtzlF, 
                       __T0SS16debugDescriptionSSfg, __T0SS16insertContentsOfyx_SS5IndexV2atts10CollectionRzs9CharacterV7ElementRtzlF, 
                       __T0SS17UnicodeScalarViewV10startIndexSS0E0Vfg, 
                       __T0SS17UnicodeScalarViewV11descriptionSSfg, __T0SS17UnicodeScalarViewV12customMirrors0E0Vfg, 
                       __T0SS17UnicodeScalarViewV12makeIteratorAB0E0VyF, 
                       __T0SS17UnicodeScalarViewV15replaceSubrangeys5RangeVySS5IndexVG_x4withts10CollectionRzs0A0O0B0V7ElementRtzlF, 
                       __T0SS17UnicodeScalarViewV15reserveCapacityySiF, 
                       __T0SS17UnicodeScalarViewV16_ScratchIteratorVMF, 
                       __T0SS17UnicodeScalarViewV16_ScratchIteratorVMa, 
                       __T0SS17UnicodeScalarViewV16_ScratchIteratorVMf, 
                       __T0SS17UnicodeScalarViewV16_ScratchIteratorVMn, 
                       __T0SS17UnicodeScalarViewV16_ScratchIteratorVN, 
                       __T0SS17UnicodeScalarViewV16_ScratchIteratorVWV, 
                       __T0SS17UnicodeScalarViewV16_ScratchIteratorVs0E8ProtocolsMA, 
                       __T0SS17UnicodeScalarViewV16_ScratchIteratorVs0E8ProtocolsWP, 
                       __T0SS17UnicodeScalarViewV16_ScratchIteratorVs0E8ProtocolsWa, 
                       __T0SS17UnicodeScalarViewV16_ScratchIteratorVs0E8ProtocolssAEP4next7ElementQzSgyFTW, 
                       __T0SS17UnicodeScalarViewV16debugDescriptionSSfg, 
                       __T0SS17UnicodeScalarViewV25customPlaygroundQuickLooks0efG0Ofg, 
                       __T0SS17UnicodeScalarViewV5indexSS5IndexVAE5after_tF, 
                       __T0SS17UnicodeScalarViewV5indexSS5IndexVAE6before_tF, 
                       __T0SS17UnicodeScalarViewV5indexSS5IndexVAESg5after_tF, 
                       __T0SS17UnicodeScalarViewV5indexSS5IndexVAESg_Si8offsetBytF, 
                       __T0SS17UnicodeScalarViewV6appendys0A0O0B0VF, __T0SS17UnicodeScalarViewV6appendyx10contentsOf_ts8SequenceRzs0A0O0B0V7ElementRtzlF, 
                       __T0SS17UnicodeScalarViewV8IteratorV4nexts0A0O0B0VSgyF, 
                       __T0SS17UnicodeScalarViewV8IteratorVMF, __T0SS17UnicodeScalarViewV8IteratorVMa, 
                       __T0SS17UnicodeScalarViewV8IteratorVMf, __T0SS17UnicodeScalarViewV8IteratorVMn, 
                       __T0SS17UnicodeScalarViewV8IteratorVN, __T0SS17UnicodeScalarViewV8IteratorVWV, 
                       __T0SS17UnicodeScalarViewV8IteratorVs0D8ProtocolsMA, 
                       __T0SS17UnicodeScalarViewV8IteratorVs0D8ProtocolsWP, 
                       __T0SS17UnicodeScalarViewV8IteratorVs0D8ProtocolsWa, 
                       __T0SS17UnicodeScalarViewV8distanceSiSS5IndexVSg4from_AF2totF, 
                       __T0SS17UnicodeScalarViewV8endIndexSS0E0Vfg, __T0SS17UnicodeScalarViewV9subscriptABs11ClosedRangeVySS5IndexVGcfg, 
                       __T0SS17UnicodeScalarViewV9subscriptABs5RangeVySS5IndexVGcfg, 
                       __T0SS17UnicodeScalarViewV9subscripts0A0O0B0VSS5IndexVSgcfg, 
                       __T0SS17UnicodeScalarViewV9subscripts0A0O0B0VSS5IndexVcfg, 
                       __T0SS17UnicodeScalarViewV9subscripts9SubstringVAAVs5RangeVySS5IndexVGcfg, 
                       __T0SS17UnicodeScalarViewVABycfC, __T0SS17UnicodeScalarViewVMF, 
                       __T0SS17UnicodeScalarViewVMa, __T0SS17UnicodeScalarViewVMf, 
                       __T0SS17UnicodeScalarViewVMn, __T0SS17UnicodeScalarViewVN, 
                       __T0SS17UnicodeScalarViewVWV, __T0SS17UnicodeScalarViewVs012_SwiftStringC0sWP, 
                       __T0SS17UnicodeScalarViewVs012_SwiftStringC0sWa, 
                       __T0SS17UnicodeScalarViewVs012_SwiftStringC0ssACP17_ephemeralContentSSfgTW, 
                       __T0SS17UnicodeScalarViewVs012_SwiftStringC0ssACP18_persistentContentSSfgTW, 
                       __T0SS17UnicodeScalarViewVs10CollectionsMA, __T0SS17UnicodeScalarViewVs10CollectionsWP, 
                       __T0SS17UnicodeScalarViewVs10CollectionsWa, __T0SS17UnicodeScalarViewVs10CollectionssACP6prefix11SubSequenceQz5IndexQz4upTo_tFTWTm, 
                       __T0SS17UnicodeScalarViewVs10_IndexablesMA, __T0SS17UnicodeScalarViewVs10_IndexablesWP, 
                       __T0SS17UnicodeScalarViewVs10_IndexablesWa, __T0SS17UnicodeScalarViewVs14_IndexableBasesMA, 
                       __T0SS17UnicodeScalarViewVs14_IndexableBasesWP, 
                       __T0SS17UnicodeScalarViewVs14_IndexableBasesWa, 
                       __T0SS17UnicodeScalarViewVs17CustomReflectablesWP, 
                       __T0SS17UnicodeScalarViewVs17CustomReflectablesWa, 
                       __T0SS17UnicodeScalarViewVs23BidirectionalCollectionsMA, 
                       __T0SS17UnicodeScalarViewVs23BidirectionalCollectionsWP, 
                       __T0SS17UnicodeScalarViewVs23BidirectionalCollectionsWa, 
                       __T0SS17UnicodeScalarViewVs23CustomStringConvertiblesWP, 
                       __T0SS17UnicodeScalarViewVs23CustomStringConvertiblesWa, 
                       __T0SS17UnicodeScalarViewVs23_BidirectionalIndexablesWP, 
                       __T0SS17UnicodeScalarViewVs23_BidirectionalIndexablesWa, 
                       __T0SS17UnicodeScalarViewVs26RangeReplaceableCollectionsMA, 
                       __T0SS17UnicodeScalarViewVs26RangeReplaceableCollectionsWP, 
                       __T0SS17UnicodeScalarViewVs26RangeReplaceableCollectionsWa, 
                       __T0SS17UnicodeScalarViewVs26_RangeReplaceableIndexablesWP, 
                       __T0SS17UnicodeScalarViewVs26_RangeReplaceableIndexablesWa, 
                       __T0SS17UnicodeScalarViewVs28CustomDebugStringConvertiblesWP, 
                       __T0SS17UnicodeScalarViewVs28CustomDebugStringConvertiblesWa, 
                       __T0SS17UnicodeScalarViewVs29CustomPlaygroundQuickLookablesWP, 
                       __T0SS17UnicodeScalarViewVs29CustomPlaygroundQuickLookablesWa, 
                       __T0SS17UnicodeScalarViewVs8SequencesMA, __T0SS17UnicodeScalarViewVs8SequencesWP, 
                       __T0SS17UnicodeScalarViewVs8SequencesWa, __T0SS17UnicodeScalarViewVs8SequencessACP4drop03SubD0QzSb7ElementQzKc5while_tKFTWTm, 
                       __T0SS17UnicodeScalarViewVs8SequencessACP9dropFirst03SubD0QzSiFTWTm, 
                       __T0SS17nulTerminatedUTF8s15ContiguousArrayVys5UInt8VGfg, 
                       __T0SS1loiSbSS_SStFZ, __T0SS1poiS2S_SStFZ, __T0SS1pois5NeverOSS_xts8SequenceRzSS7ElementRtzlFZ, 
                       __T0SS1pois5NeverOx_SSts8SequenceRzSS7ElementRtzlFZ, 
                       __T0SS21_fromCodeUnitSequenceSSSgxm_q_5inputts16_UnicodeEncodingRzs10CollectionR_7ElementQy_0bC0Rtzr0_lFZ, 
                       __T0SS21withMutableCharactersxxSS13CharacterViewVzclF, 
                       __T0SS23_bridgeToObjectiveCImplyXlyF, __T0SS23_bridgeToObjectiveCImplyXlyFTfq4x_n, 
                       __T0SS25customPlaygroundQuickLooks0bcD0Ofg, __T0SS2eeoiSbSS_SStFZ, 
                       __T0SS2peoiySSz_SStFZ, __T0SS31_fromCodeUnitSequenceWithRepairSS_Sb8hadErrortxm_q_5inputts16_UnicodeEncodingRzs10CollectionR_7ElementQy_0bC0Rtzr0_lFZ, 
                       __T0SS31_fromWellFormedCodeUnitSequenceSSxm_q_5inputts16_UnicodeEncodingRzs10CollectionR_7ElementQy_0dE0Rtzr0_lFZ, 
                       __T0SS33fromCStringRepairingIllFormedUTF8SSSg_Sb8hadErrortSPys4Int8VGFZ, 
                       __T0SS37_compareDeterministicUnicodeCollationSiSSF, 
                       __T0SS37_compareDeterministicUnicodeCollationSiSSFTfq4gXx_n, 
                       __T0SS37_stdlib_binary_bridgeToObjectiveCImplyXlyF, 
                       __T0SS4utf8SS8UTF8ViewVfg, __T0SS4utf8SS8UTF8ViewVfs, 
                       __T0SS5IndexV06_utf16A0Sifg, __T0SS5IndexV11_strideBitsSifgZ, 
                       __T0SS5IndexV12samePositionABSgSS17UnicodeScalarViewV2in_tF, 
                       __T0SS5IndexV12samePositionABSgSS2in_tF, __T0SS5IndexV12samePositionABSgSS8UTF8ViewV2in_tF, 
                       __T0SS5IndexV12samePositionABSgSS9UTF16ViewV2in_tF, 
                       __T0SS5IndexV13encodedOffsetSifg, __T0SS5IndexV17_transcodedOffsetSifg, 
                       __T0SS5IndexV17_transcodedOffsetSifs, __T0SS5IndexV1loiSbAB_ABtFZ, 
                       __T0SS5IndexV2eeoiSbAB_ABtFZ, __T0SS5IndexV6_CacheO13unicodeScalars7UnicodeO0D0VSgfg, 
                       __T0SS5IndexV6_CacheO4utf8s16_ValidUTF8BufferVys6UInt64VGSgfg, 
                       __T0SS5IndexV6_CacheO5utf16ytSgfg, __T0SS5IndexV6_CacheO9characters6UInt16VSgfg, 
                       __T0SS5IndexV6_CacheOMB, __T0SS5IndexV6_CacheOMF, 
                       __T0SS5IndexV6_CacheOMa, __T0SS5IndexV6_CacheOMf, 
                       __T0SS5IndexV6_CacheOMn, __T0SS5IndexV6_CacheON, 
                       __T0SS5IndexV6_CacheOWV, __T0SS5IndexV7_offsetSifg, 
                       __T0SS5IndexVA2B5_base_SS13CharacterViewV2intcfC, 
                       __T0SS5IndexVABSgAB_SS17UnicodeScalarViewV6withintcfC, 
                       __T0SS5IndexVABSgAB_SS6withintcfC, __T0SS5IndexVABSgAB_SS8UTF8ViewV6withintcfC, 
                       __T0SS5IndexVABSgAB_SS9UTF16ViewV6withintcfC, __T0SS5IndexVABSi13encodedOffset_Si010transcodedC0AB6_CacheOtcfC, 
                       __T0SS5IndexVABSi13encodedOffset_Si010transcodedC0AB6_CacheOtcfcfA0_, 
                       __T0SS5IndexVABSi13encodedOffset_tcfC, __T0SS5IndexVABSi7_offset_tcfC, 
                       __T0SS5IndexVABSi9_position_tcfC, __T0SS5IndexVMF, 
                       __T0SS5IndexVMa, __T0SS5IndexVMf, __T0SS5IndexVMn, 
                       __T0SS5IndexVN, __T0SS5IndexVWV, __T0SS5IndexVs10ComparablesWP, 
                       __T0SS5IndexVs10ComparablesWa, __T0SS5IndexVs9EquatablesWP, 
                       __T0SS5IndexVs9EquatablesWa, __T0SS5indexSS5IndexVAC5after_tF, 
                       __T0SS5indexSS5IndexVAC6before_tF, __T0SS5indexSS5IndexVAC_Si8offsetBytF, 
                       __T0SS5indexSS5IndexVSgAC_Si8offsetByAC07limitedD0tF, 
                       __T0SS5utf16SS9UTF16ViewVfg, __T0SS5utf16SS9UTF16ViewVfs, 
                       __T0SS5writeySSF, __T0SS5writeyxz2to_ts16TextOutputStreamRzlF, 
                       __T0SS6appendySSF, __T0SS6appendys7UnicodeO6ScalarVF, 
                       __T0SS6appendys9CharacterVF, __T0SS6appendyx10contentsOf_ts8SequenceRzs9CharacterV7ElementRtzlF, 
                       __T0SS6encodeys7Encoder_p2to_tKF, __T0SS6insertys9CharacterV_SS5IndexV2attF, 
                       __T0SS6insertyx10contentsOf_SS5IndexV2atts10CollectionRzs9CharacterV7ElementRtzlF, 
                       __T0SS6removes9CharacterVSS5IndexV2at_tF, __T0SS7isEmptySbfg, 
                       __T0SS8UTF8ViewV10startIndexSS0D0Vfg, __T0SS8UTF8ViewV11descriptionSSfg, 
                       __T0SS8UTF8ViewV12customMirrors0D0Vfg, __T0SS8UTF8ViewV12makeIteratorAB0D0VyF, 
                       __T0SS8UTF8ViewV16_forwardDistanceSiSS5IndexV4from_AE2totF, 
                       __T0SS8UTF8ViewV16_forwardDistanceSiSS5IndexV4from_AE2totFys06_ValidA6BufferVys6UInt32VGcfU_TA, 
                       __T0SS8UTF8ViewV16debugDescriptionSSfg, __T0SS8UTF8ViewV25customPlaygroundQuickLooks0deF0Ofg, 
                       __T0SS8UTF8ViewV5countSifg, __T0SS8UTF8ViewV5indexSS5IndexVAE5after_tF, 
                       __T0SS8UTF8ViewV5indexSS5IndexVAE6before_tF, __T0SS8UTF8ViewV5indexSS5IndexVAESg5after_tF, 
                       __T0SS8UTF8ViewV5indexSS5IndexVAESg_Si8offsetBytF, 
                       __T0SS8UTF8ViewV6_indexSS5IndexVSi15atEncodedOffset_tF, 
                       __T0SS8UTF8ViewV8IteratorV4nexts5UInt8VSgyF, __T0SS8UTF8ViewV8IteratorVMF, 
                       __T0SS8UTF8ViewV8IteratorVMa, __T0SS8UTF8ViewV8IteratorVMf, 
                       __T0SS8UTF8ViewV8IteratorVMn, __T0SS8UTF8ViewV8IteratorVN, 
                       __T0SS8UTF8ViewV8IteratorVWV, __T0SS8UTF8ViewV8IteratorVs0C8ProtocolsMA, 
                       __T0SS8UTF8ViewV8IteratorVs0C8ProtocolsWP, __T0SS8UTF8ViewV8IteratorVs0C8ProtocolsWa, 
                       __T0SS8UTF8ViewV8distanceSiSS5IndexV4from_AE2totF, 
                       __T0SS8UTF8ViewV8distanceSiSS5IndexVSg4from_AF2totF, 
                       __T0SS8UTF8ViewV8endIndexSS0D0Vfg, __T0SS8UTF8ViewV9subscriptABs11ClosedRangeVySS5IndexVGcfg, 
                       __T0SS8UTF8ViewV9subscriptABs5RangeVySS5IndexVGcfg, 
                       __T0SS8UTF8ViewV9subscripts5UInt8VSS5IndexVSgcfg, 
                       __T0SS8UTF8ViewV9subscripts5UInt8VSS5IndexVcfg, 
                       __T0SS8UTF8ViewV9subscripts9SubstringVAAVs5RangeVySS5IndexVGcfg, 
                       __T0SS8UTF8ViewVMF, __T0SS8UTF8ViewVMa, __T0SS8UTF8ViewVMf, 
                       __T0SS8UTF8ViewVMn, __T0SS8UTF8ViewVN, __T0SS8UTF8ViewVWV, 
                       __T0SS8UTF8ViewVs012_SwiftStringB0sWP, __T0SS8UTF8ViewVs012_SwiftStringB0sWa, 
                       __T0SS8UTF8ViewVs012_SwiftStringB0ssACP17_ephemeralContentSSfgTW, 
                       __T0SS8UTF8ViewVs012_SwiftStringB0ssACP18_persistentContentSSfgTW, 
                       __T0SS8UTF8ViewVs10CollectionsMA, __T0SS8UTF8ViewVs10CollectionsWP, 
                       __T0SS8UTF8ViewVs10CollectionsWa, __T0SS8UTF8ViewVs10CollectionssACP6prefix11SubSequenceQz5IndexQz4upTo_tFTWTm, 
                       __T0SS8UTF8ViewVs10_IndexablesMA, __T0SS8UTF8ViewVs10_IndexablesWP, 
                       __T0SS8UTF8ViewVs10_IndexablesWa, __T0SS8UTF8ViewVs14_IndexableBasesMA, 
                       __T0SS8UTF8ViewVs14_IndexableBasesWP, __T0SS8UTF8ViewVs14_IndexableBasesWa, 
                       __T0SS8UTF8ViewVs17CustomReflectablesWP, __T0SS8UTF8ViewVs17CustomReflectablesWa, 
                       __T0SS8UTF8ViewVs23BidirectionalCollectionsMA, __T0SS8UTF8ViewVs23BidirectionalCollectionsWP, 
                       __T0SS8UTF8ViewVs23BidirectionalCollectionsWa, __T0SS8UTF8ViewVs23CustomStringConvertiblesWP, 
                       __T0SS8UTF8ViewVs23CustomStringConvertiblesWa, __T0SS8UTF8ViewVs23_BidirectionalIndexablesWP, 
                       __T0SS8UTF8ViewVs23_BidirectionalIndexablesWa, __T0SS8UTF8ViewVs28CustomDebugStringConvertiblesWP, 
                       __T0SS8UTF8ViewVs28CustomDebugStringConvertiblesWa, 
                       __T0SS8UTF8ViewVs29CustomPlaygroundQuickLookablesWP, 
                       __T0SS8UTF8ViewVs29CustomPlaygroundQuickLookablesWa, 
                       __T0SS8UTF8ViewVs8SequencesMA, __T0SS8UTF8ViewVs8SequencesWP, 
                       __T0SS8UTF8ViewVs8SequencesWa, __T0SS8UTF8ViewVs8SequencessACP4drop03SubC0QzSb7ElementQzKc5while_tKFTWTm, 
                       __T0SS8UTF8ViewVs8SequencessACP9dropFirst03SubC0QzSiFTWTm, 
                       __T0SS8distanceSiSS5IndexV4from_AC2totF, __T0SS8endIndexSS0B0Vfg, 
                       __T0SS9UTF16ViewV10startIndexSS0D0Vfg, __T0SS9UTF16ViewV11descriptionSSfg, 
                       __T0SS9UTF16ViewV12customMirrors0D0Vfg, __T0SS9UTF16ViewV16debugDescriptionSSfg, 
                       __T0SS9UTF16ViewV25customPlaygroundQuickLooks0deF0Ofg, 
                       __T0SS9UTF16ViewV5indexSS5IndexVAE5after_tF, __T0SS9UTF16ViewV5indexSS5IndexVAE6before_tF, 
                       __T0SS9UTF16ViewV5indexSS5IndexVAESg5after_tF, __T0SS9UTF16ViewV5indexSS5IndexVAESg_Si8offsetBytF, 
                       __T0SS9UTF16ViewV5indexSS5IndexVAE_Si8offsetBytF, 
                       __T0SS9UTF16ViewV5indexSS5IndexVSgAE_Si8offsetByAE07limitedF0tF, 
                       __T0SS9UTF16ViewV7IndicesV10startIndexSS0E0Vfg, 
                       __T0SS9UTF16ViewV7IndicesV5indexSS5IndexVAG5after_tF, 
                       __T0SS9UTF16ViewV7IndicesV5indexSS5IndexVAG6before_tF, 
                       __T0SS9UTF16ViewV7IndicesV5indexSS5IndexVAG_Si8offsetBytF, 
                       __T0SS9UTF16ViewV7IndicesV5indexSS5IndexVSgAG_Si8offsetByAG07limitedG0tF, 
                       __T0SS9UTF16ViewV7IndicesV7indicesADfg, __T0SS9UTF16ViewV7IndicesV8distanceSiSS5IndexV4from_AG2totF, 
                       __T0SS9UTF16ViewV7IndicesV8endIndexSS0E0Vfg, __T0SS9UTF16ViewV7IndicesV9formIndexySS0E0Vz5after_tF, 
                       __T0SS9UTF16ViewV7IndicesV9formIndexySS0E0Vz6before_tF, 
                       __T0SS9UTF16ViewV7IndicesV9subscriptADs5RangeVySS5IndexVGcfg, 
                       __T0SS9UTF16ViewV7IndicesV9subscriptSS5IndexVAGcfg, 
                       __T0SS9UTF16ViewV7IndicesVMF, __T0SS9UTF16ViewV7IndicesVMa, 
                       __T0SS9UTF16ViewV7IndicesVMf, __T0SS9UTF16ViewV7IndicesVMn, 
                       __T0SS9UTF16ViewV7IndicesVN, __T0SS9UTF16ViewV7IndicesVWV, 
                       __T0SS9UTF16ViewV7IndicesVs10CollectionsMA, __T0SS9UTF16ViewV7IndicesVs10CollectionsWP, 
                       __T0SS9UTF16ViewV7IndicesVs10CollectionsWa, __T0SS9UTF16ViewV7IndicesVs10CollectionssAEP6prefix11SubSequenceQz5IndexQz4upTo_tFTWTm, 
                       __T0SS9UTF16ViewV7IndicesVs10_IndexablesMA, __T0SS9UTF16ViewV7IndicesVs10_IndexablesWP, 
                       __T0SS9UTF16ViewV7IndicesVs10_IndexablesWa, __T0SS9UTF16ViewV7IndicesVs14_IndexableBasesMA, 
                       __T0SS9UTF16ViewV7IndicesVs14_IndexableBasesWP, 
                       __T0SS9UTF16ViewV7IndicesVs14_IndexableBasesWa, 
                       __T0SS9UTF16ViewV7IndicesVs23BidirectionalCollectionsMA, 
                       __T0SS9UTF16ViewV7IndicesVs23BidirectionalCollectionsWP, 
                       __T0SS9UTF16ViewV7IndicesVs23BidirectionalCollectionsWa, 
                       __T0SS9UTF16ViewV7IndicesVs23_BidirectionalIndexablesWP, 
                       __T0SS9UTF16ViewV7IndicesVs23_BidirectionalIndexablesWa, 
                       __T0SS9UTF16ViewV7IndicesVs8SequencesMA, __T0SS9UTF16ViewV7IndicesVs8SequencesWP, 
                       __T0SS9UTF16ViewV7IndicesVs8SequencesWa, __T0SS9UTF16ViewV7IndicesVs8SequencessAEP4drop03SubD0QzSb7ElementQzKc5while_tKFTWTm, 
                       __T0SS9UTF16ViewV7IndicesVs8SequencessAEP9dropFirst03SubD0QzSiFTWTm, 
                       __T0SS9UTF16ViewV7indicesAB7IndicesVfg, __T0SS9UTF16ViewV8distanceSiSS5IndexV4from_AE2totF, 
                       __T0SS9UTF16ViewV8distanceSiSS5IndexVSg4from_AF2totF, 
                       __T0SS9UTF16ViewV8endIndexSS0D0Vfg, __T0SS9UTF16ViewV9subscriptABs11ClosedRangeVySS5IndexVGcfg, 
                       __T0SS9UTF16ViewV9subscriptABs5RangeVySS5IndexVGcfg, 
                       __T0SS9UTF16ViewV9subscriptABs5RangeVySiGcfg, __T0SS9UTF16ViewV9subscripts6UInt16VSS5IndexVSgcfg, 
                       __T0SS9UTF16ViewV9subscripts6UInt16VSS5IndexVcfg, 
                       __T0SS9UTF16ViewV9subscripts6UInt16VSicfg, __T0SS9UTF16ViewV9subscripts9SubstringVAAVs5RangeVySS5IndexVGcfg, 
                       __T0SS9UTF16ViewVMF, __T0SS9UTF16ViewVMa, __T0SS9UTF16ViewVMf, 
                       __T0SS9UTF16ViewVMn, __T0SS9UTF16ViewVN, __T0SS9UTF16ViewVWV, 
                       __T0SS9UTF16ViewVs012_SwiftStringB0sWP, __T0SS9UTF16ViewVs012_SwiftStringB0sWa, 
                       __T0SS9UTF16ViewVs012_SwiftStringB0ssACP17_ephemeralContentSSfgTW, 
                       __T0SS9UTF16ViewVs012_SwiftStringB0ssACP18_persistentContentSSfgTW, 
                       __T0SS9UTF16ViewVs10CollectionsMA, __T0SS9UTF16ViewVs10CollectionsWP, 
                       __T0SS9UTF16ViewVs10CollectionsWa, __T0SS9UTF16ViewVs10CollectionssACP6prefix11SubSequenceQz5IndexQz4upTo_tFTWTm, 
                       __T0SS9UTF16ViewVs10_IndexablesMA, __T0SS9UTF16ViewVs10_IndexablesWP, 
                       __T0SS9UTF16ViewVs10_IndexablesWa, __T0SS9UTF16ViewVs14_IndexableBasesMA, 
                       __T0SS9UTF16ViewVs14_IndexableBasesWP, __T0SS9UTF16ViewVs14_IndexableBasesWa, 
                       __T0SS9UTF16ViewVs17CustomReflectablesWP, __T0SS9UTF16ViewVs17CustomReflectablesWa, 
                       __T0SS9UTF16ViewVs23BidirectionalCollectionsMA, 
                       __T0SS9UTF16ViewVs23BidirectionalCollectionsWP, 
                       __T0SS9UTF16ViewVs23BidirectionalCollectionsWa, 
                       __T0SS9UTF16ViewVs23CustomStringConvertiblesWP, 
                       __T0SS9UTF16ViewVs23CustomStringConvertiblesWa, 
                       __T0SS9UTF16ViewVs23_BidirectionalIndexablesWP, 
                       __T0SS9UTF16ViewVs23_BidirectionalIndexablesWa, 
                       __T0SS9UTF16ViewVs28CustomDebugStringConvertiblesWP, 
                       __T0SS9UTF16ViewVs28CustomDebugStringConvertiblesWa, 
                       __T0SS9UTF16ViewVs29CustomPlaygroundQuickLookablesWP, 
                       __T0SS9UTF16ViewVs29CustomPlaygroundQuickLookablesWa, 
                       __T0SS9UTF16ViewVs8SequencesMA, __T0SS9UTF16ViewVs8SequencesWP, 
                       __T0SS9UTF16ViewVs8SequencesWa, __T0SS9UTF16ViewVs8SequencessACP4drop03SubC0QzSb7ElementQzKc5while_tKFTWTm, 
                       __T0SS9UTF16ViewVs8SequencessACP9dropFirst03SubC0QzSiFTWTm, 
                       __T0SS9hasPrefixSbSSF, __T0SS9hasSuffixSbSSF, __T0SS9hashValueSifg, 
                       __T0SS9removeAllySb15keepingCapacity_tF, __T0SS9removeAllySb15keepingCapacity_tFfA_, 
                       __T0SS9subscriptSSs11ClosedRangeVySS5IndexVGcfg, 
                       __T0SS9subscriptSSs11ClosedRangeVySiGcfg, __T0SS9subscriptSSs14CountableRangeVySiGcfg, 
                       __T0SS9subscriptSSs20CountableClosedRangeVySiGcfg, 
                       __T0SS9subscriptSSs5RangeVySS5IndexVGcfg, __T0SS9subscriptSSs5RangeVySiGcfg, 
                       __T0SS9subscripts9CharacterVSS5IndexVcfg, __T0SS9subscripts9CharacterVSicfg, 
                       __T0SS9subscripts9SubstringVs5RangeVySS5IndexVGcfg, 
                       __T0SSMF, __T0SSMa, __T0SSMf, __T0SSMn, __T0SSN, 
                       __T0SSWV, __T0SSs10CollectionsMA, __T0SSs10CollectionsWP, 
                       __T0SSs10CollectionsWa, __T0SSs10ComparablesWP, 
                       __T0SSs10ComparablesWa, __T0SSs10MirrorPathsWP, 
                       __T0SSs10MirrorPathsWa, __T0SSs10_IndexablesMA, 
                       __T0SSs10_IndexablesWP, __T0SSs10_IndexablesWa, 
                       __T0SSs14StringProtocolsMA, __T0SSs14StringProtocolsWP, 
                       __T0SSs14StringProtocolsWa, __T0SSs14StringProtocolssAAP9hasPrefixSbSSFTWTm, 
                       __T0SSs14_IndexableBasesMA, __T0SSs14_IndexableBasesWP, 
                       __T0SSs14_IndexableBasesWa, __T0SSs16TextOutputStreamsWP, 
                       __T0SSs16TextOutputStreamsWa, __T0SSs16_SwiftStringViewsWP, 
                       __T0SSs16_SwiftStringViewsWa, __T0SSs16_SwiftStringViewssAAP17_ephemeralContentSSfgTW, 
                       __T0SSs16_SwiftStringViewssAAP18_persistentContentSSfgTW, 
                       __T0SSs17CustomReflectablesWP, __T0SSs17CustomReflectablesWa, 
                       __T0SSs20TextOutputStreamablesWP, __T0SSs20TextOutputStreamablesWa, 
                       __T0SSs23BidirectionalCollectionsMA, __T0SSs23BidirectionalCollectionsWP, 
                       __T0SSs23BidirectionalCollectionsWa, __T0SSs23CustomStringConvertiblesWP, 
                       __T0SSs23CustomStringConvertiblesWa, __T0SSs23_BidirectionalIndexablesWP, 
                       __T0SSs23_BidirectionalIndexablesWa, __T0SSs25LosslessStringConvertiblesWP, 
                       __T0SSs25LosslessStringConvertiblesWa, __T0SSs26ExpressibleByStringLiteralsMA, 
                       __T0SSs26ExpressibleByStringLiteralsWP, __T0SSs26ExpressibleByStringLiteralsWa, 
                       __T0SSs26RangeReplaceableCollectionsMA, __T0SSs26RangeReplaceableCollectionsWP, 
                       __T0SSs26RangeReplaceableCollectionsWa, __T0SSs26_RangeReplaceableIndexablesWP, 
                       __T0SSs26_RangeReplaceableIndexablesWa, __T0SSs28CustomDebugStringConvertiblesWP, 
                       __T0SSs28CustomDebugStringConvertiblesWa, __T0SSs29CustomPlaygroundQuickLookablesWP, 
                       __T0SSs29CustomPlaygroundQuickLookablesWa, __T0SSs33ExpressibleByUnicodeScalarLiteralsMA, 
                       __T0SSs33ExpressibleByUnicodeScalarLiteralsWP, __T0SSs33ExpressibleByUnicodeScalarLiteralsWa, 
                       __T0SSs33_ExpressibleByStringInterpolationsWP, __T0SSs33_ExpressibleByStringInterpolationsWa, 
                       __T0SSs34_ExpressibleByBuiltinStringLiteralsWP, 
                       __T0SSs34_ExpressibleByBuiltinStringLiteralsWa, 
                       __T0SSs39_ExpressibleByBuiltinUTF16StringLiteralsWP, 
                       __T0SSs39_ExpressibleByBuiltinUTF16StringLiteralsWa, 
                       __T0SSs41_ExpressibleByBuiltinUnicodeScalarLiteralsWP, 
                       __T0SSs41_ExpressibleByBuiltinUnicodeScalarLiteralsWa, 
                       __T0SSs43ExpressibleByExtendedGraphemeClusterLiteralsMA, 
                       __T0SSs43ExpressibleByExtendedGraphemeClusterLiteralsWP, 
                       __T0SSs43ExpressibleByExtendedGraphemeClusterLiteralsWa, 
                       __T0SSs51_ExpressibleByBuiltinExtendedGraphemeClusterLiteralsWP, 
                       __T0SSs51_ExpressibleByBuiltinExtendedGraphemeClusterLiteralsWa, 
                       __T0SSs8HashablesWP, __T0SSs8HashablesWa, __T0SSs8SequencesMA, 
                       __T0SSs8SequencesWP, __T0SSs8SequencesWa, __T0SSs8SequencessAAP4drop03SubA0QzSb7ElementQzKc5while_tKFTWTm, 
                       __T0SSs8SequencessAAP9dropFirst03SubA0QzSiFTWTm, 
                       __T0SSs9DecodablesWP, __T0SSs9DecodablesWa, __T0SSs9EncodablesWP, 
                       __T0SSs9EncodablesWa, __T0SSs9EquatablesWP, __T0SSs9EquatablesWa, 
                       __T0SV10deallocateySi5bytes_Si9alignedTotF, __T0SV12customMirrors0B0Vfg, 
                       __T0SV16debugDescriptionSSfg, __T0SV25customPlaygroundQuickLooks0bcD0Ofg, 
                       __T0SV4loadxSi14fromByteOffset_xm2astlF, __T0SV4loadxSi14fromByteOffset_xm2astlFfA_, 
                       __T0SV7summarySSfg, __T0SV8advancedSVSi2by_tF, __T0SV8distanceSiSV2to_tF, 
                       __T0SV9hashValueSifg, __T0SVMF, __T0SVMa, __T0SVMf, 
                       __T0SVMn, __T0SVN, __T0SVWV, __T0SVs10ComparablesWP, 
                       __T0SVs10ComparablesWa, __T0SVs10StrideablesMA, 
                       __T0SVs10StrideablesWP, __T0SVs10StrideablesWa, 
                       __T0SVs11_StrideablesMA, __T0SVs11_StrideablesWP, 
                       __T0SVs11_StrideablesWa, __T0SVs17CustomReflectablesWP, 
                       __T0SVs17CustomReflectablesWa, __T0SVs28CustomDebugStringConvertiblesWP, 
                       __T0SVs28CustomDebugStringConvertiblesWa, __T0SVs29CustomPlaygroundQuickLookablesWP, 
                       __T0SVs29CustomPlaygroundQuickLookablesWa, __T0SVs8HashablesWP, 
                       __T0SVs8HashablesWa, __T0SVs8_PointersWP, __T0SVs8_PointersWa, 
                       __T0SVs9EquatablesWP, __T0SVs9EquatablesWa, __T0Sa034_makeUniqueAndReserveCapacityIfNotB0yyF, 
                       __T0Sa10startIndexSifg, __T0Sa11_checkIndexySiF, 
                       __T0Sa11_copyBufferys06_ArrayB0VyxGzFZ, __T0Sa11_copyBufferys06_ArrayB0VyxGzFZs5UInt8V_Tgq5Tfq4nd_nTm, 
                       __T0Sa11_getElementxSi_Sb20wasNativeTypeCheckeds16_DependenceTokenV22matchingSubscriptChecktF, 
                       __T0Sa11descriptionSSfg, __T0Sa12_getCapacitySiyF, 
                       __T0Sa12customMirrors0B0Vfg, __T0Sa12replaceRangeys0B0VySiG_qd__4witht7ElementQyd__Rszs10CollectionRd__lF, 
                       __T0Sa13_adoptStorageSayxG_SpyxGts016_ContiguousArrayB0CyxG_Si5counttFZ, 
                       __T0Sa13_copyContentss16IndexingIteratorVySayxGG_SitSryxG12initializing_tF, 
                       __T0Sa13removeAtIndexxSiF, __T0Sa15_checkSubscripts16_DependenceTokenVSi_Sb20wasNativeTypeCheckedtF, 
                       __T0Sa15replaceSubrangeys5RangeVySiG_qd__4witht7ElementQyd__Rszs10CollectionRd__lF, 
                       __T0Sa15reserveCapacityySiF, __T0Sa15reserveCapacityySiFs9CodingKey_p_Tgq5Tm, 
                       __T0Sa15withUnsafeBytesqd__qd__s0B16RawBufferPointerVKcKlF, 
                       __T0Sa15withUnsafeBytesqd__qd__s0B16RawBufferPointerVKcKlFqd__SRyxGKcfU_TA, 
                       __T0Sa16_copyToNewBufferySi8oldCount_tF, __T0Sa16_copyToNewBufferySi8oldCount_tFSS_Tgq5Tm, 
                       __T0Sa16_copyToNewBufferySi8oldCount_tFs7UnicodeO6ScalarV_Tgq5Tm, 
                       __T0Sa16_getOwner_nativeBoyF, __T0Sa16appendContentsOfyqd__7ElementQyd__Rszs8SequenceRd__lF, 
                       __T0Sa16debugDescriptionSSfg, __T0Sa18_getElementAddressSpyxGSiF, 
                       __T0Sa20_failEarlyRangeCheckySi_s0C0VySiG6boundstF, 
                       __T0Sa20_failEarlyRangeCheckys0C0VySiG_AD6boundstF, 
                       __T0Sa21_makeMutableAndUniqueyyF, __T0Sa22_allocateUninitializedSayxG_SpyxGtSiFZ, 
                       __T0Sa22_allocateUninitializedSayxG_SpyxGtSiFZs18BidirectionalSliceVys9CharacterV17UnicodeScalarViewVG_Tgq5Tfq4nd_nTm, 
                       __T0Sa22_checkSubscript_nativeySiF, __T0Sa22_copyToContiguousArrays0cD0VyxGyF, 
                       __T0Sa22withUnsafeMutableBytesqd__qd__s0bC16RawBufferPointerVKcKlF, 
                       __T0Sa22withUnsafeMutableBytesqd__qd__s0bC16RawBufferPointerVKcKlFqd__SryxGzKcfU_TA, 
                       __T0Sa23_bridgeToObjectiveCImplyXlyF, __T0Sa23withUnsafeBufferPointerqd__qd__SRyxGKcKlF, 
                       __T0Sa24_baseAddressIfContiguousSpyxGSgfg, __T0Sa24_deallocateUninitializedyyF, 
                       __T0Sa24reserveCapacityForAppendySi16newElementsCount_tF, 
                       __T0Sa28_allocateBufferUninitializeds06_ArrayB0VyxGSi15minimumCapacity_tFZ, 
                       __T0Sa29_hoistableIsNativeTypeCheckedSbyF, __T0Sa29_makeMutableAndUniqueOrPinnedyyF, 
                       __T0Sa29_makeMutableAndUniqueOrPinnedyyFTm, __T0Sa30withUnsafeMutableBufferPointerqd__qd__SryxGzKcKlF, 
                       __T0Sa33_getOwnerWithSemanticLabel_nativeBoyF, __T0Sa36_reserveCapacityAssumingUniqueBufferySi8oldCount_tF, 
                       __T0Sa37_appendElementAssumeUniqueAndCapacityySi_x03newB0tF, 
                       __T0Sa42_withUnsafeMutableBufferPointerIfSupportedqd__Sgqd__SpyxG_SitKcKlF, 
                       __T0Sa42_withUnsafeMutableBufferPointerIfSupportedqd__Sgqd__SpyxG_SitKcKlFqd__SryxGzKcfU_TA, 
                       __T0Sa44_bridgeFromObjectiveCAdoptingNativeStorageOfSayxGSgyXlFZ, 
                       __T0Sa5countSifg, __T0Sa5indexS2i5after_tF, __T0Sa5indexS2i6before_tF, 
                       __T0Sa5indexS2i_Si8offsetBytF, __T0Sa5indexSiSgSi_Si8offsetBySi07limitedC0tF, 
                       __T0Sa6_owneryXlSgfg, __T0Sa6appendyqd__10contentsOf_t7ElementQyd__Rszs8SequenceRd__lF, 
                       __T0Sa6appendyqd__10contentsOf_t7ElementQyd__Rszs8SequenceRd__lFs9CodingKey_p_SaysAF_pGTgq5Tm, 
                       __T0Sa6appendyxF, __T0Sa6encodeys7Encoder_p2to_tKF, 
                       __T0Sa6insertyx_Si2attF, __T0Sa6removexSi2at_tF, 
                       __T0Sa7_buffers12_ArrayBufferVyxGfg, __T0Sa7popLastxSgyF, 
                       __T0Sa8capacitySifg, __T0Sa8distanceS2i4from_Si2totF, 
                       __T0Sa8endIndexSifg, __T0Sa9_getCountSiyF, __T0Sa9formIndexySiz5after_tF, 
                       __T0Sa9formIndexySiz6before_tF, __T0Sa9removeAllySb15keepingCapacity_tF, 
                       __T0Sa9removeAllySb15keepingCapacity_tFfA_, __T0Sa9subscripts10ArraySliceVyxGs5RangeVySiGcfg, 
                       __T0Sa9subscripts10ArraySliceVyxGs5RangeVySiGcfm, 
                       __T0Sa9subscripts10ArraySliceVyxGs5RangeVySiGcfs, 
                       __T0Sa9subscriptxSicfaP, __T0Sa9subscriptxSicfg, 
                       __T0Sa9subscriptxSicfm, __T0SaMF, __T0SaMP, __T0SaMa, 
                       __T0SaMn, __T0SaWV, __T0SayxGs10Collectionsl11SubSequenceWt, 
                       __T0SayxGs10Collectionsl11SubSequences0C0PWT, __T0SayxGs10Collectionsl11SubSequences14_IndexableBasePWT, 
                       __T0SayxGs10Collectionsl8IteratorWt, __T0SayxGs10CollectionslMA, 
                       __T0SayxGs10CollectionslWG, __T0SayxGs10CollectionslWI, 
                       __T0SayxGs10CollectionslWP, __T0SayxGs10CollectionslWa, 
                       __T0SayxGs10CollectionslsABP6prefix11SubSequenceQz5IndexQz4upTo_tFTWTm, 
                       __T0SayxGs10_IndexableslMA, __T0SayxGs10_IndexableslWG, 
                       __T0SayxGs10_IndexableslWI, __T0SayxGs10_IndexableslWP, 
                       __T0SayxGs10_IndexableslWa, __T0SayxGs14_ArrayProtocolsl7_BufferWt, 
                       __T0SayxGs14_ArrayProtocolsl7_Buffers01_acB0PWT, 
                       __T0SayxGs14_ArrayProtocolslMA, __T0SayxGs14_ArrayProtocolslWG, 
                       __T0SayxGs14_ArrayProtocolslWI, __T0SayxGs14_ArrayProtocolslWP, 
                       __T0SayxGs14_ArrayProtocolslWa, __T0SayxGs14_IndexableBasesl11SubSequenceWt, 
                       __T0SayxGs14_IndexableBasesl7ElementWt, __T0SayxGs14_IndexableBaseslMA, 
                       __T0SayxGs14_IndexableBaseslWG, __T0SayxGs14_IndexableBaseslWP, 
                       __T0SayxGs14_IndexableBaseslWa, __T0SayxGs17CustomReflectableslWP, 
                       __T0SayxGs17CustomReflectableslWa, __T0SayxGs17MutableCollectionsl11SubSequenceWt, 
                       __T0SayxGs17MutableCollectionsl11SubSequences0B0PWT, 
                       __T0SayxGs17MutableCollectionslMA, __T0SayxGs17MutableCollectionslWG, 
                       __T0SayxGs17MutableCollectionslWI, __T0SayxGs17MutableCollectionslWP, 
                       __T0SayxGs17MutableCollectionslWa, __T0SayxGs17_MutableIndexableslWG, 
                       __T0SayxGs17_MutableIndexableslWI, __T0SayxGs17_MutableIndexableslWP, 
                       __T0SayxGs17_MutableIndexableslWa, __T0SayxGs22RandomAccessCollectionsl11SubSequenceWt, 
                       __T0SayxGs22RandomAccessCollectionsl11SubSequences013BidirectionalC0PWT, 
                       __T0SayxGs22RandomAccessCollectionsl11SubSequences01_aB9IndexablePWT, 
                       __T0SayxGs22RandomAccessCollectionslMA, __T0SayxGs22RandomAccessCollectionslWG, 
                       __T0SayxGs22RandomAccessCollectionslWI, __T0SayxGs22RandomAccessCollectionslWP, 
                       __T0SayxGs22RandomAccessCollectionslWa, __T0SayxGs22_RandomAccessIndexableslWG, 
                       __T0SayxGs22_RandomAccessIndexableslWI, __T0SayxGs22_RandomAccessIndexableslWP, 
                       __T0SayxGs22_RandomAccessIndexableslWa, __T0SayxGs23BidirectionalCollectionsl11SubSequenceWt, 
                       __T0SayxGs23BidirectionalCollectionsl11SubSequences01_A9IndexablePWT, 
                       __T0SayxGs23BidirectionalCollectionsl11SubSequences0B0PWT, 
                       __T0SayxGs23BidirectionalCollectionslMA, __T0SayxGs23BidirectionalCollectionslWG, 
                       __T0SayxGs23BidirectionalCollectionslWI, __T0SayxGs23BidirectionalCollectionslWP, 
                       __T0SayxGs23BidirectionalCollectionslWa, __T0SayxGs23BidirectionalCollectionslsABP4last7ElementQzSgfgTWTm, 
                       __T0SayxGs23CustomStringConvertibleslWP, __T0SayxGs23CustomStringConvertibleslWa, 
                       __T0SayxGs23_BidirectionalIndexableslWG, __T0SayxGs23_BidirectionalIndexableslWI, 
                       __T0SayxGs23_BidirectionalIndexableslWP, __T0SayxGs23_BidirectionalIndexableslWa, 
                       __T0SayxGs24_DestructorSafeContainerslWP, __T0SayxGs24_DestructorSafeContainerslWa, 
                       __T0SayxGs25ExpressibleByArrayLiteralsl0cD7ElementWt, 
                       __T0SayxGs25ExpressibleByArrayLiteralslMA, __T0SayxGs25ExpressibleByArrayLiteralslWP, 
                       __T0SayxGs25ExpressibleByArrayLiteralslWa, __T0SayxGs26RangeReplaceableCollectionsl11SubSequenceWt, 
                       __T0SayxGs26RangeReplaceableCollectionsl11SubSequences01_aB9IndexablePWT, 
                       __T0SayxGs26RangeReplaceableCollectionslMA, __T0SayxGs26RangeReplaceableCollectionslWG, 
                       __T0SayxGs26RangeReplaceableCollectionslWI, __T0SayxGs26RangeReplaceableCollectionslWP, 
                       __T0SayxGs26RangeReplaceableCollectionslWa, __T0SayxGs26_RangeReplaceableIndexableslWG, 
                       __T0SayxGs26_RangeReplaceableIndexableslWI, __T0SayxGs26_RangeReplaceableIndexableslWP, 
                       __T0SayxGs26_RangeReplaceableIndexableslWa, __T0SayxGs28CustomDebugStringConvertibleslWP, 
                       __T0SayxGs28CustomDebugStringConvertibleslWa, __T0SayxGs8Sequencesl03SubA0Wt, 
                       __T0SayxGs8Sequencesl7ElementWt, __T0SayxGs8Sequencesl8IteratorWt, 
                       __T0SayxGs8Sequencesl8Iterators0B8ProtocolPWT, __T0SayxGs8SequenceslMA, 
                       __T0SayxGs8SequenceslWG, __T0SayxGs8SequenceslWP, 
                       __T0SayxGs8SequenceslWa, __T0SayxGs8SequenceslsABP4drop03SubA0QzSb7ElementQzKc5while_tKFTWTm, 
                       __T0SayxGs8SequenceslsABP9dropFirst03SubA0QzSiFTWTm, 
                       __T0SayxGs9DecodableslWP, __T0SayxGs9DecodableslWa, 
                       __T0SayxGs9EncodableslWP, __T0SayxGs9EncodableslWa, 
                       __T0Sb11descriptionSSfg, __T0Sb12customMirrors0B0Vfg, 
                       __T0Sb25customPlaygroundQuickLooks0bcD0Ofg, __T0Sb6encodeys7Encoder_p2to_tKF, 
                       __T0SbMF, __T0SbMa, __T0SbMf, __T0SbMn, __T0SbN, 
                       __T0SbWV, __T0Sbs17CustomReflectablesWP, __T0Sbs17CustomReflectablesWa, 
                       __T0Sbs23CustomStringConvertiblesWP, __T0Sbs23CustomStringConvertiblesWa, 
                       __T0Sbs25LosslessStringConvertiblesWP, __T0Sbs25LosslessStringConvertiblesWa, 
                       __T0Sbs27ExpressibleByBooleanLiteralsMA, __T0Sbs27ExpressibleByBooleanLiteralsWP, 
                       __T0Sbs27ExpressibleByBooleanLiteralsWa, __T0Sbs29CustomPlaygroundQuickLookablesWP, 
                       __T0Sbs29CustomPlaygroundQuickLookablesWa, __T0Sbs35_ExpressibleByBuiltinBooleanLiteralsWP, 
                       __T0Sbs35_ExpressibleByBuiltinBooleanLiteralsWa, 
                       __T0Sbs5Error_pIxdzo_SbsAA_pIxrzo_TRTA, __T0Sbs8HashablesWP, 
                       __T0Sbs8HashablesWa, __T0Sbs9DecodablesWP, __T0Sbs9DecodablesWa, 
                       __T0Sbs9EncodablesWP, __T0Sbs9EncodablesWa, __T0Sbs9EquatablesWP, 
                       __T0Sbs9EquatablesWa, __T0Sd10bitPatterns6UInt64Vfg, 
                       __T0Sd11descriptionSSfg, __T0Sd11isCanonicalSbfg, 
                       __T0Sd11isSignMinusSbfg, __T0Sd11significandSdfg, 
                       __T0Sd12customMirrors0B0Vfg, __T0Sd12signalingNaNSdfgZ, 
                       __T0Sd13_quietNaNMasks6UInt64VfgZ, __T0Sd16_cVarArgEncodingSaySiGfg, 
                       __T0Sd16debugDescriptionSSfg, __T0Sd16exponentBitCountSifgZ, 
                       __T0Sd16significandWidthSifg, __T0Sd17_cVarArgAlignmentSifg, 
                       __T0Sd17_infinityExponentSufgZ, __T0Sd18exponentBitPatternSufg, 
                       __T0Sd19significandBitCountSifgZ, __T0Sd20leastNormalMagnitudeSdfgZ, 
                       __T0Sd21leastNonzeroMagnitudeSdfgZ, __T0Sd21significandBitPatterns6UInt64Vfg, 
                       __T0Sd23greatestFiniteMagnitudeSdfgZ, __T0Sd25customPlaygroundQuickLooks0bcD0Ofg, 
                       __T0Sd2piSdfgZ, __T0Sd3nanSdfgZ, __T0Sd3ulpSdfg, 
                       __T0Sd4signs17FloatingPointSignOfg, __T0Sd6binadeSdfg, 
                       __T0Sd6encodeys7Encoder_p2to_tKF, __T0Sd6nextUpSdfg, 
                       __T0Sd8exponentSifg, __T0Sd8infinitySdfgZ, __T0Sd8quietNaNSdfgZ, 
                       __T0Sd9hashValueSifg, __T0SdMF, __T0SdMa, __T0SdMf, 
                       __T0SdMn, __T0SdN, __T0SdWV, __T0Sds10ComparablesWP, 
                       __T0Sds10ComparablesWa, __T0Sds10StrideablesMA, 
                       __T0Sds10StrideablesWP, __T0Sds10StrideablesWa, 
                       __T0Sds11_StrideablesMA, __T0Sds11_StrideablesWP, 
                       __T0Sds11_StrideablesWa, __T0Sds13FloatingPointsMA, 
                       __T0Sds13FloatingPointsWP, __T0Sds13FloatingPointsWa, 
                       __T0Sds13SignedNumericsWP, __T0Sds13SignedNumericsWa, 
                       __T0Sds15_CVarArgAlignedsWP, __T0Sds15_CVarArgAlignedsWa, 
                       __T0Sds17CustomReflectablesWP, __T0Sds17CustomReflectablesWa, 
                       __T0Sds19BinaryFloatingPointsMA, __T0Sds19BinaryFloatingPointsWP, 
                       __T0Sds19BinaryFloatingPointsWa, __T0Sds22_CVarArgPassedAsDoublesWP, 
                       __T0Sds22_CVarArgPassedAsDoublesWa, __T0Sds23CustomStringConvertiblesWP, 
                       __T0Sds23CustomStringConvertiblesWa, __T0Sds25ExpressibleByFloatLiteralsMA, 
                       __T0Sds25ExpressibleByFloatLiteralsWP, __T0Sds25ExpressibleByFloatLiteralsWa, 
                       __T0Sds25LosslessStringConvertiblesWP, __T0Sds25LosslessStringConvertiblesWa, 
                       __T0Sds27ExpressibleByIntegerLiteralsMA, __T0Sds27ExpressibleByIntegerLiteralsWP, 
                       __T0Sds27ExpressibleByIntegerLiteralsWa, __T0Sds28CustomDebugStringConvertiblesWP, 
                       __T0Sds28CustomDebugStringConvertiblesWa, __T0Sds29CustomPlaygroundQuickLookablesWP, 
                       __T0Sds29CustomPlaygroundQuickLookablesWa, __T0Sds33_ExpressibleByBuiltinFloatLiteralsWP, 
                       __T0Sds33_ExpressibleByBuiltinFloatLiteralsWa, __T0Sds35_ExpressibleByBuiltinIntegerLiteralsWP, 
                       __T0Sds35_ExpressibleByBuiltinIntegerLiteralsWa, 
                       __T0Sds7CVarArgsWP, __T0Sds7CVarArgsWa, __T0Sds7NumericsMA, 
                       __T0Sds7NumericsWP, __T0Sds7NumericsWa, __T0Sds8HashablesWP, 
                       __T0Sds8HashablesWa, __T0Sds9DecodablesWP, __T0Sds9DecodablesWa, 
                       __T0Sds9EncodablesWP, __T0Sds9EncodablesWa, __T0Sds9EquatablesWP, 
                       __T0Sds9EquatablesWa, __T0Sf10bitPatterns6UInt32Vfg, 
                       __T0Sf11descriptionSSfg, __T0Sf11isCanonicalSbfg, 
                       __T0Sf11isSignMinusSbfg, __T0Sf11significandSffg, 
                       __T0Sf12customMirrors0B0Vfg, __T0Sf12signalingNaNSffgZ, 
                       __T0Sf13_quietNaNMasks6UInt32VfgZ, __T0Sf16_cVarArgEncodingSaySiGfg, 
                       __T0Sf16debugDescriptionSSfg, __T0Sf16exponentBitCountSifgZ, 
                       __T0Sf16significandWidthSifg, __T0Sf17_cVarArgAlignmentSifg, 
                       __T0Sf17_infinityExponentSufgZ, __T0Sf18exponentBitPatternSufg, 
                       __T0Sf19significandBitCountSifgZ, __T0Sf20leastNormalMagnitudeSffgZ, 
                       __T0Sf21leastNonzeroMagnitudeSffgZ, __T0Sf21significandBitPatterns6UInt32Vfg, 
                       __T0Sf23greatestFiniteMagnitudeSffgZ, __T0Sf25customPlaygroundQuickLooks0bcD0Ofg, 
                       __T0Sf2piSffgZ, __T0Sf3nanSffgZ, __T0Sf3ulpSffg, 
                       __T0Sf4signs17FloatingPointSignOfg, __T0Sf6binadeSffg, 
                       __T0Sf6encodeys7Encoder_p2to_tKF, __T0Sf6nextUpSffg, 
                       __T0Sf8exponentSifg, __T0Sf8infinitySffgZ, __T0Sf8quietNaNSffgZ, 
                       __T0Sf9hashValueSifg, __T0SfMF, __T0SfMa, __T0SfMf, 
                       __T0SfMn, __T0SfN, __T0SfWV, __T0Sfs10ComparablesWP, 
                       __T0Sfs10ComparablesWa, __T0Sfs10StrideablesMA, 
                       __T0Sfs10StrideablesWP, __T0Sfs10StrideablesWa, 
                       __T0Sfs11_StrideablesMA, __T0Sfs11_StrideablesWP, 
                       __T0Sfs11_StrideablesWa, __T0Sfs13FloatingPointsMA, 
                       __T0Sfs13FloatingPointsWP, __T0Sfs13FloatingPointsWa, 
                       __T0Sfs13SignedNumericsWP, __T0Sfs13SignedNumericsWa, 
                       __T0Sfs15_CVarArgAlignedsWP, __T0Sfs15_CVarArgAlignedsWa, 
                       __T0Sfs17CustomReflectablesWP, __T0Sfs17CustomReflectablesWa, 
                       __T0Sfs19BinaryFloatingPointsMA, __T0Sfs19BinaryFloatingPointsWP, 
                       __T0Sfs19BinaryFloatingPointsWa, __T0Sfs22_CVarArgPassedAsDoublesWP, 
                       __T0Sfs22_CVarArgPassedAsDoublesWa, __T0Sfs23CustomStringConvertiblesWP, 
                       __T0Sfs23CustomStringConvertiblesWa, __T0Sfs25ExpressibleByFloatLiteralsMA, 
                       __T0Sfs25ExpressibleByFloatLiteralsWP, __T0Sfs25ExpressibleByFloatLiteralsWa, 
                       __T0Sfs25LosslessStringConvertiblesWP, __T0Sfs25LosslessStringConvertiblesWa, 
                       __T0Sfs27ExpressibleByIntegerLiteralsMA, __T0Sfs27ExpressibleByIntegerLiteralsWP, 
                       __T0Sfs27ExpressibleByIntegerLiteralsWa, __T0Sfs28CustomDebugStringConvertiblesWP, 
                       __T0Sfs28CustomDebugStringConvertiblesWa, __T0Sfs29CustomPlaygroundQuickLookablesWP, 
                       __T0Sfs29CustomPlaygroundQuickLookablesWa, __T0Sfs33_ExpressibleByBuiltinFloatLiteralsWP, 
                       __T0Sfs33_ExpressibleByBuiltinFloatLiteralsWa, __T0Sfs35_ExpressibleByBuiltinIntegerLiteralsWP, 
                       __T0Sfs35_ExpressibleByBuiltinIntegerLiteralsWa, 
                       __T0Sfs7CVarArgsWP, __T0Sfs7CVarArgsWa, __T0Sfs7NumericsMA, 
                       __T0Sfs7NumericsWP, __T0Sfs7NumericsWa, __T0Sfs8HashablesWP, 
                       __T0Sfs8HashablesWa, __T0Sfs9DecodablesWP, __T0Sfs9DecodablesWa, 
                       __T0Sfs9EncodablesWP, __T0Sfs9EncodablesWa, __T0Sfs9EquatablesWP, 
                       __T0Sfs9EquatablesWa, __T0Si11_sizeInBitsSifgZ, 
                       __T0Si11byteSwappedSifg, __T0Si12_sizeInBytesSifgZ, 
                       __T0Si12customMirrors0B0Vfg, __T0Si16_cVarArgEncodingSaySiGfg, 
                       __T0Si17dividingFullWidthSi8quotient_Si9remaindertSi4high_Su3lowt_tF, 
                       __T0Si19multipliedFullWidthSi4high_Su3lowtSi2by_tF, 
                       __T0Si25customPlaygroundQuickLooks0bcD0Ofg, __T0Si5WordsV10startIndexSifg, 
                       __T0Si5WordsV5countSifg, __T0Si5WordsV7indicess14CountableRangeVySiGfg, 
                       __T0Si5WordsV8endIndexSifg, __T0Si5WordsV9subscriptSuSicfg, 
                       __T0Si5WordsVABSicfC, __T0Si5WordsVMF, __T0Si5WordsVMa, 
                       __T0Si5WordsVMf, __T0Si5WordsVMn, __T0Si5WordsVN, 
                       __T0Si5WordsVWV, __T0Si5WordsVs10CollectionsMA, 
                       __T0Si5WordsVs10CollectionsWP, __T0Si5WordsVs10CollectionsWa, 
                       __T0Si5WordsVs10_IndexablesMA, __T0Si5WordsVs10_IndexablesWP, 
                       __T0Si5WordsVs10_IndexablesWa, __T0Si5WordsVs14_IndexableBasesMA, 
                       __T0Si5WordsVs14_IndexableBasesWP, __T0Si5WordsVs14_IndexableBasesWa, 
                       __T0Si5WordsVs23BidirectionalCollectionsMA, __T0Si5WordsVs23BidirectionalCollectionsWP, 
                       __T0Si5WordsVs23BidirectionalCollectionsWa, __T0Si5WordsVs23_BidirectionalIndexablesWP, 
                       __T0Si5WordsVs23_BidirectionalIndexablesWa, __T0Si5WordsVs8SequencesMA, 
                       __T0Si5WordsVs8SequencesWP, __T0Si5WordsVs8SequencesWa, 
                       __T0Si6encodeys7Encoder_p2to_tKF, __T0Si6signumSiyF, 
                       __T0Si9hashValueSifg, __T0Si9toUIntMaxs6UInt64VyF, 
                       __T0SiMF, __T0SiMa, __T0SiMf, __T0SiMn, __T0SiN, 
                       __T0SiWV, __T0Sis10ComparablesWP, __T0Sis10ComparablesWa, 
                       __T0Sis10MirrorPathsWP, __T0Sis10MirrorPathsWa, 
                       __T0Sis10StrideablesMA, __T0Sis10StrideablesWP, 
                       __T0Sis10StrideablesWa, __T0Sis11_StrideablesMA, 
                       __T0Sis11_StrideablesWP, __T0Sis11_StrideablesWa, 
                       __T0Sis13BinaryIntegersMA, __T0Sis13BinaryIntegersWP, 
                       __T0Sis13BinaryIntegersWa, __T0Sis13SignedIntegersWP, 
                       __T0Sis13SignedIntegersWa, __T0Sis13SignedNumericsWP, 
                       __T0Sis13SignedNumericsWa, __T0Sis17CustomReflectablesWP, 
                       __T0Sis17CustomReflectablesWa, __T0Sis17FixedWidthIntegersWP, 
                       __T0Sis17FixedWidthIntegersWa, __T0Sis18_BitwiseOperationssWP, 
                       __T0Sis18_BitwiseOperationssWa, __T0Sis23CustomStringConvertiblesWP, 
                       __T0Sis23CustomStringConvertiblesWa, __T0Sis25LosslessStringConvertiblesWP, 
                       __T0Sis25LosslessStringConvertiblesWa, __T0Sis27ExpressibleByIntegerLiteralsMA, 
                       __T0Sis27ExpressibleByIntegerLiteralsWP, __T0Sis27ExpressibleByIntegerLiteralsWa, 
                       __T0Sis29CustomPlaygroundQuickLookablesWP, __T0Sis29CustomPlaygroundQuickLookablesWa, 
                       __T0Sis35_ExpressibleByBuiltinIntegerLiteralsWP, 
                       __T0Sis35_ExpressibleByBuiltinIntegerLiteralsWa, 
                       __T0Sis5Error_pIxdzo_SisAA_pIxrzo_TRTA, __T0Sis7CVarArgsWP, 
                       __T0Sis7CVarArgsWa, __T0Sis7NumericsMA, __T0Sis7NumericsWP, 
                       __T0Sis7NumericsWa, __T0Sis8HashablesWP, __T0Sis8HashablesWa, 
                       __T0Sis9DecodablesWP, __T0Sis9DecodablesWa, __T0Sis9EncodablesWP, 
                       __T0Sis9EncodablesWa, __T0Sis9EquatablesWP, __T0Sis9EquatablesWa, 
                       __T0Sp10assignFromySPyxG_Si5counttF, __T0Sp10deallocateySi8capacity_tF, 
                       __T0Sp10initializeySPyxG4from_Si5counttF, __T0Sp10initializeyqd__4from_t7ElementQyd__Rszs10CollectionRd__lF, 
                       __T0Sp10initializeyx2to_Si5counttF, __T0Sp10initializeyx2to_Si5counttFfA0_, 
                       __T0Sp10initializeyx4with_Si5counttF, __T0Sp10initializeyx4with_Si5counttFfA0_, 
                       __T0Sp10initializeyxF, __T0Sp10moveAssignySpyxG4from_Si5counttF, 
                       __T0Sp11predecessorSpyxGyF, __T0Sp12customMirrors0B0Vfg, 
                       __T0Sp12customMirrors0B0VfgTm, __T0Sp12deinitializeSvSi5count_tF, 
                       __T0Sp12deinitializeSvSi5count_tFfA_, __T0Sp14initializeFromySPyxG_Si5counttF, 
                       __T0Sp14initializeFromyqd__s10CollectionRd__lF, 
                       __T0Sp14moveAssignFromySPyxG_Si5counttF, __T0Sp14moveInitializeySpyxG4from_Si5counttF, 
                       __T0Sp16_cVarArgEncodingSaySiGfg, __T0Sp16debugDescriptionSSfg, 
                       __T0Sp17withMemoryReboundqd_0_qd__m2to_Si8capacityqd_0_Spyqd__GKctKr0_lF, 
                       __T0Sp18assignBackwardFromySPyxG_Si5counttF, __T0Sp18deallocateCapacityySiF, 
                       __T0Sp18moveInitializeFromySPyxG_Si5counttF, __T0Sp25customPlaygroundQuickLooks0bcD0Ofg, 
                       __T0Sp26moveInitializeBackwardFromySPyxG_Si5counttF, 
                       __T0Sp4_maxSpyxGfgZ, __T0Sp4movexyF, __T0Sp5allocSpyxGSiFZ, 
                       __T0Sp6assignySPyxG4from_Si5counttF, __T0Sp6memoryxfg, 
                       __T0Sp6memoryxfs, __T0Sp7deallocySiF, __T0Sp7destroyySiF, 
                       __T0Sp7destroyyyF, __T0Sp7summarySSfg, __T0Sp7summarySSfgTm, 
                       __T0Sp8advancedSpyxGSi2by_tF, __T0Sp8allocateSpyxGSi8capacity_tFZ, 
                       __T0Sp8distanceSiSpyxG2to_tF, __T0Sp9hashValueSifg, 
                       __T0Sp9successorSpyxGyF, __T0SpMF, __T0SpMP, __T0SpMa, 
                       __T0SpMn, __T0SpWV, __T0Spy7Elements8SequencePQzGS2is5Error_pIxyydzo_AES2isAF_pIxyyrzo_s23BidirectionalCollectionRzs07MutableE0RzlTRTA, 
                       __T0Spy7Elements8SequencePQzGSis5Error_pIxyyzo_AESiytsAF_pIxyyrzo_s17MutableCollectionRzs012RandomAccessE0RzlTRTA, 
                       __T0Spy7Elements8SequencePQzGSis5Error_pIxyyzo_AESiytsAF_pIxyyrzo_s17MutableCollectionRzs012RandomAccessE0Rzs10ComparableADRQlTRTA, 
                       __T0SpyxGs10ComparableslWP, __T0SpyxGs10ComparableslWa, 
                       __T0SpyxGs10StrideableslMA, __T0SpyxGs10StrideableslWP, 
                       __T0SpyxGs10StrideableslWa, __T0SpyxGs11_StrideableslMA, 
                       __T0SpyxGs11_StrideableslWP, __T0SpyxGs11_StrideableslWa, 
                       __T0SpyxGs17CustomReflectableslWP, __T0SpyxGs17CustomReflectableslWa, 
                       __T0SpyxGs17CustomReflectableslsABP12customMirrors0D0VfgTWTm, 
                       __T0SpyxGs28CustomDebugStringConvertibleslWP, __T0SpyxGs28CustomDebugStringConvertibleslWa, 
                       __T0SpyxGs29CustomPlaygroundQuickLookableslWP, __T0SpyxGs29CustomPlaygroundQuickLookableslWa, 
                       __T0SpyxGs5Error_pIxyzo_AAytsAB_pIxyrzo_r0_lTRTA, 
                       __T0SpyxGs5Error_pIxyzo_AAytsAB_pIxyrzo_s18_HeapBufferHeader_Rzr0_lTRTA, 
                       __T0SpyxGs7CVarArgslWP, __T0SpyxGs7CVarArgslWa, 
                       __T0SpyxGs8HashableslWP, __T0SpyxGs8HashableslWa, 
                       __T0SpyxGs8_PointerslWP, __T0SpyxGs8_PointerslWa, 
                       __T0SpyxGs9EquatableslWP, __T0SpyxGs9EquatableslWa, 
                       __T0Sq12customMirrors0B0Vfg, __T0Sq16debugDescriptionSSfg, 
                       __T0Sq17unsafelyUnwrappedxfg, __T0Sq19_bridgeToObjectiveCyXlyF, 
                       __T0Sq26_forceBridgeFromObjectiveCyyXl_xSgSgz6resulttFZ, 
                       __T0Sq27_unsafelyUnwrappedUncheckedxfg, __T0Sq34_conditionallyBridgeFromObjectiveCSbyXl_xSgSgz6resulttFZ, 
                       __T0Sq36_unconditionallyBridgeFromObjectiveCxSgyXlSgFZ, 
                       __T0Sq3mapqd__Sgqd__xKcKlF, __T0Sq4NonexSgfgZ, __T0Sq4SomexSgxFZ, 
                       __T0Sq6encodeys7Encoder_p2to_tKF, __T0Sq7flatMapqd__SgABxKcKlF, 
                       __T0SqMF, __T0SqMP, __T0SqMa, __T0SqMn, __T0SqWy.15, 
                       __T0SqsSS5IndexVRszlE3zzlois5RangeVyABGABSg_AGtFZ, 
                       __T0SqsSS5IndexVRszlE3zzzois11ClosedRangeVyABGABSg_AGtFZ, 
                       __T0SqxSgs7Decoder_p4from_tKcfC, __T0Sr10initialize8IteratorQyd___Sitqd__4from_t7ElementQyd__Rszs8SequenceRd__lF, 
                       __T0Sr10startIndexSifg, __T0Sr11baseAddressSpyxGSgfg, 
                       __T0Sr12makeIterators019UnsafeBufferPointerB0VyxGyF, 
                       __T0Sr13_copyContentss27UnsafeBufferPointerIteratorVyxG_SitSryxG12initializing_tF, 
                       __T0Sr16debugDescriptionSSfg, __T0Sr16debugDescriptionSSfgTm, 
                       __T0Sr20_failEarlyRangeCheckySi_s0C0VySiG6boundstF, 
                       __T0Sr20_failEarlyRangeCheckys0C0VySiG_AD6boundstF, 
                       __T0Sr5countSifg, __T0Sr5indexS2i5after_tF, __T0Sr5indexS2i6before_tF, 
                       __T0Sr5indexS2i_Si8offsetBytF, __T0Sr5indexSiSgSi_Si8offsetBySi07limitedC0tF, 
                       __T0Sr7indicess14CountableRangeVySiGfg, __T0Sr8distanceS2i4from_Si2totF, 
                       __T0Sr8endIndexSifg, __T0Sr9formIndexySiz5after_tF, 
                       __T0Sr9formIndexySiz6before_tF, __T0Sr9subscripts24MutableRandomAccessSliceVySryxGGs5RangeVySiGcfg, 
                       __T0Sr9subscripts24MutableRandomAccessSliceVySryxGGs5RangeVySiGcfm, 
                       __T0Sr9subscripts24MutableRandomAccessSliceVySryxGGs5RangeVySiGcfs, 
                       __T0Sr9subscriptxSicfg, __T0Sr9subscriptxSicfm, 
                       __T0Sr9subscriptxSicfs, __T0SrMF, __T0SrMP, __T0SrMa, 
                       __T0SrMn, __T0SrWV, __T0SryxGs10Collectionsl11SubSequenceWt, 
                       __T0SryxGs10Collectionsl11SubSequences0C0PWT, __T0SryxGs10Collectionsl11SubSequences14_IndexableBasePWT, 
                       __T0SryxGs10Collectionsl8IteratorWt, __T0SryxGs10CollectionslMA, 
                       __T0SryxGs10CollectionslWG, __T0SryxGs10CollectionslWI, 
                       __T0SryxGs10CollectionslWP, __T0SryxGs10CollectionslWa, 
                       __T0SryxGs10_IndexableslMA, __T0SryxGs10_IndexableslWG, 
                       __T0SryxGs10_IndexableslWI, __T0SryxGs10_IndexableslWP, 
                       __T0SryxGs10_IndexableslWa, __T0SryxGs14_IndexableBasesl11SubSequenceWt, 
                       __T0SryxGs14_IndexableBasesl7ElementWt, __T0SryxGs14_IndexableBaseslMA, 
                       __T0SryxGs14_IndexableBaseslWG, __T0SryxGs14_IndexableBaseslWP, 
                       __T0SryxGs14_IndexableBaseslWa, __T0SryxGs17MutableCollectionsl11SubSequenceWt, 
                       __T0SryxGs17MutableCollectionsl11SubSequences0B0PWT, 
                       __T0SryxGs17MutableCollectionslMA, __T0SryxGs17MutableCollectionslWG, 
                       __T0SryxGs17MutableCollectionslWI, __T0SryxGs17MutableCollectionslWP, 
                       __T0SryxGs17MutableCollectionslWa, __T0SryxGs17_MutableIndexableslWG, 
                       __T0SryxGs17_MutableIndexableslWI, __T0SryxGs17_MutableIndexableslWP, 
                       __T0SryxGs17_MutableIndexableslWa, __T0SryxGs22RandomAccessCollectionsl11SubSequenceWt, 
                       __T0SryxGs22RandomAccessCollectionsl11SubSequences013BidirectionalC0PWT, 
                       __T0SryxGs22RandomAccessCollectionsl11SubSequences01_aB9IndexablePWT, 
                       __T0SryxGs22RandomAccessCollectionslMA, __T0SryxGs22RandomAccessCollectionslWG, 
                       __T0SryxGs22RandomAccessCollectionslWI, __T0SryxGs22RandomAccessCollectionslWP, 
                       __T0SryxGs22RandomAccessCollectionslWa, __T0SryxGs22_RandomAccessIndexableslWG, 
                       __T0SryxGs22_RandomAccessIndexableslWI, __T0SryxGs22_RandomAccessIndexableslWP, 
                       __T0SryxGs22_RandomAccessIndexableslWa, __T0SryxGs23BidirectionalCollectionsl11SubSequenceWt, 
                       __T0SryxGs23BidirectionalCollectionsl11SubSequences01_A9IndexablePWT, 
                       __T0SryxGs23BidirectionalCollectionsl11SubSequences0B0PWT, 
                       __T0SryxGs23BidirectionalCollectionslMA, __T0SryxGs23BidirectionalCollectionslWG, 
                       __T0SryxGs23BidirectionalCollectionslWI, __T0SryxGs23BidirectionalCollectionslWP, 
                       __T0SryxGs23BidirectionalCollectionslWa, __T0SryxGs23_BidirectionalIndexableslWG, 
                       __T0SryxGs23_BidirectionalIndexableslWI, __T0SryxGs23_BidirectionalIndexableslWP, 
                       __T0SryxGs23_BidirectionalIndexableslWa, __T0SryxGs28CustomDebugStringConvertibleslWP, 
                       __T0SryxGs28CustomDebugStringConvertibleslWa, __T0SryxGs8Sequencesl03SubA0Wt, 
                       __T0SryxGs8Sequencesl7ElementWt, __T0SryxGs8Sequencesl8IteratorWt, 
                       __T0SryxGs8Sequencesl8Iterators0B8ProtocolPWT, __T0SryxGs8SequenceslMA, 
                       __T0SryxGs8SequenceslWG, __T0SryxGs8SequenceslWP, 
                       __T0SryxGs8SequenceslWa, __T0SryxGs8SequenceslsABP4drop03SubA0QzSb7ElementQzKc5while_tKFTWTm, 
                       __T0Su11_sizeInBitsSufgZ, __T0Su11byteSwappedSufg, 
                       __T0Su12_sizeInBytesSufgZ, __T0Su12customMirrors0B0Vfg, 
                       __T0Su16_cVarArgEncodingSaySiGfg, __T0Su17dividingFullWidthSu8quotient_Su9remaindertSu4high_Su3lowt_tF, 
                       __T0Su19multipliedFullWidthSu4high_Su3lowtSu2by_tF, 
                       __T0Su25customPlaygroundQuickLooks0bcD0Ofg, __T0Su5WordsV10startIndexSifg, 
                       __T0Su5WordsV5countSifg, __T0Su5WordsV7indicess14CountableRangeVySiGfg, 
                       __T0Su5WordsV8endIndexSifg, __T0Su5WordsV9subscriptSuSicfg, 
                       __T0Su5WordsVABSucfC, __T0Su5WordsVMF, __T0Su5WordsVMa, 
                       __T0Su5WordsVMf, __T0Su5WordsVMn, __T0Su5WordsVN, 
                       __T0Su5WordsVWV, __T0Su5WordsVs10CollectionsMA, 
                       __T0Su5WordsVs10CollectionsWP, __T0Su5WordsVs10CollectionsWa, 
                       __T0Su5WordsVs10_IndexablesMA, __T0Su5WordsVs10_IndexablesWP, 
                       __T0Su5WordsVs10_IndexablesWa, __T0Su5WordsVs14_IndexableBasesMA, 
                       __T0Su5WordsVs14_IndexableBasesWP, __T0Su5WordsVs14_IndexableBasesWa, 
                       __T0Su5WordsVs23BidirectionalCollectionsMA, __T0Su5WordsVs23BidirectionalCollectionsWP, 
                       __T0Su5WordsVs23BidirectionalCollectionsWa, __T0Su5WordsVs23_BidirectionalIndexablesWP, 
                       __T0Su5WordsVs23_BidirectionalIndexablesWa, __T0Su5WordsVs8SequencesMA, 
                       __T0Su5WordsVs8SequencesWP, __T0Su5WordsVs8SequencesWa, 
                       __T0Su6encodeys7Encoder_p2to_tKF, __T0Su6signumSuyF, 
                       __T0Su8toIntMaxs5Int64VyF, __T0Su9hashValueSifg, 
                       __T0SuMF, __T0SuMa, __T0SuMf, __T0SuMn, __T0SuN, 
                       __T0SuWV, __T0Sus10ComparablesWP, __T0Sus10ComparablesWa, 
                       __T0Sus10StrideablesMA, __T0Sus10StrideablesWP, 
                       __T0Sus10StrideablesWa, __T0Sus11_StrideablesMA, 
                       __T0Sus11_StrideablesWP, __T0Sus11_StrideablesWa, 
                       __T0Sus13BinaryIntegersMA, __T0Sus13BinaryIntegersWP, 
                       __T0Sus13BinaryIntegersWa, __T0Sus15UnsignedIntegersWP, 
                       __T0Sus15UnsignedIntegersWa, __T0Sus17CustomReflectablesWP, 
                       __T0Sus17CustomReflectablesWa, __T0Sus17FixedWidthIntegersWP, 
                       __T0Sus17FixedWidthIntegersWa, __T0Sus18_BitwiseOperationssWP, 
                       __T0Sus18_BitwiseOperationssWa, __T0Sus23CustomStringConvertiblesWP, 
                       __T0Sus23CustomStringConvertiblesWa, __T0Sus25LosslessStringConvertiblesWP, 
                       __T0Sus25LosslessStringConvertiblesWa, __T0Sus27ExpressibleByIntegerLiteralsMA, 
                       __T0Sus27ExpressibleByIntegerLiteralsWP, __T0Sus27ExpressibleByIntegerLiteralsWa, 
                       __T0Sus29CustomPlaygroundQuickLookablesWP, __T0Sus29CustomPlaygroundQuickLookablesWa, 
                       __T0Sus35_ExpressibleByBuiltinIntegerLiteralsWP, 
                       __T0Sus35_ExpressibleByBuiltinIntegerLiteralsWa, 
                       __T0Sus7CVarArgsWP, __T0Sus7CVarArgsWa, __T0Sus7NumericsMA, 
                       __T0Sus7NumericsWP, __T0Sus7NumericsWa, __T0Sus8HashablesWP, 
                       __T0Sus8HashablesWa, __T0Sus9DecodablesWP, __T0Sus9DecodablesWa, 
                       __T0Sus9EncodablesWP, __T0Sus9EncodablesWa, __T0Sus9EquatablesWP, 
                       __T0Sus9EquatablesWa, __T0Sv10deallocateySi5bytes_Si9alignedTotF, 
                       __T0Sv10storeBytesyx2of_Si12toByteOffsetxm2astlF, 
                       __T0Sv10storeBytesyx2of_Si12toByteOffsetxm2astlFfA0_, 
                       __T0Sv12customMirrors0B0Vfg, __T0Sv12customMirrors0B0VfgTm, 
                       __T0Sv16debugDescriptionSSfg, __T0Sv16initializeMemorySpy7ElementQzGACm2as_x4fromts10CollectionRzlF, 
                       __T0Sv16initializeMemorySpyxGxm2as_SPyxG4fromSi5counttlF, 
                       __T0Sv16initializeMemorySpyxGxm2as_Si2atSi5countx2totlF, 
                       __T0Sv16initializeMemorySpyxGxm2as_Si2atSi5countx2totlFfA0_, 
                       __T0Sv16initializeMemorySpyxGxm2as_Si2atSi5countx2totlFfA1_, 
                       __T0Sv20moveInitializeMemorySpyxGxm2as_AB4fromSi5counttlF, 
                       __T0Sv25customPlaygroundQuickLooks0bcD0Ofg, __T0Sv4loadxSi14fromByteOffset_xm2astlF, 
                       __T0Sv4loadxSi14fromByteOffset_xm2astlFfA_, __T0Sv7summarySSfg, 
                       __T0Sv7summarySSfgTm, __T0Sv8advancedSvSi2by_tF, 
                       __T0Sv8allocateSvSi5bytes_Si9alignedTotFZ, __T0Sv8distanceSiSv2to_tF, 
                       __T0Sv9copyBytesySV4from_Si5counttF, __T0Sv9hashValueSifg, 
                       __T0SvMF, __T0SvMa, __T0SvMf, __T0SvMn, __T0SvN, 
                       __T0SvWV, __T0Svs10ComparablesWP, __T0Svs10ComparablesWa, 
                       __T0Svs10StrideablesMA, __T0Svs10StrideablesWP, 
                       __T0Svs10StrideablesWa, __T0Svs11_StrideablesMA, 
                       __T0Svs11_StrideablesWP, __T0Svs11_StrideablesWa, 
                       __T0Svs17CustomReflectablesWP, __T0Svs17CustomReflectablesWa, 
                       __T0Svs17CustomReflectablessAAP12customMirrors0D0VfgTWTm, 
                       __T0Svs28CustomDebugStringConvertiblesWP, __T0Svs28CustomDebugStringConvertiblesWa, 
                       __T0Svs29CustomPlaygroundQuickLookablesWP, __T0Svs29CustomPlaygroundQuickLookablesWa, 
                       __T0Svs8HashablesWP, __T0Svs8HashablesWa, __T0Svs8_PointersWP, 
                       __T0Svs8_PointersWa, __T0Svs9EquatablesWP, __T0Svs9EquatablesWa, 
                       __T0s018_bridgeAnyObjectToB0ypyXlSgF, __T0s019_cocoaStringToSwiftB9_NonASCIISSyXlFTfq4g_n, 
                       __T0s10AnyKeyPathC04_kvcbC6StringSSSgfg, __T0s10AnyKeyPathC04_kvcbC9StringPtrSPys4Int8VGSgvWvd, 
                       __T0s10AnyKeyPathC17_rootAndValueTypeypXp0D0_ypXp5valuetfgZ, 
                       __T0s10AnyKeyPathC2eeoiSbAB_ABtFZ, __T0s10AnyKeyPathC7_createABXDSi15capacityInBytes_ys29UnsafeMutableRawBufferPointerVc13initializedBytFZ, 
                       __T0s10AnyKeyPathC8rootTypeypXpfgZ, __T0s10AnyKeyPathC9hashValueSifg, 
                       __T0s10AnyKeyPathC9hashValueSifgys0bC6BufferVcfU_, 
                       __T0s10AnyKeyPathC9valueTypeypXpfgZ, __T0s10AnyKeyPathCMF, 
                       __T0s10AnyKeyPathCML, __T0s10AnyKeyPathCMa, __T0s10AnyKeyPathCMf, 
                       __T0s10AnyKeyPathCMm, __T0s10AnyKeyPathCMn, __T0s10AnyKeyPathCN, 
                       __T0s10AnyKeyPathCfD, __T0s10AnyKeyPathCfd, __T0s10AnyKeyPathCs07_AppendbC0sWP, 
                       __T0s10AnyKeyPathCs07_AppendbC0sWa, __T0s10AnyKeyPathCs8HashablesWP, 
                       __T0s10AnyKeyPathCs8HashablesWa, __T0s10AnyKeyPathCs9EquatablesWP, 
                       __T0s10AnyKeyPathCs9EquatablesWa, __T0s10ArraySliceV017_copyToContiguousA0s0eA0VyxGyF, 
                       __T0s10ArraySliceV034_makeUniqueAndReserveCapacityIfNotD0yyF, 
                       __T0s10ArraySliceV10startIndexSifg, __T0s10ArraySliceV11_checkIndexySiF, 
                       __T0s10ArraySliceV11_copyBufferys01_bD0VyxGzFZ, 
                       __T0s10ArraySliceV11_getElementxSi_Sb20wasNativeTypeCheckeds16_DependenceTokenV22matchingSubscriptChecktF, 
                       __T0s10ArraySliceV11descriptionSSfg, __T0s10ArraySliceV12_baseAddressSpyxGfg, 
                       __T0s10ArraySliceV12_getCapacitySiyF, __T0s10ArraySliceV12customMirrors0D0Vfg, 
                       __T0s10ArraySliceV12replaceRangeys0D0VySiG_qd__4witht7ElementQyd__Rszs10CollectionRd__lF, 
                       __T0s10ArraySliceV13_copyContentss16IndexingIteratorVyAByxGG_SitSryxG12initializing_tF, 
                       __T0s10ArraySliceV13removeAtIndexxSiF, __T0s10ArraySliceV15_checkSubscripts16_DependenceTokenVSi_Sb20wasNativeTypeCheckedtF, 
                       __T0s10ArraySliceV15replaceSubrangeys5RangeVySiG_qd__4witht7ElementQyd__Rszs10CollectionRd__lF, 
                       __T0s10ArraySliceV15reserveCapacityySiF, __T0s10ArraySliceV15withUnsafeBytesqd__qd__s0D16RawBufferPointerVKcKlF, 
                       __T0s10ArraySliceV16_copyToNewBufferySi8oldCount_tF, 
                       __T0s10ArraySliceV16_getOwner_nativeBoyF, __T0s10ArraySliceV16_makeDescriptionSSSb7isDebug_tF, 
                       __T0s10ArraySliceV16appendContentsOfyqd__7ElementQyd__Rszs8SequenceRd__lF, 
                       __T0s10ArraySliceV16debugDescriptionSSfg, __T0s10ArraySliceV17_customRemoveLastxSgyF, 
                       __T0s10ArraySliceV18_getElementAddressSpyxGSiF, 
                       __T0s10ArraySliceV20_failEarlyRangeCheckySi_s0E0VySiG6boundstF, 
                       __T0s10ArraySliceV20_failEarlyRangeCheckys0E0VySiG_AF6boundstF, 
                       __T0s10ArraySliceV21_makeMutableAndUniqueyyF, __T0s10ArraySliceV22_allocateUninitializedAByxG_SpyxGtSiFZ, 
                       __T0s10ArraySliceV22_checkSubscript_nativeySiF, 
                       __T0s10ArraySliceV22withUnsafeMutableBytesqd__qd__s0dE16RawBufferPointerVKcKlF, 
                       __T0s10ArraySliceV22withUnsafeMutableBytesqd__qd__s0dE16RawBufferPointerVKcKlFqd__SryxGzKcfU_TA, 
                       __T0s10ArraySliceV23withUnsafeBufferPointerqd__qd__SRyxGKcKlF, 
                       __T0s10ArraySliceV24_baseAddressIfContiguousSpyxGSgfg, 
                       __T0s10ArraySliceV24reserveCapacityForAppendySi16newElementsCount_tF, 
                       __T0s10ArraySliceV28_allocateBufferUninitializeds01_bD0VyxGSi15minimumCapacity_tFZ, 
                       __T0s10ArraySliceV29_hoistableIsNativeTypeCheckedSbyF, 
                       __T0s10ArraySliceV29_makeMutableAndUniqueOrPinnedyyF, 
                       __T0s10ArraySliceV30withUnsafeMutableBufferPointerqd__qd__SryxGzKcKlF, 
                       __T0s10ArraySliceV33_getOwnerWithSemanticLabel_nativeBoyF, 
                       __T0s10ArraySliceV36_reserveCapacityAssumingUniqueBufferySi8oldCount_tF, 
                       __T0s10ArraySliceV37_appendElementAssumeUniqueAndCapacityySi_x03newD0tF, 
                       __T0s10ArraySliceV42_withUnsafeMutableBufferPointerIfSupportedqd__Sgqd__SpyxG_SitKcKlF, 
                       __T0s10ArraySliceV42_withUnsafeMutableBufferPointerIfSupportedqd__Sgqd__SpyxG_SitKcKlFqd__SryxGzKcfU_TA, 
                       __T0s10ArraySliceV5countSifg, __T0s10ArraySliceV5indexS2i5after_tF, 
                       __T0s10ArraySliceV5indexS2i6before_tF, __T0s10ArraySliceV5indexS2i_Si8offsetBytF, 
                       __T0s10ArraySliceV5indexSiSgSi_Si8offsetBySi07limitedE0tF, 
                       __T0s10ArraySliceV6_owneryXlSgfg, __T0s10ArraySliceV6appendyqd__10contentsOf_t7ElementQyd__Rszs8SequenceRd__lF, 
                       __T0s10ArraySliceV6appendyxF, __T0s10ArraySliceV6insertyx_Si2attF, 
                       __T0s10ArraySliceV6removexSi2at_tF, __T0s10ArraySliceV7_buffers01_B6BufferVyxGfg, 
                       __T0s10ArraySliceV8capacitySifg, __T0s10ArraySliceV8distanceS2i4from_Si2totF, 
                       __T0s10ArraySliceV8endIndexSifg, __T0s10ArraySliceV9_getCountSiyF, 
                       __T0s10ArraySliceV9formIndexySiz5after_tF, __T0s10ArraySliceV9formIndexySiz6before_tF, 
                       __T0s10ArraySliceV9removeAllySb15keepingCapacity_tF, 
                       __T0s10ArraySliceV9removeAllySb15keepingCapacity_tFfA_, 
                       __T0s10ArraySliceV9subscriptAByxGs5RangeVySiGcfg, 
                       __T0s10ArraySliceV9subscriptAByxGs5RangeVySiGcfm, 
                       __T0s10ArraySliceV9subscriptAByxGs5RangeVySiGcfs, 
                       __T0s10ArraySliceV9subscriptxSicfaP, __T0s10ArraySliceV9subscriptxSicfg, 
                       __T0s10ArraySliceV9subscriptxSicfm, __T0s10ArraySliceV9subscriptxSicfs, 
                       __T0s10ArraySliceVAByxGSayxG12arrayLiterald_tcfC, 
                       __T0s10ArraySliceVAByxGSi11_startIndex_tcfC, __T0s10ArraySliceVAByxGSi19_uninitializedCount_tcfC, 
                       __T0s10ArraySliceVAByxGqd__c7ElementQyd__Rszs8SequenceRd__lufC, 
                       __T0s10ArraySliceVAByxGs011_ContiguousA6BufferVyxG7_buffer_tcfC, 
                       __T0s10ArraySliceVAByxGs01_B6BufferVyxG7_buffer_tcfC, 
                       __T0s10ArraySliceVAByxGx9repeating_Si5counttcfC, 
                       __T0s10ArraySliceVAByxGycfC, __T0s10ArraySliceVMF, 
                       __T0s10ArraySliceVMP, __T0s10ArraySliceVMa, __T0s10ArraySliceVMn, 
                       __T0s10ArraySliceVWV, __T0s10ArraySliceVyxGs013ExpressibleByA7Literalsl0aE7ElementWt, 
                       __T0s10ArraySliceVyxGs013ExpressibleByA7LiteralslMA, 
                       __T0s10ArraySliceVyxGs013ExpressibleByA7LiteralslWP, 
                       __T0s10ArraySliceVyxGs013ExpressibleByA7LiteralslWa, 
                       __T0s10ArraySliceVyxGs01_A8Protocolsl7_BufferWt, 
                       __T0s10ArraySliceVyxGs01_A8Protocolsl7_Buffers01_adC0PWT, 
                       __T0s10ArraySliceVyxGs01_A8ProtocolslMA, __T0s10ArraySliceVyxGs01_A8ProtocolslWG, 
                       __T0s10ArraySliceVyxGs01_A8ProtocolslWI, __T0s10ArraySliceVyxGs01_A8ProtocolslWP, 
                       __T0s10ArraySliceVyxGs01_A8ProtocolslWa, __T0s10ArraySliceVyxGs10Collectionsl11SubSequenceWt, 
                       __T0s10ArraySliceVyxGs10Collectionsl11SubSequences0E0PWT, 
                       __T0s10ArraySliceVyxGs10Collectionsl11SubSequences14_IndexableBasePWT, 
                       __T0s10ArraySliceVyxGs10Collectionsl8IteratorWt, 
                       __T0s10ArraySliceVyxGs10CollectionslMA, __T0s10ArraySliceVyxGs10CollectionslWG, 
                       __T0s10ArraySliceVyxGs10CollectionslWI, __T0s10ArraySliceVyxGs10CollectionslWP, 
                       __T0s10ArraySliceVyxGs10CollectionslWa, __T0s10ArraySliceVyxGs10CollectionslsADP6prefix11SubSequenceQz5IndexQz4upTo_tFTWTm, 
                       __T0s10ArraySliceVyxGs10_IndexableslMA, __T0s10ArraySliceVyxGs10_IndexableslWG, 
                       __T0s10ArraySliceVyxGs10_IndexableslWI, __T0s10ArraySliceVyxGs10_IndexableslWP, 
                       __T0s10ArraySliceVyxGs10_IndexableslWa, __T0s10ArraySliceVyxGs14_IndexableBasesl11SubSequenceWt, 
                       __T0s10ArraySliceVyxGs14_IndexableBasesl7ElementWt, 
                       __T0s10ArraySliceVyxGs14_IndexableBaseslMA, __T0s10ArraySliceVyxGs14_IndexableBaseslWG, 
                       __T0s10ArraySliceVyxGs14_IndexableBaseslWP, __T0s10ArraySliceVyxGs14_IndexableBaseslWa, 
                       __T0s10ArraySliceVyxGs17CustomReflectableslWP, __T0s10ArraySliceVyxGs17CustomReflectableslWa, 
                       __T0s10ArraySliceVyxGs17MutableCollectionsl11SubSequenceWt, 
                       __T0s10ArraySliceVyxGs17MutableCollectionsl11SubSequences0D0PWT, 
                       __T0s10ArraySliceVyxGs17MutableCollectionslMA, __T0s10ArraySliceVyxGs17MutableCollectionslWG, 
                       __T0s10ArraySliceVyxGs17MutableCollectionslWI, __T0s10ArraySliceVyxGs17MutableCollectionslWP, 
                       __T0s10ArraySliceVyxGs17MutableCollectionslWa, __T0s10ArraySliceVyxGs17_MutableIndexableslWG, 
                       __T0s10ArraySliceVyxGs17_MutableIndexableslWI, __T0s10ArraySliceVyxGs17_MutableIndexableslWP, 
                       __T0s10ArraySliceVyxGs17_MutableIndexableslWa, __T0s10ArraySliceVyxGs22RandomAccessCollectionsl11SubSequenceWt, 
                       __T0s10ArraySliceVyxGs22RandomAccessCollectionsl11SubSequences013BidirectionalE0PWT, 
                       __T0s10ArraySliceVyxGs22RandomAccessCollectionsl11SubSequences01_cD9IndexablePWT, 
                       __T0s10ArraySliceVyxGs22RandomAccessCollectionslMA, 
                       __T0s10ArraySliceVyxGs22RandomAccessCollectionslWG, 
                       __T0s10ArraySliceVyxGs22RandomAccessCollectionslWI, 
                       __T0s10ArraySliceVyxGs22RandomAccessCollectionslWP, 
                       __T0s10ArraySliceVyxGs22RandomAccessCollectionslWa, 
                       __T0s10ArraySliceVyxGs22_RandomAccessIndexableslWG, 
                       __T0s10ArraySliceVyxGs22_RandomAccessIndexableslWI, 
                       __T0s10ArraySliceVyxGs22_RandomAccessIndexableslWP, 
                       __T0s10ArraySliceVyxGs22_RandomAccessIndexableslWa, 
                       __T0s10ArraySliceVyxGs23BidirectionalCollectionsl11SubSequenceWt, 
                       __T0s10ArraySliceVyxGs23BidirectionalCollectionsl11SubSequences01_C9IndexablePWT, 
                       __T0s10ArraySliceVyxGs23BidirectionalCollectionsl11SubSequences0D0PWT, 
                       __T0s10ArraySliceVyxGs23BidirectionalCollectionslMA, 
                       __T0s10ArraySliceVyxGs23BidirectionalCollectionslWG, 
                       __T0s10ArraySliceVyxGs23BidirectionalCollectionslWI, 
                       __T0s10ArraySliceVyxGs23BidirectionalCollectionslWP, 
                       __T0s10ArraySliceVyxGs23BidirectionalCollectionslWa, 
                       __T0s10ArraySliceVyxGs23BidirectionalCollectionslsADP4last7ElementQzSgfgTWTm, 
                       __T0s10ArraySliceVyxGs23CustomStringConvertibleslWP, 
                       __T0s10ArraySliceVyxGs23CustomStringConvertibleslWa, 
                       __T0s10ArraySliceVyxGs23_BidirectionalIndexableslWG, 
                       __T0s10ArraySliceVyxGs23_BidirectionalIndexableslWI, 
                       __T0s10ArraySliceVyxGs23_BidirectionalIndexableslWP, 
                       __T0s10ArraySliceVyxGs23_BidirectionalIndexableslWa, 
                       __T0s10ArraySliceVyxGs24_DestructorSafeContainerslWP, 
                       __T0s10ArraySliceVyxGs24_DestructorSafeContainerslWa, 
                       __T0s10ArraySliceVyxGs26RangeReplaceableCollectionsl11SubSequenceWt, 
                       __T0s10ArraySliceVyxGs26RangeReplaceableCollectionsl11SubSequences01_cD9IndexablePWT, 
                       __T0s10ArraySliceVyxGs26RangeReplaceableCollectionslMA, 
                       __T0s10ArraySliceVyxGs26RangeReplaceableCollectionslWG, 
                       __T0s10ArraySliceVyxGs26RangeReplaceableCollectionslWI, 
                       __T0s10ArraySliceVyxGs26RangeReplaceableCollectionslWP, 
                       __T0s10ArraySliceVyxGs26RangeReplaceableCollectionslWa, 
                       __T0s10ArraySliceVyxGs26_RangeReplaceableIndexableslWG, 
                       __T0s10ArraySliceVyxGs26_RangeReplaceableIndexableslWI, 
                       __T0s10ArraySliceVyxGs26_RangeReplaceableIndexableslWP, 
                       __T0s10ArraySliceVyxGs26_RangeReplaceableIndexableslWa, 
                       __T0s10ArraySliceVyxGs28CustomDebugStringConvertibleslWP, 
                       __T0s10ArraySliceVyxGs28CustomDebugStringConvertibleslWa, 
                       __T0s10ArraySliceVyxGs8Sequencesl03SubC0Wt, __T0s10ArraySliceVyxGs8Sequencesl7ElementWt, 
                       __T0s10ArraySliceVyxGs8Sequencesl8IteratorWt, __T0s10ArraySliceVyxGs8Sequencesl8Iterators0D8ProtocolPWT, 
                       __T0s10ArraySliceVyxGs8SequenceslMA, __T0s10ArraySliceVyxGs8SequenceslWG, 
                       __T0s10ArraySliceVyxGs8SequenceslWP, __T0s10ArraySliceVyxGs8SequenceslWa, 
                       __T0s10ArraySliceVyxGs8SequenceslsADP4drop03SubC0QzSb7ElementQzKc5while_tKFTWTm, 
                       __T0s10ArraySliceVyxGs8SequenceslsADP9dropFirst03SubC0QzSiFTWTm, 
                       __T0s10CollectionMp, __T0s10CollectionPsE18_preprocessingPassqd__Sgqd__yKcKlF, 
                       __T0s10CollectionPsE18underestimateCountSiyF, __T0s10CollectionPsE19underestimatedCountSifg, 
                       __T0s10CollectionPsE22_copyToContiguousArrays0dE0Vy7ElementQzGyF, 
                       __T0s10CollectionPsE30_customIndexOfEquatableElement0C0QzSgSg0F0QzF, 
                       __T0s10CollectionPsE3mapSayqd__Gqd__7ElementQzKcKlF, 
                       __T0s10CollectionPsE4drop11SubSequenceQzSb7ElementQzKc5while_tKF, 
                       __T0s10CollectionPsE4lazys04LazyA0VyxGfg, __T0s10CollectionPsE5count13IndexDistanceQzfg, 
                       __T0s10CollectionPsE5first7ElementQzSgfg, __T0s10CollectionPsE5index5IndexQzSgSb7ElementQzKc5where_tKF, 
                       __T0s10CollectionPsE5splitSay11SubSequenceQzGSi9maxSplits_Sb25omittingEmptySubsequencesSb7ElementQzKc14whereSeparatortKF, 
                       __T0s10CollectionPsE5splitSay11SubSequenceQzGSi9maxSplits_Sb25omittingEmptySubsequencesSb7ElementQzKc14whereSeparatortKF17appendSubsequenceL_Sb5IndexQz3end_tsAARzlFSi5WordsV_Tgq5Tfq4ngngg_nTm, 
                       __T0s10CollectionPsE5splitSay11SubSequenceQzGSi9maxSplits_Sb25omittingEmptySubsequencesSb7ElementQzKc14whereSeparatortKF17appendSubsequenceL_Sb5IndexQz3end_tsAARzlFs22UnsafeRawBufferPointerV_Tgq5Tfq4ngngg_nTm, 
                       __T0s10CollectionPsE5splitSay11SubSequenceQzGSi9maxSplits_Sb25omittingEmptySubsequencesSb7ElementQzKc14whereSeparatortKF17appendSubsequenceL_Sb5IndexQz3end_tsAARzlFs4Int8V5WordsV_Tgq5Tfq4ngngg_nTm, 
                       __T0s10CollectionPsE5splitSay11SubSequenceQzGSi9maxSplits_Sb25omittingEmptySubsequencesSb7ElementQzKc14whereSeparatortKF17appendSubsequenceL_Sb5IndexQz3end_tsAARzlFs5Int16V5WordsV_Tgq5Tfq4ngngg_nTm, 
                       __T0s10CollectionPsE5splitSay11SubSequenceQzGSi9maxSplits_Sb25omittingEmptySubsequencesSb7ElementQzKc14whereSeparatortKF17appendSubsequenceL_Sb5IndexQz3end_tsAARzlFs9SubstringV13CharacterViewV_Tgq5Tfq4xgngg_nTm, 
                       __T0s10CollectionPsE5splitSay11SubSequenceQzGSi9maxSplits_Sb25omittingEmptySubsequencesSb7ElementQzKc14whereSeparatortKFSi5WordsV_Tgq5Tfq4nngn_nTm, 
                       __T0s10CollectionPsE5splitSay11SubSequenceQzGSi9maxSplits_Sb25omittingEmptySubsequencesSb7ElementQzKc14whereSeparatortKFfA0_, 
                       __T0s10CollectionPsE5splitSay11SubSequenceQzGSi9maxSplits_Sb25omittingEmptySubsequencesSb7ElementQzKc14whereSeparatortKFfA_, 
                       __T0s10CollectionPsE5splitSay11SubSequenceQzGSi9maxSplits_Sb25omittingEmptySubsequencesSb7ElementQzKc14whereSeparatortKFs22UnsafeRawBufferPointerV_Tgq5Tfq4nngn_nTm, 
                       __T0s10CollectionPsE5splitSay11SubSequenceQzGSi_Sb16allowEmptySlicesSb7ElementQzKc14whereSeparatortKF, 
                       __T0s10CollectionPsE5splitSay11SubSequenceQzGSi_Sb16allowEmptySlicesSb7ElementQzKc14whereSeparatortKFfA0_, 
                       __T0s10CollectionPsE5splitSay11SubSequenceQzGSi_Sb16allowEmptySlicesSb7ElementQzKc14whereSeparatortKFfA_, 
                       __T0s10CollectionPsE6prefix11SubSequenceQz5IndexQz4upTo_tF, 
                       __T0s10CollectionPsE6prefix11SubSequenceQz5IndexQz7through_tF, 
                       __T0s10CollectionPsE6prefix11SubSequenceQz5IndexQz7through_tFs29UnsafeMutableRawBufferPointerV_Tgq5Tm, 
                       __T0s10CollectionPsE6prefix11SubSequenceQzSb7ElementQzKc5while_tKF, 
                       __T0s10CollectionPsE6prefix11SubSequenceQzSiF, __T0s10CollectionPsE6prefix11SubSequenceQzSiFs22UnsafeRawBufferPointerV_Tgq5Tm, 
                       __T0s10CollectionPsE6suffix11SubSequenceQz5IndexQz4from_tF, 
                       __T0s10CollectionPsE6suffix11SubSequenceQzSiF, __T0s10CollectionPsE7flatMapSaySSGSSSg7ElementQzKcKF, 
                       __T0s10CollectionPsE7indexOf5IndexQzSgSb7ElementQzKcKF, 
                       __T0s10CollectionPsE7isEmptySbfg, __T0s10CollectionPsE8dropLast11SubSequenceQzSiF, 
                       __T0s10CollectionPsE8generate8IteratorQzyF, __T0s10CollectionPsE9dropFirst11SubSequenceQzSiF, 
                       __T0s10CollectionPsE9dropFirst11SubSequenceQzSiFs22UnsafeRawBufferPointerV_Tgq5Tm, 
                       __T0s10CollectionPss04LazyA8ProtocolRzlE4lazyxfg, 
                       __T0s10CollectionPssAARz11SubSequenceQzRszlE11removeFirst7ElementQzyF, 
                       __T0s10CollectionPssAARz11SubSequenceQzRszlE11removeFirstySiF, 
                       __T0s10CollectionPssAARz11SubSequenceQzRszlE8popFirst7ElementQzSgyF, 
                       __T0s10CollectionPssAARzs14DefaultIndicesVyxG0C0RtzlE7indicesAEfg, 
                       __T0s10CollectionPssAARzs16IndexingIteratorVyxG0C0RtzlE04makeC0AEyF, 
                       __T0s10CollectionPssAARzs5SliceVyxG11SubSequenceRtzlE9subscriptAEs5RangeVy5IndexQzGcfg, 
                       __T0s10CollectionPssAARzs9Equatable7ElementRpzlE5index5IndexQzSgAE2of_tF, 
                       __T0s10CollectionPssAARzs9Equatable7ElementRpzlE5splitSay11SubSequenceQzGAE9separator_Si9maxSplitsSb25omittingEmptySubsequencestF, 
                       __T0s10CollectionPssAARzs9Equatable7ElementRpzlE5splitSay11SubSequenceQzGAE9separator_Si9maxSplitsSb25omittingEmptySubsequencestFSbAEcfU_TA, 
                       __T0s10CollectionPssAARzs9Equatable7ElementRpzlE5splitSay11SubSequenceQzGAE9separator_Si9maxSplitsSb25omittingEmptySubsequencestFfA0_, 
                       __T0s10CollectionPssAARzs9Equatable7ElementRpzlE5splitSay11SubSequenceQzGAE9separator_Si9maxSplitsSb25omittingEmptySubsequencestFfA1_, 
                       __T0s10CollectionPssAARzs9Equatable7ElementRpzlE5splitSay11SubSequenceQzGAE_Si8maxSplitSb16allowEmptySlicestF, 
                       __T0s10CollectionPssAARzs9Equatable7ElementRpzlE5splitSay11SubSequenceQzGAE_Si8maxSplitSb16allowEmptySlicestFfA0_, 
                       __T0s10CollectionPssAARzs9Equatable7ElementRpzlE5splitSay11SubSequenceQzGAE_Si8maxSplitSb16allowEmptySlicestFfA1_, 
                       __T0s10CollectionPssAARzs9Equatable7ElementRpzlE7indexOf5IndexQzSgAEF, 
                       __T0s10CollectionPssAARzsAA7ElementRpzlE6joineds07FlattenA0VyxGyF, 
                       __T0s10CollectionPssAARzsAA7ElementRpzlE7flattens07FlattenA0VyxGyF, 
                       __T0s10Collection_pMF, __T0s10ComparableMp, __T0s10ComparablePsE1goiSbx_xtFZ, 
                       __T0s10ComparablePsE2geoiSbx_xtFZ, __T0s10ComparablePsE2leoiSbx_xtFZ, 
                       __T0s10Comparable_pMF, __T0s10DictionaryV10startIndexAB0C0Vyxq__Gfg, 
                       __T0s10DictionaryV11descriptionSSfg, __T0s10DictionaryV11indexForKeyAB5IndexVyxq__GSgxF, 
                       __T0s10DictionaryV11removeValueq_Sgx6forKey_tF, 
                       __T0s10DictionaryV11updateValueq_Sgq__x6forKeytF, 
                       __T0s10DictionaryV12customMirrors0C0Vfg, __T0s10DictionaryV12makeIterators0aC0Vyxq_GyF, 
                       __T0s10DictionaryV13removeAtIndexx3key_q_5valuetAB0D0Vyxq__GF, 
                       __T0s10DictionaryV15reserveCapacityySiF, __T0s10DictionaryV16_makeDescriptionSSyF, 
                       __T0s10DictionaryV16debugDescriptionSSfg, __T0s10DictionaryV17removeValueForKeyq_SgxF, 
                       __T0s10DictionaryV23_bridgeToObjectiveCImpls17_NSDictionaryCore_pyF, 
                       __T0s10DictionaryV44_bridgeFromObjectiveCAdoptingNativeStorageOfAByxq_GSgyXlFZ, 
                       __T0s10DictionaryV4KeysV10startIndexAB0D0Vyxq__Gfg, 
                       __T0s10DictionaryV4KeysV2eeoiSbADyxq__G_AFtFZ, __T0s10DictionaryV4KeysV30_customIndexOfEquatableElementAB0D0Vyxq__GSgSgxF, 
                       __T0s10DictionaryV4KeysV31_customContainsEquatableElementSbSgxF, 
                       __T0s10DictionaryV4KeysV5countSifg, __T0s10DictionaryV4KeysV5indexAB5IndexVyxq__GAH5after_tF, 
                       __T0s10DictionaryV4KeysV7isEmptySbfg, __T0s10DictionaryV4KeysV8endIndexAB0D0Vyxq__Gfg, 
                       __T0s10DictionaryV4KeysV9subscriptxAB5IndexVyxq__Gcfg, 
                       __T0s10DictionaryV4KeysVMF, __T0s10DictionaryV4KeysVMP, 
                       __T0s10DictionaryV4KeysVMa, __T0s10DictionaryV4KeysVMn, 
                       __T0s10DictionaryV4KeysVWV, __T0s10DictionaryV4KeysVyxq__Gs10Collectionss8HashableRzr0_l11SubSequenceWt, 
                       __T0s10DictionaryV4KeysVyxq__Gs10Collectionss8HashableRzr0_l11SubSequences0F0PWT, 
                       __T0s10DictionaryV4KeysVyxq__Gs10Collectionss8HashableRzr0_l11SubSequences14_IndexableBasePWT, 
                       __T0s10DictionaryV4KeysVyxq__Gs10Collectionss8HashableRzr0_l7IndicesWt, 
                       __T0s10DictionaryV4KeysVyxq__Gs10Collectionss8HashableRzr0_l7Indicess10_IndexablePWT, 
                       __T0s10DictionaryV4KeysVyxq__Gs10Collectionss8HashableRzr0_l7Indicess8SequencePWT, 
                       __T0s10DictionaryV4KeysVyxq__Gs10Collectionss8HashableRzr0_l8IteratorWt, 
                       __T0s10DictionaryV4KeysVyxq__Gs10Collectionss8HashableRzr0_lMA, 
                       __T0s10DictionaryV4KeysVyxq__Gs10Collectionss8HashableRzr0_lWG, 
                       __T0s10DictionaryV4KeysVyxq__Gs10Collectionss8HashableRzr0_lWI, 
                       __T0s10DictionaryV4KeysVyxq__Gs10Collectionss8HashableRzr0_lWP, 
                       __T0s10DictionaryV4KeysVyxq__Gs10Collectionss8HashableRzr0_lWa, 
                       __T0s10DictionaryV4KeysVyxq__Gs10Collectionss8HashableRzr0_lsAFP9subscript7ElementQz5IndexQzcfgTWTm, 
                       __T0s10DictionaryV4KeysVyxq__Gs10_Indexabless8HashableRzr0_lMA, 
                       __T0s10DictionaryV4KeysVyxq__Gs10_Indexabless8HashableRzr0_lWG, 
                       __T0s10DictionaryV4KeysVyxq__Gs10_Indexabless8HashableRzr0_lWI, 
                       __T0s10DictionaryV4KeysVyxq__Gs10_Indexabless8HashableRzr0_lWP, 
                       __T0s10DictionaryV4KeysVyxq__Gs10_Indexabless8HashableRzr0_lWa, 
                       __T0s10DictionaryV4KeysVyxq__Gs14_IndexableBasess8HashableRzr0_l11SubSequenceWt, 
                       __T0s10DictionaryV4KeysVyxq__Gs14_IndexableBasess8HashableRzr0_l5IndexWt, 
                       __T0s10DictionaryV4KeysVyxq__Gs14_IndexableBasess8HashableRzr0_l5Indexs10ComparablePWT, 
                       __T0s10DictionaryV4KeysVyxq__Gs14_IndexableBasess8HashableRzr0_l7ElementWt, 
                       __T0s10DictionaryV4KeysVyxq__Gs14_IndexableBasess8HashableRzr0_lMA, 
                       __T0s10DictionaryV4KeysVyxq__Gs14_IndexableBasess8HashableRzr0_lWG, 
                       __T0s10DictionaryV4KeysVyxq__Gs14_IndexableBasess8HashableRzr0_lWP, 
                       __T0s10DictionaryV4KeysVyxq__Gs14_IndexableBasess8HashableRzr0_lWa, 
                       __T0s10DictionaryV4KeysVyxq__Gs14_IndexableBasess8HashableRzr0_lsAFP10startIndex0G0QzfgTWTm, 
                       __T0s10DictionaryV4KeysVyxq__Gs8Sequencess8HashableRzr0_l03SubC0Wt, 
                       __T0s10DictionaryV4KeysVyxq__Gs8Sequencess8HashableRzr0_l7ElementWt, 
                       __T0s10DictionaryV4KeysVyxq__Gs8Sequencess8HashableRzr0_l8IteratorWt, 
                       __T0s10DictionaryV4KeysVyxq__Gs8Sequencess8HashableRzr0_l8Iterators0E8ProtocolPWT, 
                       __T0s10DictionaryV4KeysVyxq__Gs8Sequencess8HashableRzr0_lMA, 
                       __T0s10DictionaryV4KeysVyxq__Gs8Sequencess8HashableRzr0_lWG, 
                       __T0s10DictionaryV4KeysVyxq__Gs8Sequencess8HashableRzr0_lWP, 
                       __T0s10DictionaryV4KeysVyxq__Gs8Sequencess8HashableRzr0_lWa, 
                       __T0s10DictionaryV4KeysVyxq__Gs8Sequencess8HashableRzr0_lsAFP6filterSay7ElementQzGSbAKKcKFTWTm, 
                       __T0s10DictionaryV4KeysVyxq__Gs9Equatabless8HashableRzr0_lWP, 
                       __T0s10DictionaryV4KeysVyxq__Gs9Equatabless8HashableRzr0_lWa, 
                       __T0s10DictionaryV4keysAB4KeysVyxq__Gfg, __T0s10DictionaryV4keyss17LazyMapCollectionVyAByxq_GxGfg, 
                       __T0s10DictionaryV4keyss17LazyMapCollectionVyAByxq_GxGfgxx3key_q_5valuetcfU_, 
                       __T0s10DictionaryV4keyss17LazyMapCollectionVyAByxq_GxGfgxx3key_q_5valuetcfU_TA, 
                       __T0s10DictionaryV5IndexV1loiSbADyxq__G_AFtFZ, __T0s10DictionaryV5IndexV1loiSbADyxq__G_AFtFZTm, 
                       __T0s10DictionaryV5IndexV2eeoiSbADyxq__G_AFtFZ, 
                       __T0s10DictionaryV5IndexV6_cocoaADyxq__Gs06_CocoaaB0VFZ, 
                       __T0s10DictionaryV5IndexV7_nativeADyxq__Gs07_NativeaB0Vyxq_GFZ, 
                       __T0s10DictionaryV5IndexVMF, __T0s10DictionaryV5IndexVMP, 
                       __T0s10DictionaryV5IndexVMa, __T0s10DictionaryV5IndexVMn, 
                       __T0s10DictionaryV5IndexVWV, __T0s10DictionaryV5IndexVyxq__Gs10Comparabless8HashableRzr0_lWP, 
                       __T0s10DictionaryV5IndexVyxq__Gs10Comparabless8HashableRzr0_lWa, 
                       __T0s10DictionaryV5IndexVyxq__Gs10Comparabless8HashableRzr0_lsAFP1loiSbx_xtFZTWTm, 
                       __T0s10DictionaryV5IndexVyxq__Gs9Equatabless8HashableRzr0_lWP, 
                       __T0s10DictionaryV5IndexVyxq__Gs9Equatabless8HashableRzr0_lWa, 
                       __T0s10DictionaryV5countSifg, __T0s10DictionaryV5indexAB5IndexVyxq__GAF5after_tF, 
                       __T0s10DictionaryV5indexAB5IndexVyxq__GSgx6forKey_tF, 
                       __T0s10DictionaryV5mergeyAByxq_G_q_q__q_tKc16uniquingKeysWithtKF, 
                       __T0s10DictionaryV5mergeyAByxq_G_q_q__q_tKc16uniquingKeysWithtKFx_q_tx_q_tcfU_, 
                       __T0s10DictionaryV5mergeyAByxq_G_q_q__q_tKc16uniquingKeysWithtKFx_q_tx_q_tcfU_TA, 
                       __T0s10DictionaryV5mergeyAByxq_G_q_q__q_tKc16uniquingKeysWithtKFx_q_tx_q_tcfU_TA.159, 
                       __T0s10DictionaryV5mergeyqd___q_q__q_tKc16uniquingKeysWithtKs8SequenceRd__x_q_t7ElementRtd__lF, 
                       __T0s10DictionaryV6ValuesV10startIndexAB0D0Vyxq__Gfg, 
                       __T0s10DictionaryV6ValuesV5countSifg, __T0s10DictionaryV6ValuesV5indexAB5IndexVyxq__GAH5after_tF, 
                       __T0s10DictionaryV6ValuesV7isEmptySbfg, __T0s10DictionaryV6ValuesV8endIndexAB0D0Vyxq__Gfg, 
                       __T0s10DictionaryV6ValuesV9subscriptq_AB5IndexVyxq__Gcfao, 
                       __T0s10DictionaryV6ValuesV9subscriptq_AB5IndexVyxq__Gcfg, 
                       __T0s10DictionaryV6ValuesV9subscriptq_AB5IndexVyxq__Gcfm, 
                       __T0s10DictionaryV6ValuesV9subscriptq_AB5IndexVyxq__Gcfs, 
                       __T0s10DictionaryV6ValuesVMF, __T0s10DictionaryV6ValuesVMP, 
                       __T0s10DictionaryV6ValuesVMa, __T0s10DictionaryV6ValuesVMn, 
                       __T0s10DictionaryV6ValuesVWV, __T0s10DictionaryV6ValuesVyxq__Gs10Collectionss8HashableRzr0_l11SubSequenceWt, 
                       __T0s10DictionaryV6ValuesVyxq__Gs10Collectionss8HashableRzr0_l11SubSequences0F0PWT, 
                       __T0s10DictionaryV6ValuesVyxq__Gs10Collectionss8HashableRzr0_l11SubSequences14_IndexableBasePWT, 
                       __T0s10DictionaryV6ValuesVyxq__Gs10Collectionss8HashableRzr0_l7IndicesWt, 
                       __T0s10DictionaryV6ValuesVyxq__Gs10Collectionss8HashableRzr0_l7Indicess10_IndexablePWT, 
                       __T0s10DictionaryV6ValuesVyxq__Gs10Collectionss8HashableRzr0_l7Indicess8SequencePWT, 
                       __T0s10DictionaryV6ValuesVyxq__Gs10Collectionss8HashableRzr0_l8IteratorWt, 
                       __T0s10DictionaryV6ValuesVyxq__Gs10Collectionss8HashableRzr0_lMA, 
                       __T0s10DictionaryV6ValuesVyxq__Gs10Collectionss8HashableRzr0_lWG, 
                       __T0s10DictionaryV6ValuesVyxq__Gs10Collectionss8HashableRzr0_lWI, 
                       __T0s10DictionaryV6ValuesVyxq__Gs10Collectionss8HashableRzr0_lWP, 
                       __T0s10DictionaryV6ValuesVyxq__Gs10Collectionss8HashableRzr0_lWa, 
                       __T0s10DictionaryV6ValuesVyxq__Gs10_Indexabless8HashableRzr0_lMA, 
                       __T0s10DictionaryV6ValuesVyxq__Gs10_Indexabless8HashableRzr0_lWG, 
                       __T0s10DictionaryV6ValuesVyxq__Gs10_Indexabless8HashableRzr0_lWI, 
                       __T0s10DictionaryV6ValuesVyxq__Gs10_Indexabless8HashableRzr0_lWP, 
                       __T0s10DictionaryV6ValuesVyxq__Gs10_Indexabless8HashableRzr0_lWa, 
                       __T0s10DictionaryV6ValuesVyxq__Gs14_IndexableBasess8HashableRzr0_l11SubSequenceWt, 
                       __T0s10DictionaryV6ValuesVyxq__Gs14_IndexableBasess8HashableRzr0_l5IndexWt, 
                       __T0s10DictionaryV6ValuesVyxq__Gs14_IndexableBasess8HashableRzr0_l5Indexs10ComparablePWT, 
                       __T0s10DictionaryV6ValuesVyxq__Gs14_IndexableBasess8HashableRzr0_l7ElementWt, 
                       __T0s10DictionaryV6ValuesVyxq__Gs14_IndexableBasess8HashableRzr0_lMA, 
                       __T0s10DictionaryV6ValuesVyxq__Gs14_IndexableBasess8HashableRzr0_lWG, 
                       __T0s10DictionaryV6ValuesVyxq__Gs14_IndexableBasess8HashableRzr0_lWP, 
                       __T0s10DictionaryV6ValuesVyxq__Gs14_IndexableBasess8HashableRzr0_lWa, 
                       __T0s10DictionaryV6ValuesVyxq__Gs17MutableCollectionss8HashableRzr0_l11SubSequenceWt, 
                       __T0s10DictionaryV6ValuesVyxq__Gs17MutableCollectionss8HashableRzr0_l11SubSequences0D0PWT, 
                       __T0s10DictionaryV6ValuesVyxq__Gs17MutableCollectionss8HashableRzr0_lMA, 
                       __T0s10DictionaryV6ValuesVyxq__Gs17MutableCollectionss8HashableRzr0_lWG, 
                       __T0s10DictionaryV6ValuesVyxq__Gs17MutableCollectionss8HashableRzr0_lWI, 
                       __T0s10DictionaryV6ValuesVyxq__Gs17MutableCollectionss8HashableRzr0_lWP, 
                       __T0s10DictionaryV6ValuesVyxq__Gs17MutableCollectionss8HashableRzr0_lWa, 
                       __T0s10DictionaryV6ValuesVyxq__Gs17_MutableIndexabless8HashableRzr0_lWG, 
                       __T0s10DictionaryV6ValuesVyxq__Gs17_MutableIndexabless8HashableRzr0_lWI, 
                       __T0s10DictionaryV6ValuesVyxq__Gs17_MutableIndexabless8HashableRzr0_lWP, 
                       __T0s10DictionaryV6ValuesVyxq__Gs17_MutableIndexabless8HashableRzr0_lWa, 
                       __T0s10DictionaryV6ValuesVyxq__Gs8Sequencess8HashableRzr0_l03SubC0Wt, 
                       __T0s10DictionaryV6ValuesVyxq__Gs8Sequencess8HashableRzr0_l7ElementWt, 
                       __T0s10DictionaryV6ValuesVyxq__Gs8Sequencess8HashableRzr0_l8IteratorWt, 
                       __T0s10DictionaryV6ValuesVyxq__Gs8Sequencess8HashableRzr0_l8Iterators0E8ProtocolPWT, 
                       __T0s10DictionaryV6ValuesVyxq__Gs8Sequencess8HashableRzr0_lMA, 
                       __T0s10DictionaryV6ValuesVyxq__Gs8Sequencess8HashableRzr0_lWG, 
                       __T0s10DictionaryV6ValuesVyxq__Gs8Sequencess8HashableRzr0_lWP, 
                       __T0s10DictionaryV6ValuesVyxq__Gs8Sequencess8HashableRzr0_lWa, 
                       __T0s10DictionaryV6encodeys7Encoder_p2to_tKF, __T0s10DictionaryV6filterAByxq_GSbx3key_q_5valuetKcKF, 
                       __T0s10DictionaryV6filterSayx3key_q_5valuetGSbxAD_q_AEtKcKF, 
                       __T0s10DictionaryV6removex3key_q_5valuetAB5IndexVyxq__G2at_tF, 
                       __T0s10DictionaryV6valuesAB6ValuesVyxq__Gfg, __T0s10DictionaryV6valuesAB6ValuesVyxq__Gfs, 
                       __T0s10DictionaryV6valuess17LazyMapCollectionVyAByxq_Gq_Gfg, 
                       __T0s10DictionaryV6valuess17LazyMapCollectionVyAByxq_Gq_Gfgq_x3key_q_5valuetcfU_, 
                       __T0s10DictionaryV6valuess17LazyMapCollectionVyAByxq_Gq_Gfgq_x3key_q_5valuetcfU_TA, 
                       __T0s10DictionaryV7isEmptySbfg, __T0s10DictionaryV7mergingAByxq_GAD_q_q__q_tKc16uniquingKeysWithtKF, 
                       __T0s10DictionaryV7mergingAByxq_Gqd___q_q__q_tKc16uniquingKeysWithtKs8SequenceRd__x_q_t7ElementRtd__lF, 
                       __T0s10DictionaryV8capacitySifg, __T0s10DictionaryV8endIndexAB0C0Vyxq__Gfg, 
                       __T0s10DictionaryV8generates0A8IteratorVyxq_GyF, 
                       __T0s10DictionaryV8popFirstx3key_q_5valuetSgyF, 
                       __T0s10DictionaryV9mapValuesAByxqd__Gqd__q_KcKlF, 
                       __T0s10DictionaryV9removeAllySb15keepingCapacity_tF, 
                       __T0s10DictionaryV9removeAllySb15keepingCapacity_tFfA_, 
                       __T0s10DictionaryV9subscriptq_Sgxcfg, __T0s10DictionaryV9subscriptq_Sgxcfs, 
                       __T0s10DictionaryV9subscriptq_x_q_yXK7defaulttcfg, 
                       __T0s10DictionaryV9subscriptq_x_q_yXK7defaulttcfs, 
                       __T0s10DictionaryV9subscriptx3key_q_5valuetAB5IndexVyxq__Gcfg, 
                       __T0s10DictionaryVAByxSay7ElementQyd__GGqd__8grouping_xADKc2bytKcAERs_s8SequenceRd__lufC, 
                       __T0s10DictionaryVAByxq_GSayx_q_tG17dictionaryLiterald_tcfC, 
                       __T0s10DictionaryVAByxq_GSi15minimumCapacity_tcfC, 
                       __T0s10DictionaryVAByxq_Gqd__20uniqueKeysWithValues_tcs8SequenceRd__x_q_t7ElementRtd__lufC, 
                       __T0s10DictionaryVAByxq_Gqd__20uniqueKeysWithValues_tcs8SequenceRd__x_q_t7ElementRtd__lufcq_q__q_tKcfU_, 
                       __T0s10DictionaryVAByxq_Gqd__20uniqueKeysWithValues_tcs8SequenceRd__x_q_t7ElementRtd__lufcq_q__q_tKcfU_TA, 
                       __T0s10DictionaryVAByxq_Gqd___q_q__q_tKc16uniquingKeysWithtKcs8SequenceRd__x_q_t7ElementRtd__lufC, 
                       __T0s10DictionaryVAByxq_Gs13_NSDictionary_p015_immutableCocoaA0_tcfC, 
                       __T0s10DictionaryVAByxq_Gs7Decoder_p4from_tKcfC, 
                       __T0s10DictionaryVAByxq_GycfC, __T0s10DictionaryVMF, 
                       __T0s10DictionaryVMP, __T0s10DictionaryVMa, __T0s10DictionaryVMn, 
                       __T0s10DictionaryVWV, __T0s10DictionaryVss8HashableRzs9EquatableR_r0_lE2eeoiSbAByxq_G_AFtFZ, 
                       __T0s10DictionaryVss8HashableRzs9EquatableR_r0_lE2neoiSbAByxq_G_AFtFZ, 
                       __T0s10DictionaryVyxq_Gs013ExpressibleByA7Literalss8HashableRzr0_l3KeyWt, 
                       __T0s10DictionaryVyxq_Gs013ExpressibleByA7Literalss8HashableRzr0_l5ValueWt, 
                       __T0s10DictionaryVyxq_Gs013ExpressibleByA7Literalss8HashableRzr0_lMA, 
                       __T0s10DictionaryVyxq_Gs013ExpressibleByA7Literalss8HashableRzr0_lWP, 
                       __T0s10DictionaryVyxq_Gs013ExpressibleByA7Literalss8HashableRzr0_lWa, 
                       __T0s10DictionaryVyxq_Gs10Collectionss8HashableRzr0_l11SubSequenceWt, 
                       __T0s10DictionaryVyxq_Gs10Collectionss8HashableRzr0_l11SubSequences0E0PWT, 
                       __T0s10DictionaryVyxq_Gs10Collectionss8HashableRzr0_l11SubSequences14_IndexableBasePWT, 
                       __T0s10DictionaryVyxq_Gs10Collectionss8HashableRzr0_l7IndicesWt, 
                       __T0s10DictionaryVyxq_Gs10Collectionss8HashableRzr0_l7Indicess10_IndexablePWT, 
                       __T0s10DictionaryVyxq_Gs10Collectionss8HashableRzr0_l7Indicess8SequencePWT, 
                       __T0s10DictionaryVyxq_Gs10Collectionss8HashableRzr0_l8IteratorWt, 
                       __T0s10DictionaryVyxq_Gs10Collectionss8HashableRzr0_lMA, 
                       __T0s10DictionaryVyxq_Gs10Collectionss8HashableRzr0_lWG, 
                       __T0s10DictionaryVyxq_Gs10Collectionss8HashableRzr0_lWI, 
                       __T0s10DictionaryVyxq_Gs10Collectionss8HashableRzr0_lWP, 
                       __T0s10DictionaryVyxq_Gs10Collectionss8HashableRzr0_lWa, 
                       __T0s10DictionaryVyxq_Gs10_Indexabless8HashableRzr0_lMA, 
                       __T0s10DictionaryVyxq_Gs10_Indexabless8HashableRzr0_lWG, 
                       __T0s10DictionaryVyxq_Gs10_Indexabless8HashableRzr0_lWI, 
                       __T0s10DictionaryVyxq_Gs10_Indexabless8HashableRzr0_lWP, 
                       __T0s10DictionaryVyxq_Gs10_Indexabless8HashableRzr0_lWa, 
                       __T0s10DictionaryVyxq_Gs14_IndexableBasess8HashableRzr0_l11SubSequenceWt, 
                       __T0s10DictionaryVyxq_Gs14_IndexableBasess8HashableRzr0_l5IndexWt, 
                       __T0s10DictionaryVyxq_Gs14_IndexableBasess8HashableRzr0_l5Indexs10ComparablePWT, 
                       __T0s10DictionaryVyxq_Gs14_IndexableBasess8HashableRzr0_l7ElementWt, 
                       __T0s10DictionaryVyxq_Gs14_IndexableBasess8HashableRzr0_lMA, 
                       __T0s10DictionaryVyxq_Gs14_IndexableBasess8HashableRzr0_lWG, 
                       __T0s10DictionaryVyxq_Gs14_IndexableBasess8HashableRzr0_lWP, 
                       __T0s10DictionaryVyxq_Gs14_IndexableBasess8HashableRzr0_lWa, 
                       __T0s10DictionaryVyxq_Gs17CustomReflectabless8HashableRzr0_lWP, 
                       __T0s10DictionaryVyxq_Gs17CustomReflectabless8HashableRzr0_lWa, 
                       __T0s10DictionaryVyxq_Gs23CustomStringConvertibless8HashableRzr0_lWP, 
                       __T0s10DictionaryVyxq_Gs23CustomStringConvertibless8HashableRzr0_lWa, 
                       __T0s10DictionaryVyxq_Gs23CustomStringConvertibless8HashableRzr0_lsADP11descriptionSSfgTWTm, 
                       __T0s10DictionaryVyxq_Gs28CustomDebugStringConvertibless8HashableRzr0_lWP, 
                       __T0s10DictionaryVyxq_Gs28CustomDebugStringConvertibless8HashableRzr0_lWa, 
                       __T0s10DictionaryVyxq_Gs8Sequencess8HashableRzr0_l03SubB0Wt, 
                       __T0s10DictionaryVyxq_Gs8Sequencess8HashableRzr0_l7ElementWt, 
                       __T0s10DictionaryVyxq_Gs8Sequencess8HashableRzr0_l8IteratorWt, 
                       __T0s10DictionaryVyxq_Gs8Sequencess8HashableRzr0_l8Iterators0D8ProtocolPWT, 
                       __T0s10DictionaryVyxq_Gs8Sequencess8HashableRzr0_lMA, 
                       __T0s10DictionaryVyxq_Gs8Sequencess8HashableRzr0_lWG, 
                       __T0s10DictionaryVyxq_Gs8Sequencess8HashableRzr0_lWP, 
                       __T0s10DictionaryVyxq_Gs8Sequencess8HashableRzr0_lWa, 
                       __T0s10DictionaryVyxq_Gs9Decodabless8HashableRzr0_lWP, 
                       __T0s10DictionaryVyxq_Gs9Decodabless8HashableRzr0_lWa, 
                       __T0s10DictionaryVyxq_Gs9Encodabless8HashableRzr0_lWP, 
                       __T0s10DictionaryVyxq_Gs9Encodabless8HashableRzr0_lWa, 
                       __T0s10MirrorPathMp, __T0s10MirrorPath_pMF, __T0s10SetAlgebraMp, 
                       __T0s10SetAlgebraPsE10isDisjointSbx4with_tF, __T0s10SetAlgebraPsE10isSubsetOfSbxF, 
                       __T0s10SetAlgebraPsE10isSupersetSbx2of_tF, __T0s10SetAlgebraPsE11exclusiveOrxxF, 
                       __T0s10SetAlgebraPsE11subtractingxxF, __T0s10SetAlgebraPsE12isSupersetOfSbxF, 
                       __T0s10SetAlgebraPsE12unionInPlaceyxF, __T0s10SetAlgebraPsE14isDisjointWithSbxF, 
                       __T0s10SetAlgebraPsE14isStrictSubsetSbx2of_tF, __T0s10SetAlgebraPsE15subtractInPlaceyxF, 
                       __T0s10SetAlgebraPsE16intersectInPlaceyxF, __T0s10SetAlgebraPsE16isStrictSubsetOfSbxF, 
                       __T0s10SetAlgebraPsE16isStrictSupersetSbx2of_tF, 
                       __T0s10SetAlgebraPsE18exclusiveOrInPlaceyxF, __T0s10SetAlgebraPsE18isStrictSupersetOfSbxF, 
                       __T0s10SetAlgebraPsE7isEmptySbfg, __T0s10SetAlgebraPsE8isSubsetSbx2of_tF, 
                       __T0s10SetAlgebraPsE8subtractyxF, __T0s10SetAlgebraPsE9intersectxxF, 
                       __T0s10SetAlgebraPsExqd__cs8SequenceRd__7ElementQyd__ADRtzlufC, 
                       __T0s10SetAlgebraPssAARz7ElementQz012ArrayLiteralC0RtzlExSayAFG05arrayE0d_tcfC, 
                       __T0s10SetAlgebra_pMF, __T0s10StrideableMp, __T0s10StrideablePsE1loiSbx_xtFZ, 
                       __T0s10StrideablePsE2eeoiSbx_xtFZ, __T0s10StrideablePsE5_stepSiSg5index_x5valuetAdE_xAFt5after_x4from6StrideQz2bytFZ, 
                       __T0s10StrideablePsE6strides13StrideThroughVyxGx7through_0C0Qz2bytF, 
                       __T0s10StrideablePsE6strides8StrideToVyxGx2to_0C0Qz2bytF, 
                       __T0s10StrideablePssAARzs13FloatingPoint6StrideRpzlE5_stepSiSg5index_x5valuetAgH_xAIt5after_x4fromAE2bytFZ, 
                       __T0s10Strideable_pMF, __T0s10_ArrayBodyV17_capacityAndFlagsSufg, 
                       __T0s10_ArrayBodyV17_capacityAndFlagsSufs, __T0s10_ArrayBodyV28elementTypeIsBridgedVerbatimSbfg, 
                       __T0s10_ArrayBodyV28elementTypeIsBridgedVerbatimSbfs, 
                       __T0s10_ArrayBodyV5countSifg, __T0s10_ArrayBodyV5countSifs, 
                       __T0s10_ArrayBodyV8capacitySifg, __T0s10_ArrayBodyVABSi5count_Si8capacitySb28elementTypeIsBridgedVerbatimtcfC, 
                       __T0s10_ArrayBodyVABSi5count_Si8capacitySb28elementTypeIsBridgedVerbatimtcfcfA1_, 
                       __T0s10_ArrayBodyVABycfC, __T0s10_ArrayBodyVMF, 
                       __T0s10_ArrayBodyVMa, __T0s10_ArrayBodyVMf, __T0s10_ArrayBodyVMn, 
                       __T0s10_ArrayBodyVN, __T0s10_ArrayBodyVWV, __T0s10_IndexableMp, 
                       __T0s10_IndexablePsE15_advanceForward5IndexQzAE_0D8DistanceQz2bytF, 
                       __T0s10_IndexablePsE15_advanceForward5IndexQzSgAE_0D8DistanceQz2byAE9limitedBytF, 
                       __T0s10_IndexablePsE20_failEarlyRangeChecky5IndexQz_s06ClosedD0VyAEG6boundstF, 
                       __T0s10_IndexablePsE20_failEarlyRangeChecky5IndexQz_s0D0VyAEG6boundstF, 
                       __T0s10_IndexablePsE20_failEarlyRangeChecky5IndexQz_s0D0VyAEG6boundstFTm, 
                       __T0s10_IndexablePsE20_failEarlyRangeCheckys0D0Vy5IndexQzG_AH6boundstF, 
                       __T0s10_IndexablePsE5index5IndexQzAE_0C8DistanceQz8offsetBytF, 
                       __T0s10_IndexablePsE5index5IndexQzSgAE_0C8DistanceQz8offsetByAE07limitedF0tF, 
                       __T0s10_IndexablePsE8distance13IndexDistanceQz0C0Qz4from_AG2totF, 
                       __T0s10_IndexablePsE9formIndexSb0C0Qzz_0C8DistanceQz8offsetByAE07limitedF0tF, 
                       __T0s10_IndexablePsE9formIndexy0C0Qzz5after_tF, 
                       __T0s10_IndexablePsE9formIndexy0C0Qzz_0C8DistanceQz8offsetBytF, 
                       __T0s10_IndexablePsE9subscript11SubSequenceQzqd__cs15RangeExpressionRd__5BoundQyd__5IndexRtzlufg, 
                       __T0s10_IndexablePsE9subscript11SubSequenceQzys15UnboundedRange_Occfg, 
                       __T0s10_Indexable_pMF, __T0s10_NSCopying_pMF, __T0s10_NSSetCore_pMF, 
                       __T0s10_PredicateMp, __T0s10_Predicate_pMF, __T0s10_TeeStreamV5_lockyyF, 
                       __T0s10_TeeStreamV5writeySSF, __T0s10_TeeStreamV7_unlockyyF, 
                       __T0s10_TeeStreamVMF, __T0s10_TeeStreamVMP, __T0s10_TeeStreamVMa, 
                       __T0s10_TeeStreamVMn, __T0s10_TeeStreamVyxq_Gs010TextOutputB0ssADRzsADR_r0_lWP, 
                       __T0s10_TeeStreamVyxq_Gs010TextOutputB0ssADRzsADR_r0_lWa, 
                       __T0s10_TeeStreamVyxq_Gs010TextOutputB0ssADRzsADR_r0_lsADP5_lockyyFTW, 
                       __T0s10_TeeStreamVyxq_Gs010TextOutputB0ssADRzsADR_r0_lsADP5writeySSFTW, 
                       __T0s10_TeeStreamVyxq_Gs010TextOutputB0ssADRzsADR_r0_lsADP7_unlockyyFTW, 
                       __T0s10_UTFParserMp, __T0s10_UTFParserPssAARzs26RangeReplaceableCollection8Encoding_13EncodedScalarRPzlE05parseG0s7UnicodeO11ParseResultOy_AFGqd__z4from_ts16IteratorProtocolRd__AD_8CodeUnitQZ7ElementRtd__lF, 
                       __T0s10_UTFParser_pMF, __T0s10_expectEndyx2of_5IndexQz2ists10CollectionRzlF, 
                       __T0s10_introSortyxz_s5RangeVy5Indexs14_IndexableBasePQzG03subC0Sb7Elements8SequencePQz_AMtKc2bytKs17MutableCollectionRzs012RandomAccessL0RzlF, 
                       __T0s10_introSortyxz_s5RangeVy5Indexs14_IndexableBasePQzG03subC0Sb7Elements8SequencePQz_AMtKc2bytKs17MutableCollectionRzs012RandomAccessL0RzlFTm, 
                       __T0s10_introSortyxz_s5RangeVy5Indexs14_IndexableBasePQzG03subC0ts17MutableCollectionRzs012RandomAccessI0Rzs10Comparable7Elements8SequencePRpzlF, 
                       __T0s10_introSortyxz_s5RangeVy5Indexs14_IndexableBasePQzG03subC0ts17MutableCollectionRzs012RandomAccessI0Rzs10Comparable7Elements8SequencePRpzlFTm, 
                       __T0s10_partition5Indexs14_IndexableBasePQzxz_s5RangeVyAEG03subE0Sb7Elements8SequencePQz_AMtKc2bytKs17MutableCollectionRzs012RandomAccessK0RzlF, 
                       __T0s10_partition5Indexs14_IndexableBasePQzxz_s5RangeVyAEG03subE0ts17MutableCollectionRzs012RandomAccessH0Rzs10Comparable7Elements8SequencePRpzlF, 
                       __T0s10_setUpCasts3SetVyq_GACyxGs8HashableRzsAFR_r0_lF, 
                       __T0s10_undefinedxSSyXK_s12StaticStringV4fileSu4linetlF, 
                       __T0s10_undefinedxSSyXK_s12StaticStringV4fileSu4linetlFfA_, 
                       __T0s10_undefinedxSSyXK_s12StaticStringV4fileSu4linetlFfA_SSyXKfu_, 
                       __T0s10debugPrintySayypGd_SS9separatorSS10terminatortF, 
                       __T0s10debugPrintySayypGd_SS9separatorSS10terminatortFTfq4ggXgX_n, 
                       __T0s10debugPrintySayypGd_SS9separatorSS10terminatortFfA0_, 
                       __T0s10debugPrintySayypGd_SS9separatorSS10terminatortFfA1_, 
                       __T0s10debugPrintySayypGd_SS9separatorSS10terminatorxz2tots16TextOutputStreamRzlF, 
                       __T0s10debugPrintySayypGd_SS9separatorSS10terminatorxz2tots16TextOutputStreamRzlFTm, 
                       __T0s10debugPrintySayypGd_SS9separatorSS10terminatorxz2tots16TextOutputStreamRzlFfA0_, 
                       __T0s10debugPrintySayypGd_SS9separatorSS10terminatorxz2tots16TextOutputStreamRzlFfA1_, 
                       __T0s10debugPrintySayypGd_SS9separatorSS10terminatorxz8toStreamts010TextOutputF0RzlF, 
                       __T0s10debugPrintySayypGd_SS9separatorSS10terminatorxz8toStreamts010TextOutputF0RzlFfA0_, 
                       __T0s10debugPrintySayypGd_SS9separatorSS10terminatorxz8toStreamts010TextOutputF0RzlFfA1_, 
                       __T0s10debugPrintyx_Sb13appendNewlinetlF, __T0s10debugPrintyx_Sb13appendNewlinetlFfA0_, 
                       __T0s10debugPrintyx_s16TextOutputStream_pzSb13appendNewlinetlF, 
                       __T0s10debugPrintyx_s16TextOutputStream_pzSb13appendNewlinetlFfA1_, 
                       __T0s10debugPrintyx_s16TextOutputStream_pztlF, __T0s10withVaListxSays7CVarArg_pG_xs03CVaC7PointerVctlF, 
                       __T0s11AnyHashableV11descriptionSSfg, __T0s11AnyHashableV12customMirrors0D0Vfg, 
                       __T0s11AnyHashableV16debugDescriptionSSfg, __T0s11AnyHashableV2eeoiSbAB_ABtFZ, 
                       __T0s11AnyHashableV4baseypfg, __T0s11AnyHashableV9hashValueSifg, 
                       __T0s11AnyHashableVABxcs0B0RzlufC, __T0s11AnyHashableVMF, 
                       __T0s11AnyHashableVMa, __T0s11AnyHashableVMf, __T0s11AnyHashableVMn, 
                       __T0s11AnyHashableVN, __T0s11AnyHashableVWV, __T0s11AnyHashableVs0B0sWP, 
                       __T0s11AnyHashableVs0B0sWa, __T0s11AnyHashableVs17CustomReflectablesWP, 
                       __T0s11AnyHashableVs17CustomReflectablesWa, __T0s11AnyHashableVs23CustomStringConvertiblesWP, 
                       __T0s11AnyHashableVs23CustomStringConvertiblesWa, 
                       __T0s11AnyHashableVs23CustomStringConvertiblessACP11descriptionSSfgTWTm, 
                       __T0s11AnyHashableVs28CustomDebugStringConvertiblesWP, 
                       __T0s11AnyHashableVs28CustomDebugStringConvertiblesWa, 
                       __T0s11AnyHashableVs9EquatablesWP, __T0s11AnyHashableVs9EquatablesWa, 
                       __T0s11AnyIteratorV4nextxSgyF, __T0s11AnyIteratorV8generateAByxGyF, 
                       __T0s11AnyIteratorVAByxGqd__c7ElementQyd__Rszs0B8ProtocolRd__lufC, 
                       __T0s11AnyIteratorVAByxGs01_aB7BoxBaseCyxG4_box_tcfC, 
                       __T0s11AnyIteratorVAByxGxSgyccfC, __T0s11AnyIteratorVMF, 
                       __T0s11AnyIteratorVMP, __T0s11AnyIteratorVMa, __T0s11AnyIteratorVMn, 
                       __T0s11AnyIteratorVWV, __T0s11AnyIteratorVyxGs0B8Protocolsl7ElementWt, 
                       __T0s11AnyIteratorVyxGs0B8ProtocolslMA, __T0s11AnyIteratorVyxGs0B8ProtocolslWP, 
                       __T0s11AnyIteratorVyxGs0B8ProtocolslWa, __T0s11AnyIteratorVyxGs8Sequencesl03SubC0Wt, 
                       __T0s11AnyIteratorVyxGs8Sequencesl0B0Wt, __T0s11AnyIteratorVyxGs8Sequencesl0B0s0B8ProtocolPWT, 
                       __T0s11AnyIteratorVyxGs8Sequencesl7ElementWt, __T0s11AnyIteratorVyxGs8SequenceslMA, 
                       __T0s11AnyIteratorVyxGs8SequenceslWG, __T0s11AnyIteratorVyxGs8SequenceslWP, 
                       __T0s11AnyIteratorVyxGs8SequenceslWa, __T0s11AnyIteratorVyxGs8SequenceslsADP4drop03SubC0QzSb7ElementQzKc5while_tKFTWTm, 
                       __T0s11AnyIteratorVyxGs8SequenceslsADP9dropFirst03SubC0QzSiFTWTm, 
                       __T0s11AnySequenceV12makeIterators0aD0VyxGyF, __T0s11AnySequenceV13_copyContentss0A8IteratorVyxG_SitSryxG12initializing_tF, 
                       __T0s11AnySequenceV18_preprocessingPassqd__Sgqd__yKcKlF, 
                       __T0s11AnySequenceV18underestimateCountSiyF, __T0s11AnySequenceV19underestimatedCountSifg, 
                       __T0s11AnySequenceV22_copyToContiguousArrays0eF0VyxGyF, 
                       __T0s11AnySequenceV31_customContainsEquatableElementSbSgxF, 
                       __T0s11AnySequenceV3mapSayqd__Gqd__xKcKlF, __T0s11AnySequenceV4dropAByxGSbxKc5while_tKF, 
                       __T0s11AnySequenceV5splitSayAByxGGSi9maxSplits_Sb25omittingEmptySubsequencesSbxKc14whereSeparatortKF, 
                       __T0s11AnySequenceV5splitSayAByxGGSi9maxSplits_Sb25omittingEmptySubsequencesSbxKc14whereSeparatortKFfA0_, 
                       __T0s11AnySequenceV5splitSayAByxGGSi9maxSplits_Sb25omittingEmptySubsequencesSbxKc14whereSeparatortKFfA_, 
                       __T0s11AnySequenceV6filterSayxGSbxKcKF, __T0s11AnySequenceV6prefixAByxGSbxKc5while_tKF, 
                       __T0s11AnySequenceV6prefixAByxGSiF, __T0s11AnySequenceV6suffixAByxGSiF, 
                       __T0s11AnySequenceV7forEachyyxKcKF, __T0s11AnySequenceV8dropLastAByxGSiF, 
                       __T0s11AnySequenceV9dropFirstAByxGSiF, __T0s11AnySequenceVAByxGqd__c7ElementQyd__Rszs0B0Rd__03SubB0_ADQYd__AERSsAfGRpd__AG_AGQYd__AIRSlufC, 
                       __T0s11AnySequenceVAByxGqd__ycc7ElementQyd__Rszs16IteratorProtocolRd__lufC, 
                       __T0s11AnySequenceVAByxGs01_aB3BoxCyxG4_box_tcfC, 
                       __T0s11AnySequenceVMF, __T0s11AnySequenceVMP, __T0s11AnySequenceVMa, 
                       __T0s11AnySequenceVMn, __T0s11AnySequenceVWV, __T0s11AnySequenceVyxGs0B0sl03SubB0Wt, 
                       __T0s11AnySequenceVyxGs0B0sl7ElementWt, __T0s11AnySequenceVyxGs0B0sl8IteratorWt, 
                       __T0s11AnySequenceVyxGs0B0sl8Iterators0C8ProtocolPWT, 
                       __T0s11AnySequenceVyxGs0B0slMA, __T0s11AnySequenceVyxGs0B0slWG, 
                       __T0s11AnySequenceVyxGs0B0slWP, __T0s11AnySequenceVyxGs0B0slWa, 
                       __T0s11AnySequenceVyxGs0B0slsADP18_preprocessingPassqd__Sgqd__yKcKlFTWTm, 
                       __T0s11AnySequenceVyxGs0B0slsADP3mapSayqd__Gqd__7ElementQzKcKlFTWTm, 
                       __T0s11AnySequenceVyxGs0B0slsADP4drop03SubB0QzSb7ElementQzKc5while_tKFTWTm, 
                       __T0s11AnySequenceVyxGs0B0slsADP5splitSay03SubB0QzGSi9maxSplits_Sb25omittingEmptySubsequencesSb7ElementQzKc14whereSeparatortKFTWTm, 
                       __T0s11AnySequenceVyxGs0B0slsADP6filterSay7ElementQzGSbAHKcKFTWTm, 
                       __T0s11AnySequenceVyxGs0B0slsADP7forEachyy7ElementQzKcKFTWTm, 
                       __T0s11ClassHolderC8instanceyXlvWvd, __T0s11ClassHolderC8previousyXlSgvWvd, 
                       __T0s11ClassHolderCMF, __T0s11ClassHolderCML, __T0s11ClassHolderCMa, 
                       __T0s11ClassHolderCMf, __T0s11ClassHolderCMm, __T0s11ClassHolderCMn, 
                       __T0s11ClassHolderCN, __T0s11ClassHolderCfD, __T0s11ClosedRangeV10startIndexxfg, 
                       __T0s11ClosedRangeV11descriptionSSfg, __T0s11ClosedRangeV12customMirrors0D0Vfg, 
                       __T0s11ClosedRangeV16debugDescriptionSSfg, __T0s11ClosedRangeV2eeoiSbAByxG_ADtFZ, 
                       __T0s11ClosedRangeV2teoiSbAByxG_xtFZ, __T0s11ClosedRangeV5clampAByxGADF, 
                       __T0s11ClosedRangeV7clampedAByxGAD2to_tF, __T0s11ClosedRangeV7isEmptySbfg, 
                       __T0s11ClosedRangeV8containsSbxF, __T0s11ClosedRangeV8endIndexxfg, 
                       __T0s11ClosedRangeV8overlapsSbAByxGF, __T0s11ClosedRangeV8overlapsSbs0B0VyxGF, 
                       __T0s11ClosedRangeV8relatives0B0VyxGqd__2to_t5IndexQyd__Rszs10_IndexableRd__lF, 
                       __T0s11ClosedRangeVAByxGx5lower_x5uppert15uncheckedBounds_tcfC, 
                       __T0s11ClosedRangeVAByxGx5lower_x5uppert15uncheckedBounds_tcfCTm, 
                       __T0s11ClosedRangeVMF, __T0s11ClosedRangeVMP, __T0s11ClosedRangeVMa, 
                       __T0s11ClosedRangeVMn, __T0s11ClosedRangeVss10ComparableRzs11_StrideableRzs13SignedInteger6StridesADPRpzlE5countAHfg, 
                       __T0s11ClosedRangeVss10ComparableRzs11_StrideableRzs13SignedInteger6StridesADPRpzlE8overlapsSbs09CountableB0VyxGF, 
                       __T0s11ClosedRangeVss10ComparableRzs11_StrideableRzs13SignedInteger6StridesADPRpzlE8overlapsSbs09CountableaB0VyxGF, 
                       __T0s11ClosedRangeVss10ComparableRzs11_StrideableRzs13SignedInteger6StridesADPRpzlEAByxGAIcfC, 
                       __T0s11ClosedRangeVss10ComparableRzs11_StrideableRzs13SignedInteger6StridesADPRpzlEAByxGs09CountableB0VyxGcfC, 
                       __T0s11ClosedRangeVss10ComparableRzs11_StrideableRzs13SignedInteger6StridesADPRpzlEAByxGs09CountableaB0VyxGcfC, 
                       __T0s11ClosedRangeVss10ComparableRzs11_StrideableRzs13SignedInteger6StridesADPRpzlEAByxGs0B0VyxGcfC, 
                       __T0s11ClosedRangeVyxGs0B10Expressionss10ComparableRzl5BoundWt, 
                       __T0s11ClosedRangeVyxGs0B10Expressionss10ComparableRzl5BoundsAEPWT, 
                       __T0s11ClosedRangeVyxGs0B10Expressionss10ComparableRzlMA, 
                       __T0s11ClosedRangeVyxGs0B10Expressionss10ComparableRzlWP, 
                       __T0s11ClosedRangeVyxGs0B10Expressionss10ComparableRzlWa, 
                       __T0s11ClosedRangeVyxGs17CustomReflectabless10ComparableRzlWP, 
                       __T0s11ClosedRangeVyxGs17CustomReflectabless10ComparableRzlWa, 
                       __T0s11ClosedRangeVyxGs23CustomStringConvertibless10ComparableRzlWP, 
                       __T0s11ClosedRangeVyxGs23CustomStringConvertibless10ComparableRzlWa, 
                       __T0s11ClosedRangeVyxGs28CustomDebugStringConvertibless10ComparableRzlWP, 
                       __T0s11ClosedRangeVyxGs28CustomDebugStringConvertibless10ComparableRzlWa, 
                       __T0s11ClosedRangeVyxGs9Equatabless10ComparableRzlWP, 
                       __T0s11ClosedRangeVyxGs9Equatabless10ComparableRzlWa, 
                       __T0s11CommandLineO10unsafeArgvSpySpys4Int8VGSgGfgZ, 
                       __T0s11CommandLineO11_unsafeArgvSpySpys4Int8VGSgGfau, 
                       __T0s11CommandLineO11_unsafeArgvSpySpys4Int8VGSgGvZ, 
                       __T0s11CommandLineO4argcs5Int32VfgZ, __T0s11CommandLineO5_argcs5Int32Vfau, 
                       __T0s11CommandLineO5_argcs5Int32VvZ, __T0s11CommandLineO9argumentsSaySSGfau, 
                       __T0s11CommandLineO9argumentsSaySSGvZ, __T0s11CommandLineO9argumentsSaySSGvZfiSSSicfU_, 
                       __T0s11CommandLineOMF, __T0s11CommandLineOMa, __T0s11CommandLineOMf, 
                       __T0s11CommandLineOMn, __T0s11CommandLineON, __T0s11CommandLineOWV, 
                       __T0s11KeyPathKindOMF, __T0s11KeyPathKindOMa, __T0s11KeyPathKindOMf, 
                       __T0s11KeyPathKindOMn, __T0s11KeyPathKindON, __T0s11KeyPathKindOWV, 
                       __T0s11KeyPathKindOs8HashablesWP, __T0s11KeyPathKindOs8HashablesWa, 
                       __T0s11KeyPathKindOs8HashablessACP9hashValueSifgTW, 
                       __T0s11KeyPathKindOs9EquatablesWP, __T0s11KeyPathKindOs9EquatablesWa, 
                       __T0s11KeyPathKindOs9EquatablessACP2eeoiSbx_xtFZTW, 
                       __T0s11SetIteratorV11_nativeNextxSgyF, __T0s11SetIteratorV12customMirrors0D0Vfg, 
                       __T0s11SetIteratorV4nextxSgyF, __T0s11SetIteratorV6_cocoaAByxGs06_CocoaaB0CFZ, 
                       __T0s11SetIteratorV7_nativeAByxGs07_NativeA5IndexVyxG5start_AG3ends01_dA6BufferVyxG6buffertFZ, 
                       __T0s11SetIteratorVMF, __T0s11SetIteratorVMP, __T0s11SetIteratorVMa, 
                       __T0s11SetIteratorVMn, __T0s11SetIteratorVWV, __T0s11SetIteratorVyxGs0B8Protocolss8HashableRzl7ElementWt, 
                       __T0s11SetIteratorVyxGs0B8Protocolss8HashableRzlMA, 
                       __T0s11SetIteratorVyxGs0B8Protocolss8HashableRzlWP, 
                       __T0s11SetIteratorVyxGs0B8Protocolss8HashableRzlWa, 
                       __T0s11SetIteratorVyxGs17CustomReflectabless8HashableRzlWP, 
                       __T0s11SetIteratorVyxGs17CustomReflectabless8HashableRzlWa, 
                       __T0s11_EnumMirrorVMF, __T0s11_EnumMirrorVMa, __T0s11_EnumMirrorVMf, 
                       __T0s11_EnumMirrorVMn, __T0s11_EnumMirrorVN, __T0s11_EnumMirrorVWV, 
                       __T0s11_EnumMirrorVs01_B0sWP, __T0s11_EnumMirrorVs01_B0sWa, 
                       __T0s11_EnumMirrorVs01_B0ssACP11dispositions01_B11DispositionOfgTW, 
                       __T0s11_EnumMirrorVs01_B0ssACP15quickLookObjects015PlaygroundQuickD0OSgfgTW, 
                       __T0s11_EnumMirrorVs01_B0ssACP16objectIdentifiers06ObjectD0VSgfgTW, 
                       __T0s11_EnumMirrorVs01_B0ssACP5countSifgTW, __T0s11_EnumMirrorVs01_B0ssACP5valueypfgTW, 
                       __T0s11_EnumMirrorVs01_B0ssACP7summarySSfgTW, __T0s11_EnumMirrorVs01_B0ssACP9subscriptSS_sAC_ptSicfgTW, 
                       __T0s11_EnumMirrorVs01_B0ssACP9valueTypeypXpfgTW, 
                       __T0s11_HashBufferMp, __T0s11_HashBuffer_pMF, __T0s11_MergeErrorOMF, 
                       __T0s11_MergeErrorOMa, __T0s11_MergeErrorOMf, __T0s11_MergeErrorOMn, 
                       __T0s11_MergeErrorON, __T0s11_MergeErrorOWV, __T0s11_MergeErrorOs0B0sWP, 
                       __T0s11_MergeErrorOs0B0sWa, __T0s11_MergeErrorOs8HashablesWP, 
                       __T0s11_MergeErrorOs8HashablesWa, __T0s11_MergeErrorOs8HashablessACP9hashValueSifgTW, 
                       __T0s11_MergeErrorOs9EquatablesWP, __T0s11_MergeErrorOs9EquatablesWa, 
                       __T0s11_MergeErrorOs9EquatablessACP2eeoiSbx_xtFZTW, 
                       __T0s11_ObjCMirrorV11dispositions18_MirrorDispositionOfg, 
                       __T0s11_ObjCMirrorV15quickLookObjects015PlaygroundQuickD0OSgfg, 
                       __T0s11_ObjCMirrorV16objectIdentifiers06ObjectD0VSgfg, 
                       __T0s11_ObjCMirrorV5countSifg, __T0s11_ObjCMirrorV5valueypfg, 
                       __T0s11_ObjCMirrorV7summarySSfg, __T0s11_ObjCMirrorV9subscriptSS_s7_Mirror_ptSicfg, 
                       __T0s11_ObjCMirrorV9valueTypeypXpfg, __T0s11_ObjCMirrorVMF, 
                       __T0s11_ObjCMirrorVMa, __T0s11_ObjCMirrorVMf, __T0s11_ObjCMirrorVMn, 
                       __T0s11_ObjCMirrorVN, __T0s11_ObjCMirrorVWV, __T0s11_ObjCMirrorVs7_MirrorsWP, 
                       __T0s11_ObjCMirrorVs7_MirrorsWa, __T0s11_SetBuilderV3addyx6member_tF, 
                       __T0s11_SetBuilderV4takes0A0VyxGyF, __T0s11_SetBuilderVAByxGSi5count_tcfC, 
                       __T0s11_SetBuilderVMF, __T0s11_SetBuilderVMP, __T0s11_SetBuilderVMa, 
                       __T0s11_SetBuilderVMn, __T0s11_SetBuilderVWV, __T0s11_StrideableMp, 
                       __T0s11_Strideable_pMF, __T0s11_StringCoreV10_countMaskSufg, 
                       __T0s11_StringCoreV10startASCIISpys5UInt8VGfg, __T0s11_StringCoreV10startIndexSifg, 
                       __T0s11_StringCoreV10startUTF16Spys6UInt16VGfg, 
                       __T0s11_StringCoreV11asciiBufferSrys5UInt8VGSgfg, 
                       __T0s11_StringCoreV11cocoaBufferyXlSgfg, __T0s11_StringCoreV12_copyInPlaceySi7newSize_Si0F8CapacitySi15minElementWidthtF, 
                       __T0s11_StringCoreV12elementShiftSifg, __T0s11_StringCoreV12elementWidthSifg, 
                       __T0s11_StringCoreV12nativeBuffers01_aD0VSgfg, __T0s11_StringCoreV14_nthContiguouss6UInt16VSiF, 
                       __T0s11_StringCoreV14hasCocoaBufferSbfg, __T0s11_StringCoreV15_withCSubstringxs5RangeVySiG2in_q_m8encodingxSPy8CodeUnitQy_GKctKs16_UnicodeEncodingR_r0_lFxAK_SitKcfU_, 
                       __T0s11_StringCoreV15_withCSubstringxs5RangeVySiG2in_q_m8encodingxSPy8CodeUnitQy_GKctKs16_UnicodeEncodingR_r0_lFxAK_SitKcfU_TA, 
                       __T0s11_StringCoreV15replaceSubrangeys5RangeVySiG_x4withts10CollectionRzs6UInt16V7ElementRtzlF, 
                       __T0s11_StringCoreV15reserveCapacityySiF, __T0s11_StringCoreV20hasContiguousStorageSbfg, 
                       __T0s11_StringCoreV22isRepresentableAsASCIISbyFSbs6UInt16VcfU_, 
                       __T0s11_StringCoreV24_withCSubstringAndLengthxs5RangeVySiG2in_q_m8encodingxSPy8CodeUnitQy_G_SitKctKs16_UnicodeEncodingR_r0_lF, 
                       __T0s11_StringCoreV5countSifg, __T0s11_StringCoreV5countSifs, 
                       __T0s11_StringCoreV6appendys6UInt16VF, __T0s11_StringCoreV6appendys6UInt16V_AESgtF, 
                       __T0s11_StringCoreV6appendys7UnicodeO6ScalarVF, 
                       __T0s11_StringCoreV6appendyx10contentsOf_ts8SequenceRzs6UInt16V7ElementRtzlF, 
                       __T0s11_StringCoreV6appendyx10contentsOf_ts8SequenceRzs6UInt16V7ElementRtzlFSbycfU_, 
                       __T0s11_StringCoreV6appendyx10contentsOf_ts8SequenceRzs6UInt16V7ElementRtzlFSbycfU_TA, 
                       __T0s11_StringCoreV7isASCIISbfg, __T0s11_StringCoreV8_pointerSvSi11toElementAt_tF, 
                       __T0s11_StringCoreV8endIndexSifg, __T0s11_StringCoreV9subscriptABs5RangeVySiGcfg, 
                       __T0s11_StringCoreV9subscripts6UInt16VSicfg, __T0s11_StringCoreVABSvSg11baseAddress_Si5countSi12elementShiftSb14hasCocoaBufferyXlSg5ownertcfC, 
                       __T0s11_StringCoreVABs01_A6BufferVcfC, __T0s11_StringCoreVABycfC, 
                       __T0s11_StringCoreVMF, __T0s11_StringCoreVMa, __T0s11_StringCoreVMf, 
                       __T0s11_StringCoreVMn, __T0s11_StringCoreVN, __T0s11_StringCoreVWV, 
                       __T0s11_StringCoreVs10CollectionsMA, __T0s11_StringCoreVs10CollectionsWP, 
                       __T0s11_StringCoreVs10CollectionsWa, __T0s11_StringCoreVs10CollectionssACP5index5IndexQzAG_0E8DistanceQz8offsetBytFTWTm, 
                       __T0s11_StringCoreVs10CollectionssACP6prefix11SubSequenceQz5IndexQz4upTo_tFTWTm, 
                       __T0s11_StringCoreVs10_IndexablesMA, __T0s11_StringCoreVs10_IndexablesWP, 
                       __T0s11_StringCoreVs10_IndexablesWa, __T0s11_StringCoreVs14_IndexableBasesMA, 
                       __T0s11_StringCoreVs14_IndexableBasesWP, __T0s11_StringCoreVs14_IndexableBasesWa, 
                       __T0s11_StringCoreVs22RandomAccessCollectionsMA, 
                       __T0s11_StringCoreVs22RandomAccessCollectionsWP, 
                       __T0s11_StringCoreVs22RandomAccessCollectionsWa, 
                       __T0s11_StringCoreVs22_RandomAccessIndexablesWP, 
                       __T0s11_StringCoreVs22_RandomAccessIndexablesWa, 
                       __T0s11_StringCoreVs23BidirectionalCollectionsMA, 
                       __T0s11_StringCoreVs23BidirectionalCollectionsWP, 
                       __T0s11_StringCoreVs23BidirectionalCollectionsWa, 
                       __T0s11_StringCoreVs23_BidirectionalIndexablesWP, 
                       __T0s11_StringCoreVs23_BidirectionalIndexablesWa, 
                       __T0s11_StringCoreVs26RangeReplaceableCollectionsMA, 
                       __T0s11_StringCoreVs26RangeReplaceableCollectionsWP, 
                       __T0s11_StringCoreVs26RangeReplaceableCollectionsWa, 
                       __T0s11_StringCoreVs26_RangeReplaceableIndexablesWP, 
                       __T0s11_StringCoreVs26_RangeReplaceableIndexablesWa, 
                       __T0s11_StringCoreVs8SequencesMA, __T0s11_StringCoreVs8SequencesWP, 
                       __T0s11_StringCoreVs8SequencesWa, __T0s11_StringCoreVs8SequencessACP4drop03SubC0QzSb7ElementQzKc5while_tKFTWTm, 
                       __T0s11_StringCoreVs8SequencessACP9dropFirst03SubC0QzSiFTWTm, 
                       __T0s11_UIntBufferV10startIndexAB0D0Vyxq__Gfg, __T0s11_UIntBufferV11removeFirstyyF, 
                       __T0s11_UIntBufferV12makeIteratorAB0D0Vyxq__GyF, 
                       __T0s11_UIntBufferV13_elementWidths5UInt8Vfg, __T0s11_UIntBufferV15replaceSubrangeys5RangeVyAB5IndexVyxq__GG_qd__4witht7ElementQyd__Rs_s10CollectionRd__lF, 
                       __T0s11_UIntBufferV5IndexV1loiSbADyxq__G_AFtFZ, 
                       __T0s11_UIntBufferV5IndexV2eeoiSbADyxq__G_AFtFZ, 
                       __T0s11_UIntBufferV5IndexVADyxq__Gs5UInt8V9bitOffset_tcfC, 
                       __T0s11_UIntBufferV5IndexVMF, __T0s11_UIntBufferV5IndexVMP, 
                       __T0s11_UIntBufferV5IndexVMa, __T0s11_UIntBufferV5IndexVMn, 
                       __T0s11_UIntBufferV5IndexVWV, __T0s11_UIntBufferV5IndexVyxq__Gs10Comparabless17FixedWidthIntegerRzs08UnsignedG0RzsAGR_sAHR_r0_lWP, 
                       __T0s11_UIntBufferV5IndexVyxq__Gs10Comparabless17FixedWidthIntegerRzs08UnsignedG0RzsAGR_sAHR_r0_lWa, 
                       __T0s11_UIntBufferV5IndexVyxq__Gs9Equatabless17FixedWidthIntegerRzs08UnsignedG0RzsAGR_sAHR_r0_lWP, 
                       __T0s11_UIntBufferV5IndexVyxq__Gs9Equatabless17FixedWidthIntegerRzs08UnsignedG0RzsAGR_sAHR_r0_lWa, 
                       __T0s11_UIntBufferV5indexAB5IndexVyxq__GAF5after_tF, 
                       __T0s11_UIntBufferV5indexAB5IndexVyxq__GAF6before_tF, 
                       __T0s11_UIntBufferV5indexAB5IndexVyxq__GAF_Si8offsetBytF, 
                       __T0s11_UIntBufferV6appendyq_F, __T0s11_UIntBufferV8IteratorV4nextq_SgyF, 
                       __T0s11_UIntBufferV8IteratorVADyxq__GAByxq_GcfC, 
                       __T0s11_UIntBufferV8IteratorVMF, __T0s11_UIntBufferV8IteratorVMP, 
                       __T0s11_UIntBufferV8IteratorVMa, __T0s11_UIntBufferV8IteratorVMn, 
                       __T0s11_UIntBufferV8IteratorVyxq__Gs0C8Protocolss17FixedWidthIntegerRzs08UnsignedG0RzsAGR_sAHR_r0_l7ElementWt, 
                       __T0s11_UIntBufferV8IteratorVyxq__Gs0C8Protocolss17FixedWidthIntegerRzs08UnsignedG0RzsAGR_sAHR_r0_lMA, 
                       __T0s11_UIntBufferV8IteratorVyxq__Gs0C8Protocolss17FixedWidthIntegerRzs08UnsignedG0RzsAGR_sAHR_r0_lWP, 
                       __T0s11_UIntBufferV8IteratorVyxq__Gs0C8Protocolss17FixedWidthIntegerRzs08UnsignedG0RzsAGR_sAHR_r0_lWa, 
                       __T0s11_UIntBufferV8IteratorVyxq__Gs8Sequencess17FixedWidthIntegerRzs08UnsignedG0RzsAGR_sAHR_r0_l03SubD0Wt, 
                       __T0s11_UIntBufferV8IteratorVyxq__Gs8Sequencess17FixedWidthIntegerRzs08UnsignedG0RzsAGR_sAHR_r0_l7ElementWt, 
                       __T0s11_UIntBufferV8IteratorVyxq__Gs8Sequencess17FixedWidthIntegerRzs08UnsignedG0RzsAGR_sAHR_r0_lACWt, 
                       __T0s11_UIntBufferV8IteratorVyxq__Gs8Sequencess17FixedWidthIntegerRzs08UnsignedG0RzsAGR_sAHR_r0_lACs0C8ProtocolPWT, 
                       __T0s11_UIntBufferV8IteratorVyxq__Gs8Sequencess17FixedWidthIntegerRzs08UnsignedG0RzsAGR_sAHR_r0_lMA, 
                       __T0s11_UIntBufferV8IteratorVyxq__Gs8Sequencess17FixedWidthIntegerRzs08UnsignedG0RzsAGR_sAHR_r0_lWG, 
                       __T0s11_UIntBufferV8IteratorVyxq__Gs8Sequencess17FixedWidthIntegerRzs08UnsignedG0RzsAGR_sAHR_r0_lWP, 
                       __T0s11_UIntBufferV8IteratorVyxq__Gs8Sequencess17FixedWidthIntegerRzs08UnsignedG0RzsAGR_sAHR_r0_lWa, 
                       __T0s11_UIntBufferV8IteratorVyxq__Gs8Sequencess17FixedWidthIntegerRzs08UnsignedG0RzsAGR_sAHR_r0_lsAFP4drop03SubD0QzSb7ElementQzKc5while_tKFTWTm, 
                       __T0s11_UIntBufferV8IteratorVyxq__Gs8Sequencess17FixedWidthIntegerRzs08UnsignedG0RzsAGR_sAHR_r0_lsAFP9dropFirst03SubD0QzSiFTWTm, 
                       __T0s11_UIntBufferV8capacitySifg, __T0s11_UIntBufferV8distanceSiAB5IndexVyxq__G4from_AF2totF, 
                       __T0s11_UIntBufferV8endIndexAB0D0Vyxq__Gfg, __T0s11_UIntBufferV9subscriptq_AB5IndexVyxq__Gcfg, 
                       __T0s11_UIntBufferVAByxq_Gq_10containing_tcfC, __T0s11_UIntBufferVAByxq_Gx8_storage_s5UInt8V9_bitCounttcfC, 
                       __T0s11_UIntBufferVAByxq_GycfC, __T0s11_UIntBufferVMF, 
                       __T0s11_UIntBufferVMP, __T0s11_UIntBufferVMa, __T0s11_UIntBufferVMn, 
                       __T0s11_UIntBufferVyxq_Gs10Collectionss17FixedWidthIntegerRzs08UnsignedF0RzsAER_sAFR_r0_l11SubSequenceWt, 
                       __T0s11_UIntBufferVyxq_Gs10Collectionss17FixedWidthIntegerRzs08UnsignedF0RzsAER_sAFR_r0_l11SubSequenceWtTm, 
                       __T0s11_UIntBufferVyxq_Gs10Collectionss17FixedWidthIntegerRzs08UnsignedF0RzsAER_sAFR_r0_l11SubSequences0I0PWT, 
                       __T0s11_UIntBufferVyxq_Gs10Collectionss17FixedWidthIntegerRzs08UnsignedF0RzsAER_sAFR_r0_l11SubSequences14_IndexableBasePWT, 
                       __T0s11_UIntBufferVyxq_Gs10Collectionss17FixedWidthIntegerRzs08UnsignedF0RzsAER_sAFR_r0_l7IndicesWt, 
                       __T0s11_UIntBufferVyxq_Gs10Collectionss17FixedWidthIntegerRzs08UnsignedF0RzsAER_sAFR_r0_l7Indicess10_IndexablePWT, 
                       __T0s11_UIntBufferVyxq_Gs10Collectionss17FixedWidthIntegerRzs08UnsignedF0RzsAER_sAFR_r0_l7Indicess8SequencePWT, 
                       __T0s11_UIntBufferVyxq_Gs10Collectionss17FixedWidthIntegerRzs08UnsignedF0RzsAER_sAFR_r0_l8IteratorWt, 
                       __T0s11_UIntBufferVyxq_Gs10Collectionss17FixedWidthIntegerRzs08UnsignedF0RzsAER_sAFR_r0_lMA, 
                       __T0s11_UIntBufferVyxq_Gs10Collectionss17FixedWidthIntegerRzs08UnsignedF0RzsAER_sAFR_r0_lWG, 
                       __T0s11_UIntBufferVyxq_Gs10Collectionss17FixedWidthIntegerRzs08UnsignedF0RzsAER_sAFR_r0_lWI, 
                       __T0s11_UIntBufferVyxq_Gs10Collectionss17FixedWidthIntegerRzs08UnsignedF0RzsAER_sAFR_r0_lWP, 
                       __T0s11_UIntBufferVyxq_Gs10Collectionss17FixedWidthIntegerRzs08UnsignedF0RzsAER_sAFR_r0_lWa, 
                       __T0s11_UIntBufferVyxq_Gs10Collectionss17FixedWidthIntegerRzs08UnsignedF0RzsAER_sAFR_r0_lsADP6prefix11SubSequenceQz5IndexQz4upTo_tFTWTm, 
                       __T0s11_UIntBufferVyxq_Gs10Collectionss17FixedWidthIntegerRzs08UnsignedF0RzsAER_sAFR_r0_lsADP7indices7IndicesQzfgTWTm, 
                       __T0s11_UIntBufferVyxq_Gs10_Indexabless17FixedWidthIntegerRzs08UnsignedF0RzsAER_sAFR_r0_lMA, 
                       __T0s11_UIntBufferVyxq_Gs10_Indexabless17FixedWidthIntegerRzs08UnsignedF0RzsAER_sAFR_r0_lWG, 
                       __T0s11_UIntBufferVyxq_Gs10_Indexabless17FixedWidthIntegerRzs08UnsignedF0RzsAER_sAFR_r0_lWI, 
                       __T0s11_UIntBufferVyxq_Gs10_Indexabless17FixedWidthIntegerRzs08UnsignedF0RzsAER_sAFR_r0_lWP, 
                       __T0s11_UIntBufferVyxq_Gs10_Indexabless17FixedWidthIntegerRzs08UnsignedF0RzsAER_sAFR_r0_lWa, 
                       __T0s11_UIntBufferVyxq_Gs14_IndexableBasess17FixedWidthIntegerRzs08UnsignedG0RzsAER_sAFR_r0_l11SubSequenceWt, 
                       __T0s11_UIntBufferVyxq_Gs14_IndexableBasess17FixedWidthIntegerRzs08UnsignedG0RzsAER_sAFR_r0_l5IndexWt, 
                       __T0s11_UIntBufferVyxq_Gs14_IndexableBasess17FixedWidthIntegerRzs08UnsignedG0RzsAER_sAFR_r0_l5Indexs10ComparablePWT, 
                       __T0s11_UIntBufferVyxq_Gs14_IndexableBasess17FixedWidthIntegerRzs08UnsignedG0RzsAER_sAFR_r0_l7ElementWt, 
                       __T0s11_UIntBufferVyxq_Gs14_IndexableBasess17FixedWidthIntegerRzs08UnsignedG0RzsAER_sAFR_r0_lMA, 
                       __T0s11_UIntBufferVyxq_Gs14_IndexableBasess17FixedWidthIntegerRzs08UnsignedG0RzsAER_sAFR_r0_lWG, 
                       __T0s11_UIntBufferVyxq_Gs14_IndexableBasess17FixedWidthIntegerRzs08UnsignedG0RzsAER_sAFR_r0_lWP, 
                       __T0s11_UIntBufferVyxq_Gs14_IndexableBasess17FixedWidthIntegerRzs08UnsignedG0RzsAER_sAFR_r0_lWa, 
                       __T0s11_UIntBufferVyxq_Gs14_IndexableBasess17FixedWidthIntegerRzs08UnsignedG0RzsAER_sAFR_r0_lsADP20_failEarlyRangeChecky5IndexQz_s0K0VyAJG6boundstFTWTm, 
                       __T0s11_UIntBufferVyxq_Gs14_IndexableBasess17FixedWidthIntegerRzs08UnsignedG0RzsAER_sAFR_r0_lsADP5index5IndexQzAJ5after_tFTWTm, 
                       __T0s11_UIntBufferVyxq_Gs14_IndexableBasess17FixedWidthIntegerRzs08UnsignedG0RzsAER_sAFR_r0_lsADP9formIndexy0J0Qzz5after_tFTWTm, 
                       __T0s11_UIntBufferVyxq_Gs22RandomAccessCollectionss17FixedWidthIntegerRzs08UnsignedH0RzsAER_sAFR_r0_l11SubSequenceWt, 
                       __T0s11_UIntBufferVyxq_Gs22RandomAccessCollectionss17FixedWidthIntegerRzs08UnsignedH0RzsAER_sAFR_r0_l11SubSequenceWtTm, 
                       __T0s11_UIntBufferVyxq_Gs22RandomAccessCollectionss17FixedWidthIntegerRzs08UnsignedH0RzsAER_sAFR_r0_l11SubSequences013BidirectionalE0PWT, 
                       __T0s11_UIntBufferVyxq_Gs22RandomAccessCollectionss17FixedWidthIntegerRzs08UnsignedH0RzsAER_sAFR_r0_l11SubSequences01_cD9IndexablePWT, 
                       __T0s11_UIntBufferVyxq_Gs22RandomAccessCollectionss17FixedWidthIntegerRzs08UnsignedH0RzsAER_sAFR_r0_l7IndicesWt, 
                       __T0s11_UIntBufferVyxq_Gs22RandomAccessCollectionss17FixedWidthIntegerRzs08UnsignedH0RzsAER_sAFR_r0_l7Indicess013BidirectionalE0PWT, 
                       __T0s11_UIntBufferVyxq_Gs22RandomAccessCollectionss17FixedWidthIntegerRzs08UnsignedH0RzsAER_sAFR_r0_l7Indicess01_cD9IndexablePWT, 
                       __T0s11_UIntBufferVyxq_Gs22RandomAccessCollectionss17FixedWidthIntegerRzs08UnsignedH0RzsAER_sAFR_r0_lMA, 
                       __T0s11_UIntBufferVyxq_Gs22RandomAccessCollectionss17FixedWidthIntegerRzs08UnsignedH0RzsAER_sAFR_r0_lWG, 
                       __T0s11_UIntBufferVyxq_Gs22RandomAccessCollectionss17FixedWidthIntegerRzs08UnsignedH0RzsAER_sAFR_r0_lWI, 
                       __T0s11_UIntBufferVyxq_Gs22RandomAccessCollectionss17FixedWidthIntegerRzs08UnsignedH0RzsAER_sAFR_r0_lWP, 
                       __T0s11_UIntBufferVyxq_Gs22RandomAccessCollectionss17FixedWidthIntegerRzs08UnsignedH0RzsAER_sAFR_r0_lWa, 
                       __T0s11_UIntBufferVyxq_Gs22_RandomAccessIndexabless17FixedWidthIntegerRzs08UnsignedH0RzsAER_sAFR_r0_lWG, 
                       __T0s11_UIntBufferVyxq_Gs22_RandomAccessIndexabless17FixedWidthIntegerRzs08UnsignedH0RzsAER_sAFR_r0_lWI, 
                       __T0s11_UIntBufferVyxq_Gs22_RandomAccessIndexabless17FixedWidthIntegerRzs08UnsignedH0RzsAER_sAFR_r0_lWP, 
                       __T0s11_UIntBufferVyxq_Gs22_RandomAccessIndexabless17FixedWidthIntegerRzs08UnsignedH0RzsAER_sAFR_r0_lWa, 
                       __T0s11_UIntBufferVyxq_Gs23BidirectionalCollectionss17FixedWidthIntegerRzs08UnsignedG0RzsAER_sAFR_r0_l11SubSequenceWt, 
                       __T0s11_UIntBufferVyxq_Gs23BidirectionalCollectionss17FixedWidthIntegerRzs08UnsignedG0RzsAER_sAFR_r0_l11SubSequences01_C9IndexablePWT, 
                       __T0s11_UIntBufferVyxq_Gs23BidirectionalCollectionss17FixedWidthIntegerRzs08UnsignedG0RzsAER_sAFR_r0_l11SubSequences0D0PWT, 
                       __T0s11_UIntBufferVyxq_Gs23BidirectionalCollectionss17FixedWidthIntegerRzs08UnsignedG0RzsAER_sAFR_r0_l7IndicesWt, 
                       __T0s11_UIntBufferVyxq_Gs23BidirectionalCollectionss17FixedWidthIntegerRzs08UnsignedG0RzsAER_sAFR_r0_l7Indicess01_C9IndexablePWT, 
                       __T0s11_UIntBufferVyxq_Gs23BidirectionalCollectionss17FixedWidthIntegerRzs08UnsignedG0RzsAER_sAFR_r0_l7Indicess0D0PWT, 
                       __T0s11_UIntBufferVyxq_Gs23BidirectionalCollectionss17FixedWidthIntegerRzs08UnsignedG0RzsAER_sAFR_r0_lMA, 
                       __T0s11_UIntBufferVyxq_Gs23BidirectionalCollectionss17FixedWidthIntegerRzs08UnsignedG0RzsAER_sAFR_r0_lWG, 
                       __T0s11_UIntBufferVyxq_Gs23BidirectionalCollectionss17FixedWidthIntegerRzs08UnsignedG0RzsAER_sAFR_r0_lWI, 
                       __T0s11_UIntBufferVyxq_Gs23BidirectionalCollectionss17FixedWidthIntegerRzs08UnsignedG0RzsAER_sAFR_r0_lWP, 
                       __T0s11_UIntBufferVyxq_Gs23BidirectionalCollectionss17FixedWidthIntegerRzs08UnsignedG0RzsAER_sAFR_r0_lWa, 
                       __T0s11_UIntBufferVyxq_Gs23_BidirectionalIndexabless17FixedWidthIntegerRzs08UnsignedG0RzsAER_sAFR_r0_lWG, 
                       __T0s11_UIntBufferVyxq_Gs23_BidirectionalIndexabless17FixedWidthIntegerRzs08UnsignedG0RzsAER_sAFR_r0_lWI, 
                       __T0s11_UIntBufferVyxq_Gs23_BidirectionalIndexabless17FixedWidthIntegerRzs08UnsignedG0RzsAER_sAFR_r0_lWP, 
                       __T0s11_UIntBufferVyxq_Gs23_BidirectionalIndexabless17FixedWidthIntegerRzs08UnsignedG0RzsAER_sAFR_r0_lWa, 
                       __T0s11_UIntBufferVyxq_Gs26RangeReplaceableCollectionss17FixedWidthIntegerRzs08UnsignedH0RzsAER_sAFR_r0_l11SubSequenceWt, 
                       __T0s11_UIntBufferVyxq_Gs26RangeReplaceableCollectionss17FixedWidthIntegerRzs08UnsignedH0RzsAER_sAFR_r0_l11SubSequences01_cD9IndexablePWT, 
                       __T0s11_UIntBufferVyxq_Gs26RangeReplaceableCollectionss17FixedWidthIntegerRzs08UnsignedH0RzsAER_sAFR_r0_lMA, 
                       __T0s11_UIntBufferVyxq_Gs26RangeReplaceableCollectionss17FixedWidthIntegerRzs08UnsignedH0RzsAER_sAFR_r0_lWG, 
                       __T0s11_UIntBufferVyxq_Gs26RangeReplaceableCollectionss17FixedWidthIntegerRzs08UnsignedH0RzsAER_sAFR_r0_lWI, 
                       __T0s11_UIntBufferVyxq_Gs26RangeReplaceableCollectionss17FixedWidthIntegerRzs08UnsignedH0RzsAER_sAFR_r0_lWP, 
                       __T0s11_UIntBufferVyxq_Gs26RangeReplaceableCollectionss17FixedWidthIntegerRzs08UnsignedH0RzsAER_sAFR_r0_lWa, 
                       __T0s11_UIntBufferVyxq_Gs26_RangeReplaceableIndexabless17FixedWidthIntegerRzs08UnsignedH0RzsAER_sAFR_r0_lWG, 
                       __T0s11_UIntBufferVyxq_Gs26_RangeReplaceableIndexabless17FixedWidthIntegerRzs08UnsignedH0RzsAER_sAFR_r0_lWI, 
                       __T0s11_UIntBufferVyxq_Gs26_RangeReplaceableIndexabless17FixedWidthIntegerRzs08UnsignedH0RzsAER_sAFR_r0_lWP, 
                       __T0s11_UIntBufferVyxq_Gs26_RangeReplaceableIndexabless17FixedWidthIntegerRzs08UnsignedH0RzsAER_sAFR_r0_lWa, 
                       __T0s11_UIntBufferVyxq_Gs8Sequencess17FixedWidthIntegerRzs08UnsignedF0RzsAER_sAFR_r0_l03SubC0Wt, 
                       __T0s11_UIntBufferVyxq_Gs8Sequencess17FixedWidthIntegerRzs08UnsignedF0RzsAER_sAFR_r0_l7ElementWt, 
                       __T0s11_UIntBufferVyxq_Gs8Sequencess17FixedWidthIntegerRzs08UnsignedF0RzsAER_sAFR_r0_l8IteratorWt, 
                       __T0s11_UIntBufferVyxq_Gs8Sequencess17FixedWidthIntegerRzs08UnsignedF0RzsAER_sAFR_r0_l8Iterators0H8ProtocolPWT, 
                       __T0s11_UIntBufferVyxq_Gs8Sequencess17FixedWidthIntegerRzs08UnsignedF0RzsAER_sAFR_r0_lMA, 
                       __T0s11_UIntBufferVyxq_Gs8Sequencess17FixedWidthIntegerRzs08UnsignedF0RzsAER_sAFR_r0_lWG, 
                       __T0s11_UIntBufferVyxq_Gs8Sequencess17FixedWidthIntegerRzs08UnsignedF0RzsAER_sAFR_r0_lWP, 
                       __T0s11_UIntBufferVyxq_Gs8Sequencess17FixedWidthIntegerRzs08UnsignedF0RzsAER_sAFR_r0_lWa, 
                       __T0s11_UIntBufferVyxq_Gs8Sequencess17FixedWidthIntegerRzs08UnsignedF0RzsAER_sAFR_r0_lsADP19underestimatedCountSifgTWTm, 
                       __T0s11_UIntBufferVyxq_Gs8Sequencess17FixedWidthIntegerRzs08UnsignedF0RzsAER_sAFR_r0_lsADP4drop03SubC0QzSb7ElementQzKc5while_tKFTWTm, 
                       __T0s11_UIntBufferVyxq_Gs8Sequencess17FixedWidthIntegerRzs08UnsignedF0RzsAER_sAFR_r0_lsADP9dropFirst03SubC0QzSiFTWTm, 
                       __T0s11_bitPatternSuBbF, __T0s11_debugPrintySayypG_SS9separatorSS10terminatorxz2tots16TextOutputStreamRzlF, 
                       __T0s11_debugPrintySayypG_SS9separatorSS10terminatorxz2tots16TextOutputStreamRzlFSS_Tgq5, 
                       __T0s11_debugPrintySayypG_SS9separatorSS10terminatorxz2tots16TextOutputStreamRzlFSS_Tgq5Tfq4ggXgXn_n, 
                       __T0s11_debugPrintySayypG_SS9separatorSS10terminatorxz2tots16TextOutputStreamRzlFTfq4ggXgXn_n, 
                       __T0s11_debugPrintySayypG_SS9separatorSS10terminatorxz2tots16TextOutputStreamRzlFfA0_, 
                       __T0s11_debugPrintySayypG_SS9separatorSS10terminatorxz2tots16TextOutputStreamRzlFfA0_Tfq4_n, 
                       __T0s11_debugPrintySayypG_SS9separatorSS10terminatorxz2tots16TextOutputStreamRzlFfA1_, 
                       __T0s11_debugPrintySayypG_SS9separatorSS10terminatorxz2tots16TextOutputStreamRzlFfA1_Tfq4_n, 
                       __T0s11_debugPrintySayypG_SS9separatorSS10terminatorxz2tots16TextOutputStreamRzlFs04_TeeH0VySSs7_StdoutVG_Tgq5, 
                       __T0s11_debugPrintySayypG_SS9separatorSS10terminatorxz2tots16TextOutputStreamRzlFs04_TeeH0VySSs7_StdoutVG_Tgq5Tfq4ggXgXn_n, 
                       __T0s11_debugPrintySayypG_SS9separatorSS10terminatorxz2tots16TextOutputStreamRzlFs7_StdoutV_Tgq5, 
                       __T0s11_debugPrintySayypG_SS9separatorSS10terminatorxz2tots16TextOutputStreamRzlFs7_StdoutV_Tgq5Tfq4ggXgXn_n, 
                       __T0s11_hashStringSiSSFTfq4gX_n, __T0s11_typeByNameypXpSgSSF, 
                       __T0s11sizeofValueSixlF, __T0s12AnyGeneratorVMF, 
                       __T0s12AnyGeneratorVMP, __T0s12AnyGeneratorVMa, 
                       __T0s12AnyGeneratorVMn, __T0s12AnyGeneratorVWV, 
                       __T0s12LazySequenceV5_basexfg, __T0s12LazySequenceV8elementsxfg, 
                       __T0s12LazySequenceVMF, __T0s12LazySequenceVMP, 
                       __T0s12LazySequenceVMa, __T0s12LazySequenceVMn, 
                       __T0s12LazySequenceVyxGs01_B7Wrapperss0B0Rzl03SubB0Wt, 
                       __T0s12LazySequenceVyxGs01_B7Wrapperss0B0Rzl4BaseWt, 
                       __T0s12LazySequenceVyxGs01_B7Wrapperss0B0Rzl4BasesAEPWT, 
                       __T0s12LazySequenceVyxGs01_B7Wrapperss0B0Rzl8IteratorWt, 
                       __T0s12LazySequenceVyxGs01_B7Wrapperss0B0RzlMA, 
                       __T0s12LazySequenceVyxGs01_B7Wrapperss0B0RzlWG, 
                       __T0s12LazySequenceVyxGs01_B7Wrapperss0B0RzlWI, 
                       __T0s12LazySequenceVyxGs01_B7Wrapperss0B0RzlWP, 
                       __T0s12LazySequenceVyxGs01_B7Wrapperss0B0RzlWa, 
                       __T0s12LazySequenceVyxGs0B0ssADRzl03SubB0Wt, __T0s12LazySequenceVyxGs0B0ssADRzl7ElementWt, 
                       __T0s12LazySequenceVyxGs0B0ssADRzl8IteratorWt, __T0s12LazySequenceVyxGs0B0ssADRzl8Iterators0C8ProtocolPWT, 
                       __T0s12LazySequenceVyxGs0B0ssADRzlMA, __T0s12LazySequenceVyxGs0B0ssADRzlWP, 
                       __T0s12LazySequenceVyxGs0B0ssADRzlWa, __T0s12LazySequenceVyxGs0B0ssADRzlsADP4drop03SubB0QzSb7ElementQzKc5while_tKFTWTm, 
                       __T0s12LazySequenceVyxGs0B0ssADRzlsADP9dropFirst03SubB0QzSiFTWTm, 
                       __T0s12LazySequenceVyxGs0aB8Protocolss0B0Rzl8ElementsWt, 
                       __T0s12LazySequenceVyxGs0aB8Protocolss0B0Rzl8ElementssAEPWT, 
                       __T0s12LazySequenceVyxGs0aB8Protocolss0B0RzlMA, 
                       __T0s12LazySequenceVyxGs0aB8Protocolss0B0RzlWG, 
                       __T0s12LazySequenceVyxGs0aB8Protocolss0B0RzlWI, 
                       __T0s12LazySequenceVyxGs0aB8Protocolss0B0RzlWP, 
                       __T0s12LazySequenceVyxGs0aB8Protocolss0B0RzlWa, 
                       __T0s12MemoryLayoutOMF, __T0s12MemoryLayoutOMP, 
                       __T0s12MemoryLayoutOMa, __T0s12MemoryLayoutOMn, 
                       __T0s12MemoryLayoutOWV, __T0s12MutableSliceV10startIndex0D0Qzfg, 
                       __T0s12MutableSliceV20_failEarlyRangeChecky5IndexQz_s0E0VyAEG6boundstF, 
                       __T0s12MutableSliceV20_failEarlyRangeCheckys0E0Vy5IndexQzG_AH6boundstF, 
                       __T0s12MutableSliceV4basexfg, __T0s12MutableSliceV5index5IndexQzAE5after_tF, 
                       __T0s12MutableSliceV5index5IndexQzAE_0D8DistanceQz8offsetBytF, 
                       __T0s12MutableSliceV5index5IndexQzSgAE_0D8DistanceQz8offsetByAE07limitedG0tF, 
                       __T0s12MutableSliceV8distance13IndexDistanceQz0D0Qz4from_AG2totF, 
                       __T0s12MutableSliceV8endIndex0D0Qzfg, __T0s12MutableSliceV9formIndexy0D0Qzz5after_tF, 
                       __T0s12MutableSliceV9subscript7ElementQz5IndexQzcfg, 
                       __T0s12MutableSliceV9subscript7ElementQz5IndexQzcfm, 
                       __T0s12MutableSliceV9subscript7ElementQz5IndexQzcfs, 
                       __T0s12MutableSliceV9subscriptAByxGs5RangeVy5IndexQzGcfg, 
                       __T0s12MutableSliceV9subscriptAByxGs5RangeVy5IndexQzGcfm, 
                       __T0s12MutableSliceV9subscriptAByxGs5RangeVy5IndexQzGcfs, 
                       __T0s12MutableSliceV9subscriptAByxGs5RangeVy5IndexQzGcfsTm, 
                       __T0s12MutableSliceVAByxGx4base_s5RangeVy5IndexQzG6boundstcfC, 
                       __T0s12MutableSliceVMF, __T0s12MutableSliceVMP, 
                       __T0s12MutableSliceVMa, __T0s12MutableSliceVMn, 
                       __T0s12MutableSliceVyxGs01_A9IndexablessADRzlWG, 
                       __T0s12MutableSliceVyxGs01_A9IndexablessADRzlWI, 
                       __T0s12MutableSliceVyxGs01_A9IndexablessADRzlWP, 
                       __T0s12MutableSliceVyxGs01_A9IndexablessADRzlWa, 
                       __T0s12MutableSliceVyxGs01_A9IndexablessADRzlsADP10startIndex0E0QzfgTWTm, 
                       __T0s12MutableSliceVyxGs01_A9IndexablessADRzlsADP20_failEarlyRangeChecky5IndexQz_s0F0VyAHG6boundstFTWTm, 
                       __T0s12MutableSliceVyxGs01_A9IndexablessADRzlsADP9formIndexy0E0Qzz5after_tFTWTm, 
                       __T0s12MutableSliceVyxGs01_A9IndexablessADRzlsADP9subscript7ElementQz5IndexQzcfgTWTm, 
                       __T0s12MutableSliceVyxGs0A10Collectionss01_A9IndexableRzl11SubSequenceWt, 
                       __T0s12MutableSliceVyxGs0A10Collectionss01_A9IndexableRzl11SubSequences0C0PWT, 
                       __T0s12MutableSliceVyxGs0A10Collectionss01_A9IndexableRzlMA, 
                       __T0s12MutableSliceVyxGs0A10Collectionss01_A9IndexableRzlWG, 
                       __T0s12MutableSliceVyxGs0A10Collectionss01_A9IndexableRzlWI, 
                       __T0s12MutableSliceVyxGs0A10Collectionss01_A9IndexableRzlWP, 
                       __T0s12MutableSliceVyxGs0A10Collectionss01_A9IndexableRzlWa, 
                       __T0s12MutableSliceVyxGs10Collectionss01_A9IndexableRzl11SubSequenceWt, 
                       __T0s12MutableSliceVyxGs10Collectionss01_A9IndexableRzl11SubSequences01_D4BasePWT, 
                       __T0s12MutableSliceVyxGs10Collectionss01_A9IndexableRzl11SubSequences0F0PWT, 
                       __T0s12MutableSliceVyxGs10Collectionss01_A9IndexableRzl13IndexDistanceWt, 
                       __T0s12MutableSliceVyxGs10Collectionss01_A9IndexableRzl7IndicesWt, 
                       __T0s12MutableSliceVyxGs10Collectionss01_A9IndexableRzl7Indicess01_D0PWT, 
                       __T0s12MutableSliceVyxGs10Collectionss01_A9IndexableRzl7Indicess8SequencePWT, 
                       __T0s12MutableSliceVyxGs10Collectionss01_A9IndexableRzl8IteratorWt, 
                       __T0s12MutableSliceVyxGs10Collectionss01_A9IndexableRzlMA, 
                       __T0s12MutableSliceVyxGs10Collectionss01_A9IndexableRzlWG, 
                       __T0s12MutableSliceVyxGs10Collectionss01_A9IndexableRzlWI, 
                       __T0s12MutableSliceVyxGs10Collectionss01_A9IndexableRzlWP, 
                       __T0s12MutableSliceVyxGs10Collectionss01_A9IndexableRzlWa, 
                       __T0s12MutableSliceVyxGs10Collectionss01_A9IndexableRzlsADP5index5IndexQzAI_0F8DistanceQz8offsetBytFTWTm, 
                       __T0s12MutableSliceVyxGs10_Indexabless01_aC0Rzl13IndexDistanceWt, 
                       __T0s12MutableSliceVyxGs10_Indexabless01_aC0Rzl13IndexDistances13SignedIntegerPWT, 
                       __T0s12MutableSliceVyxGs10_Indexabless01_aC0RzlMA, 
                       __T0s12MutableSliceVyxGs10_Indexabless01_aC0RzlWG, 
                       __T0s12MutableSliceVyxGs10_Indexabless01_aC0RzlWI, 
                       __T0s12MutableSliceVyxGs10_Indexabless01_aC0RzlWP, 
                       __T0s12MutableSliceVyxGs10_Indexabless01_aC0RzlWa, 
                       __T0s12MutableSliceVyxGs14_IndexableBasess01_aC0Rzl11SubSequenceWt, 
                       __T0s12MutableSliceVyxGs14_IndexableBasess01_aC0Rzl5IndexWt, 
                       __T0s12MutableSliceVyxGs14_IndexableBasess01_aC0Rzl5Indexs10ComparablePWT, 
                       __T0s12MutableSliceVyxGs14_IndexableBasess01_aC0Rzl7ElementWt, 
                       __T0s12MutableSliceVyxGs14_IndexableBasess01_aC0RzlMA, 
                       __T0s12MutableSliceVyxGs14_IndexableBasess01_aC0RzlWG, 
                       __T0s12MutableSliceVyxGs14_IndexableBasess01_aC0RzlWP, 
                       __T0s12MutableSliceVyxGs14_IndexableBasess01_aC0RzlWa, 
                       __T0s12MutableSliceVyxGs8Sequencess01_A9IndexableRzl03SubC0Wt, 
                       __T0s12MutableSliceVyxGs8Sequencess01_A9IndexableRzl7ElementWt, 
                       __T0s12MutableSliceVyxGs8Sequencess01_A9IndexableRzl8IteratorWt, 
                       __T0s12MutableSliceVyxGs8Sequencess01_A9IndexableRzl8Iterators0E8ProtocolPWT, 
                       __T0s12MutableSliceVyxGs8Sequencess01_A9IndexableRzlMA, 
                       __T0s12MutableSliceVyxGs8Sequencess01_A9IndexableRzlWG, 
                       __T0s12MutableSliceVyxGs8Sequencess01_A9IndexableRzlWP, 
                       __T0s12MutableSliceVyxGs8Sequencess01_A9IndexableRzlWa, 
                       __T0s12StaticStringV11descriptionSSfg, __T0s12StaticStringV11stringValueSSfg, 
                       __T0s12StaticStringV12customMirrors0D0Vfg, __T0s12StaticStringV14withUTF8BufferxxSRys5UInt8VGclF, 
                       __T0s12StaticStringV16debugDescriptionSSfg, __T0s12StaticStringV8byteSizeSifg, 
                       __T0s12StaticStringVMF, __T0s12StaticStringVMa, 
                       __T0s12StaticStringVMf, __T0s12StaticStringVMn, 
                       __T0s12StaticStringVN, __T0s12StaticStringVWV, __T0s12StaticStringVs011CustomDebugB11ConvertiblesWP, 
                       __T0s12StaticStringVs011CustomDebugB11ConvertiblesWa, 
                       __T0s12StaticStringVs013ExpressibleByB7LiteralsMA, 
                       __T0s12StaticStringVs013ExpressibleByB7LiteralsWP, 
                       __T0s12StaticStringVs013ExpressibleByB7LiteralsWa, 
                       __T0s12StaticStringVs021_ExpressibleByBuiltinB7LiteralsWP, 
                       __T0s12StaticStringVs021_ExpressibleByBuiltinB7LiteralsWa, 
                       __T0s12StaticStringVs06CustomB11ConvertiblesWP, 
                       __T0s12StaticStringVs06CustomB11ConvertiblesWa, 
                       __T0s12StaticStringVs17CustomReflectablesWP, __T0s12StaticStringVs17CustomReflectablesWa, 
                       __T0s12StaticStringVs33ExpressibleByUnicodeScalarLiteralsMA, 
                       __T0s12StaticStringVs33ExpressibleByUnicodeScalarLiteralsWP, 
                       __T0s12StaticStringVs33ExpressibleByUnicodeScalarLiteralsWa, 
                       __T0s12StaticStringVs41_ExpressibleByBuiltinUnicodeScalarLiteralsWP, 
                       __T0s12StaticStringVs41_ExpressibleByBuiltinUnicodeScalarLiteralsWa, 
                       __T0s12StaticStringVs43ExpressibleByExtendedGraphemeClusterLiteralsMA, 
                       __T0s12StaticStringVs43ExpressibleByExtendedGraphemeClusterLiteralsWP, 
                       __T0s12StaticStringVs43ExpressibleByExtendedGraphemeClusterLiteralsWa, 
                       __T0s12StaticStringVs51_ExpressibleByBuiltinExtendedGraphemeClusterLiteralsWP, 
                       __T0s12StaticStringVs51_ExpressibleByBuiltinExtendedGraphemeClusterLiteralsWa, 
                       __T0s12UnicodeCodecMp, __T0s12UnicodeCodecPsE19_nullCodeUnitOffsetSiSPy0dE0QzG2in_tFZ, 
                       __T0s12UnicodeCodecPsE6encodeys0A0O6ScalarV_y8CodeUnitQzc6outputtFZ, 
                       __T0s12UnicodeCodec_pMF, __T0s12Zip2IteratorV4next7ElementQz_ADQy_tSgyF, 
                       __T0s12Zip2IteratorVMF, __T0s12Zip2IteratorVMP, 
                       __T0s12Zip2IteratorVMa, __T0s12Zip2IteratorVMn, 
                       __T0s12Zip2IteratorVyxq_Gs0B8ProtocolssADRzsADR_r0_l7ElementWt, 
                       __T0s12Zip2IteratorVyxq_Gs0B8ProtocolssADRzsADR_r0_lMA, 
                       __T0s12Zip2IteratorVyxq_Gs0B8ProtocolssADRzsADR_r0_lWG, 
                       __T0s12Zip2IteratorVyxq_Gs0B8ProtocolssADRzsADR_r0_lWP, 
                       __T0s12Zip2IteratorVyxq_Gs0B8ProtocolssADRzsADR_r0_lWa, 
                       __T0s12Zip2SequenceV12makeIterators0aD0Vy0D0QzAFQy_GyF, 
                       __T0s12Zip2SequenceVAByxq_Gx10_sequence1_q_10_sequence2tcfC, 
                       __T0s12Zip2SequenceVAByxq_Gx_q_tcfC, __T0s12Zip2SequenceVMF, 
                       __T0s12Zip2SequenceVMP, __T0s12Zip2SequenceVMa, 
                       __T0s12Zip2SequenceVMn, __T0s12Zip2SequenceVyxq_Gs0B0ssADRzsADR_r0_l03SubB0Wt, 
                       __T0s12Zip2SequenceVyxq_Gs0B0ssADRzsADR_r0_l7ElementWt, 
                       __T0s12Zip2SequenceVyxq_Gs0B0ssADRzsADR_r0_l8IteratorWt, 
                       __T0s12Zip2SequenceVyxq_Gs0B0ssADRzsADR_r0_l8Iterators0C8ProtocolPWT, 
                       __T0s12Zip2SequenceVyxq_Gs0B0ssADRzsADR_r0_lMA, 
                       __T0s12Zip2SequenceVyxq_Gs0B0ssADRzsADR_r0_lWG, 
                       __T0s12Zip2SequenceVyxq_Gs0B0ssADRzsADR_r0_lWP, 
                       __T0s12Zip2SequenceVyxq_Gs0B0ssADRzsADR_r0_lWa, 
                       __T0s12Zip2SequenceVyxq_Gs0B0ssADRzsADR_r0_lsADP4drop03SubB0QzSb7ElementQzKc5while_tKFTWTm, 
                       __T0s12Zip2SequenceVyxq_Gs0B0ssADRzsADR_r0_lsADP9dropFirst03SubB0QzSiFTWTm, 
                       __T0s12_AnyIndexBoxMp, __T0s12_AnyIndexBox_pMF, 
                       __T0s12_ArrayBufferV010withUnsafeB7Pointerqd__qd__SRyxGKcKlF, 
                       __T0s12_ArrayBufferV013requestNativeB0s011_ContiguousaB0VyxGSgyF, 
                       __T0s12_ArrayBufferV017withUnsafeMutableB7Pointerqd__qd__SryxGKcKlF, 
                       __T0s12_ArrayBufferV027requestUniqueMutableBackingB0s011_ContiguousaB0VyxGSgSi15minimumCapacity_tF, 
                       __T0s12_ArrayBufferV08_asCocoaA0s12_NSArrayCore_pyF, 
                       __T0s12_ArrayBufferV10_nonNatives12_NSArrayCore_pfg, 
                       __T0s12_ArrayBufferV10_typeCheckys5RangeVySiGF, 
                       __T0s12_ArrayBufferV10getElementxSi_Sb20wasNativeTypeCheckedtF, 
                       __T0s12_ArrayBufferV10startIndexSifg, __T0s12_ArrayBufferV11nativeOwneryXlfg, 
                       __T0s12_ArrayBufferV13_copyContentsSpyxGs5RangeVySiG03subE0_AD12initializingtF, 
                       __T0s12_ArrayBufferV18_nativeTypeCheckeds011_ContiguousaB0VyxGfg, 
                       __T0s12_ArrayBufferV18_typeCheckSlowPathySiF, __T0s12_ArrayBufferV19_getElementSlowPathyXlSiF, 
                       __T0s12_ArrayBufferV19firstElementAddressSpyxGfg, 
                       __T0s12_ArrayBufferV20_isNativeTypeCheckedSbfg, 
                       __T0s12_ArrayBufferV20isUniquelyReferencedSbyF, 
                       __T0s12_ArrayBufferV20isUniquelyReferencedSbyFTm, 
                       __T0s12_ArrayBufferV21deferredTypeCheckMaskSifg, 
                       __T0s12_ArrayBufferV21needsElementTypeCheckSbfg, 
                       __T0s12_ArrayBufferV26_checkInoutAndNativeBoundsySi_Sb03wasF0tF, 
                       __T0s12_ArrayBufferV28isUniquelyReferencedOrPinnedSbyF, 
                       __T0s12_ArrayBufferV30isMutableAndUniquelyReferencedSbyF, 
                       __T0s12_ArrayBufferV31firstElementAddressIfContiguousSpyxGSgfg, 
                       __T0s12_ArrayBufferV32arrayPropertyIsNativeTypeCheckedSbfg, 
                       __T0s12_ArrayBufferV37_checkInoutAndNativeTypeCheckedBoundsySi_Sb03wasfgH0tF, 
                       __T0s12_ArrayBufferV38isMutableAndUniquelyReferencedOrPinnedSbyF, 
                       __T0s12_ArrayBufferV4castAByqd__Gqd__m02toB2Of_tlF, 
                       __T0s12_ArrayBufferV5countSifg, __T0s12_ArrayBufferV5countSifm, 
                       __T0s12_ArrayBufferV5countSifs, __T0s12_ArrayBufferV5owneryXlfg, 
                       __T0s12_ArrayBufferV7_natives011_ContiguousaB0VyxGfg, 
                       __T0s12_ArrayBufferV8capacitySifg, __T0s12_ArrayBufferV8downcastAByqd__Gqd__m02toB23WithDeferredTypeCheckOf_tlF, 
                       __T0s12_ArrayBufferV8endIndexSifg, __T0s12_ArrayBufferV8identitySVfg, 
                       __T0s12_ArrayBufferV9_isNativeSbfg, __T0s12_ArrayBufferV9subscripts06_SliceB0VyxGs5RangeVySiGcfg, 
                       __T0s12_ArrayBufferV9subscripts06_SliceB0VyxGs5RangeVySiGcfm, 
                       __T0s12_ArrayBufferV9subscripts06_SliceB0VyxGs5RangeVySiGcfs, 
                       __T0s12_ArrayBufferV9subscriptxSicfg, __T0s12_ArrayBufferV9subscriptxSicfm, 
                       __T0s12_ArrayBufferV9subscriptxSicfs, __T0s12_ArrayBufferVAByxGs011_ContiguousaB0VyxG7_buffer_Si19shiftedToStartIndextcfC, 
                       __T0s12_ArrayBufferVAByxGs12_NSArrayCore_p02nsA0_tcfC, 
                       __T0s12_ArrayBufferVAByxGs14_BridgeStorageVys011_ContiguousaD4BaseCs12_NSArrayCore_pG7storage_tcfC, 
                       __T0s12_ArrayBufferVAByxGycfC, __T0s12_ArrayBufferVMF, 
                       __T0s12_ArrayBufferVMP, __T0s12_ArrayBufferVMa, 
                       __T0s12_ArrayBufferVMn, __T0s12_ArrayBufferVWV, 
                       __T0s12_ArrayBufferVyxGs01_aB8ProtocolslMA, __T0s12_ArrayBufferVyxGs01_aB8ProtocolslWG, 
                       __T0s12_ArrayBufferVyxGs01_aB8ProtocolslWI, __T0s12_ArrayBufferVyxGs01_aB8ProtocolslWP, 
                       __T0s12_ArrayBufferVyxGs01_aB8ProtocolslWa, __T0s12_ArrayBufferVyxGs10Collectionsl11SubSequenceWt, 
                       __T0s12_ArrayBufferVyxGs10Collectionsl11SubSequences0E0PWT, 
                       __T0s12_ArrayBufferVyxGs10Collectionsl11SubSequences14_IndexableBasePWT, 
                       __T0s12_ArrayBufferVyxGs10Collectionsl8IteratorWt, 
                       __T0s12_ArrayBufferVyxGs10CollectionslMA, __T0s12_ArrayBufferVyxGs10CollectionslWG, 
                       __T0s12_ArrayBufferVyxGs10CollectionslWI, __T0s12_ArrayBufferVyxGs10CollectionslWP, 
                       __T0s12_ArrayBufferVyxGs10CollectionslWa, __T0s12_ArrayBufferVyxGs10CollectionslsADP12makeIterator0E0QzyFTWTm, 
                       __T0s12_ArrayBufferVyxGs10CollectionslsADP5index5IndexQzAH_0E8DistanceQz8offsetBytFTWTm, 
                       __T0s12_ArrayBufferVyxGs10CollectionslsADP6prefix11SubSequenceQz5IndexQz4upTo_tFTWTm, 
                       __T0s12_ArrayBufferVyxGs10CollectionslsADP9subscript11SubSequenceQzs5RangeVy5IndexQzGcfgTWTm, 
                       __T0s12_ArrayBufferVyxGs10_IndexableslMA, __T0s12_ArrayBufferVyxGs10_IndexableslWG, 
                       __T0s12_ArrayBufferVyxGs10_IndexableslWI, __T0s12_ArrayBufferVyxGs10_IndexableslWP, 
                       __T0s12_ArrayBufferVyxGs10_IndexableslWa, __T0s12_ArrayBufferVyxGs14_IndexableBasesl11SubSequenceWt, 
                       __T0s12_ArrayBufferVyxGs14_IndexableBasesl7ElementWt, 
                       __T0s12_ArrayBufferVyxGs14_IndexableBaseslMA, __T0s12_ArrayBufferVyxGs14_IndexableBaseslWG, 
                       __T0s12_ArrayBufferVyxGs14_IndexableBaseslWP, __T0s12_ArrayBufferVyxGs14_IndexableBaseslWa, 
                       __T0s12_ArrayBufferVyxGs14_IndexableBaseslsADP5index5IndexQzAH5after_tFTWTm, 
                       __T0s12_ArrayBufferVyxGs14_IndexableBaseslsADP9formIndexy0F0Qzz5after_tFTWTm, 
                       __T0s12_ArrayBufferVyxGs17MutableCollectionsl11SubSequenceWt, 
                       __T0s12_ArrayBufferVyxGs17MutableCollectionsl11SubSequences0D0PWT, 
                       __T0s12_ArrayBufferVyxGs17MutableCollectionslMA, 
                       __T0s12_ArrayBufferVyxGs17MutableCollectionslWG, 
                       __T0s12_ArrayBufferVyxGs17MutableCollectionslWI, 
                       __T0s12_ArrayBufferVyxGs17MutableCollectionslWP, 
                       __T0s12_ArrayBufferVyxGs17MutableCollectionslWa, 
                       __T0s12_ArrayBufferVyxGs17_MutableIndexableslWG, 
                       __T0s12_ArrayBufferVyxGs17_MutableIndexableslWI, 
                       __T0s12_ArrayBufferVyxGs17_MutableIndexableslWP, 
                       __T0s12_ArrayBufferVyxGs17_MutableIndexableslWa, 
                       __T0s12_ArrayBufferVyxGs22RandomAccessCollectionsl11SubSequenceWt, 
                       __T0s12_ArrayBufferVyxGs22RandomAccessCollectionsl11SubSequences013BidirectionalE0PWT, 
                       __T0s12_ArrayBufferVyxGs22RandomAccessCollectionsl11SubSequences01_cD9IndexablePWT, 
                       __T0s12_ArrayBufferVyxGs22RandomAccessCollectionslMA, 
                       __T0s12_ArrayBufferVyxGs22RandomAccessCollectionslWG, 
                       __T0s12_ArrayBufferVyxGs22RandomAccessCollectionslWI, 
                       __T0s12_ArrayBufferVyxGs22RandomAccessCollectionslWP, 
                       __T0s12_ArrayBufferVyxGs22RandomAccessCollectionslWa, 
                       __T0s12_ArrayBufferVyxGs22_RandomAccessIndexableslWG, 
                       __T0s12_ArrayBufferVyxGs22_RandomAccessIndexableslWI, 
                       __T0s12_ArrayBufferVyxGs22_RandomAccessIndexableslWP, 
                       __T0s12_ArrayBufferVyxGs22_RandomAccessIndexableslWa, 
                       __T0s12_ArrayBufferVyxGs23BidirectionalCollectionsl11SubSequenceWt, 
                       __T0s12_ArrayBufferVyxGs23BidirectionalCollectionsl11SubSequences01_C9IndexablePWT, 
                       __T0s12_ArrayBufferVyxGs23BidirectionalCollectionsl11SubSequences0D0PWT, 
                       __T0s12_ArrayBufferVyxGs23BidirectionalCollectionslMA, 
                       __T0s12_ArrayBufferVyxGs23BidirectionalCollectionslWG, 
                       __T0s12_ArrayBufferVyxGs23BidirectionalCollectionslWI, 
                       __T0s12_ArrayBufferVyxGs23BidirectionalCollectionslWP, 
                       __T0s12_ArrayBufferVyxGs23BidirectionalCollectionslWa, 
                       __T0s12_ArrayBufferVyxGs23_BidirectionalIndexableslWG, 
                       __T0s12_ArrayBufferVyxGs23_BidirectionalIndexableslWI, 
                       __T0s12_ArrayBufferVyxGs23_BidirectionalIndexableslWP, 
                       __T0s12_ArrayBufferVyxGs23_BidirectionalIndexableslWa, 
                       __T0s12_ArrayBufferVyxGs8Sequencesl03SubC0Wt, __T0s12_ArrayBufferVyxGs8Sequencesl7ElementWt, 
                       __T0s12_ArrayBufferVyxGs8Sequencesl8IteratorWt, 
                       __T0s12_ArrayBufferVyxGs8Sequencesl8Iterators0D8ProtocolPWT, 
                       __T0s12_ArrayBufferVyxGs8SequenceslMA, __T0s12_ArrayBufferVyxGs8SequenceslWG, 
                       __T0s12_ArrayBufferVyxGs8SequenceslWP, __T0s12_ArrayBufferVyxGs8SequenceslWa, 
                       __T0s12_ArrayBufferVyxGs8SequenceslsADP19underestimatedCountSifgTWTm, 
                       __T0s12_ArrayBufferVyxGs8SequenceslsADP4drop03SubC0QzSb7ElementQzKc5while_tKFTWTm, 
                       __T0s12_ArrayBufferVyxGs8SequenceslsADP9dropFirst03SubC0QzSiFTWTm, 
                       __T0s12_ClassMirrorV15quickLookObjects015PlaygroundQuickD0OSgfg, 
                       __T0s12_ClassMirrorVMF, __T0s12_ClassMirrorVMa, 
                       __T0s12_ClassMirrorVMf, __T0s12_ClassMirrorVMn, 
                       __T0s12_ClassMirrorVN, __T0s12_ClassMirrorVWV, __T0s12_ClassMirrorVs01_B0sWP, 
                       __T0s12_ClassMirrorVs01_B0sWa, __T0s12_ClassMirrorVs01_B0ssACP11dispositions01_B11DispositionOfgTW, 
                       __T0s12_ClassMirrorVs01_B0ssACP15quickLookObjects015PlaygroundQuickD0OSgfgTW, 
                       __T0s12_ClassMirrorVs01_B0ssACP16objectIdentifiers06ObjectD0VSgfgTW, 
                       __T0s12_ClassMirrorVs01_B0ssACP5countSifgTW, __T0s12_ClassMirrorVs01_B0ssACP5valueypfgTW, 
                       __T0s12_ClassMirrorVs01_B0ssACP7summarySSfgTW, __T0s12_ClassMirrorVs01_B0ssACP9subscriptSS_sAC_ptSicfgTW, 
                       __T0s12_ClassMirrorVs01_B0ssACP9valueTypeypXpfgTW, 
                       __T0s12_IteratorBoxC4next7ElementQzSgyF, __T0s12_IteratorBoxCAByxGxcfC, 
                       __T0s12_IteratorBoxCAByxGxcfc, __T0s12_IteratorBoxCMF, 
                       __T0s12_IteratorBoxCMP, __T0s12_IteratorBoxCMa, 
                       __T0s12_IteratorBoxCMn, __T0s12_IteratorBoxCfD, 
                       __T0s12_IteratorBoxCfE, __T0s12_NSArrayCore_pMF, 
                       __T0s12_SequenceBoxC10_dropFirsts04_AnyaB0Cy7ElementQzGSiF, 
                       __T0s12_SequenceBoxC13_makeIterators03AnyD0Vy7ElementQzGyF, 
                       __T0s12_SequenceBoxC14__copyContentss11AnyIteratorVy7ElementQzG_SitSryAGG12initializing_tF, 
                       __T0s12_SequenceBoxC19__preprocessingPassqd__Sgqd__yKcKlF, 
                       __T0s12_SequenceBoxC20_underestimatedCountSifg, 
                       __T0s12_SequenceBoxC23__copyToContiguousArrays0eF0Vy7ElementQzGyF, 
                       __T0s12_SequenceBoxC32__customContainsEquatableElementSbSg0F0QzF, 
                       __T0s12_SequenceBoxC4_mapSayqd__Gqd__7ElementQzKcKlF, 
                       __T0s12_SequenceBoxC5_drops04_AnyaB0Cy7ElementQzGSbAGKc5while_tKF, 
                       __T0s12_SequenceBoxC6_splitSays03AnyA0Vy7ElementQzGGSi9maxSplits_Sb25omittingEmptySubsequencesSbAGKc14whereSeparatortKF, 
                       __T0s12_SequenceBoxC6_splitSays03AnyA0Vy7ElementQzGGSi9maxSplits_Sb25omittingEmptySubsequencesSbAGKc14whereSeparatortKFAH03SubA0QzcfU_TA, 
                       __T0s12_SequenceBoxC7_filterSay7ElementQzGSbAEKcKF, 
                       __T0s12_SequenceBoxC7_prefixs04_AnyaB0Cy7ElementQzGSbAGKc5while_tKF, 
                       __T0s12_SequenceBoxC7_prefixs04_AnyaB0Cy7ElementQzGSiF, 
                       __T0s12_SequenceBoxC7_suffixs04_AnyaB0Cy7ElementQzGSiF, 
                       __T0s12_SequenceBoxC8_forEachyy7ElementQzKcKF, __T0s12_SequenceBoxC9_dropLasts04_AnyaB0Cy7ElementQzGSiF, 
                       __T0s12_SequenceBoxCAByxGx5_base_tcfC, __T0s12_SequenceBoxCAByxGx5_base_tcfc, 
                       __T0s12_SequenceBoxCMF, __T0s12_SequenceBoxCMP, 
                       __T0s12_SequenceBoxCMa, __T0s12_SequenceBoxCMn, 
                       __T0s12_SequenceBoxCfD, __T0s12_SequenceBoxCfE, 
                       __T0s12_SliceBufferV010_hasNativeB0Sbfg, __T0s12_SliceBufferV010withUnsafeB7Pointerqd__qd__SRyxGKcKlF, 
                       __T0s12_SliceBufferV013requestNativeB0s016_ContiguousArrayB0VyxGSgyF, 
                       __T0s12_SliceBufferV017withUnsafeMutableB7Pointerqd__qd__SryxGKcKlF, 
                       __T0s12_SliceBufferV027requestUniqueMutableBackingB0s016_ContiguousArrayB0VyxGSgSi15minimumCapacity_tF, 
                       __T0s12_SliceBufferV06nativeB0s016_ContiguousArrayB0VyxGfg, 
                       __T0s12_SliceBufferV10getElementxSiF, __T0s12_SliceBufferV10startIndexSifg, 
                       __T0s12_SliceBufferV11nativeOwneryXlfg, __T0s12_SliceBufferV13_copyContentsSpyxGs5RangeVySiG03subE0_AD12initializingtF, 
                       __T0s12_SliceBufferV15_invariantCheckyyF, __T0s12_SliceBufferV15replaceSubrangeys5RangeVySiG_Si4withqd__10elementsOft7ElementQyd__Rszs10CollectionRd__lF, 
                       __T0s12_SliceBufferV19firstElementAddressSpyxGfg, 
                       __T0s12_SliceBufferV20_checkValidSubscriptySiF, 
                       __T0s12_SliceBufferV20isUniquelyReferencedSbyF, 
                       __T0s12_SliceBufferV20subscriptBaseAddressSpyxGfg, 
                       __T0s12_SliceBufferV22_copyToContiguousArrays0eF0VyxGyF, 
                       __T0s12_SliceBufferV28isUniquelyReferencedOrPinnedSbyF, 
                       __T0s12_SliceBufferV30isMutableAndUniquelyReferencedSbyF, 
                       __T0s12_SliceBufferV31firstElementAddressIfContiguousSpyxGSgfg, 
                       __T0s12_SliceBufferV32arrayPropertyIsNativeTypeCheckedSbfg, 
                       __T0s12_SliceBufferV38isMutableAndUniquelyReferencedOrPinnedSbyF, 
                       __T0s12_SliceBufferV5countSifg, __T0s12_SliceBufferV5countSifm, 
                       __T0s12_SliceBufferV5countSifs, __T0s12_SliceBufferV5owneryXlfg, 
                       __T0s12_SliceBufferV8capacitySifg, __T0s12_SliceBufferV8endIndexSifg, 
                       __T0s12_SliceBufferV8endIndexSifs, __T0s12_SliceBufferV8identitySVfg, 
                       __T0s12_SliceBufferV9subscriptAByxGs5RangeVySiGcfg, 
                       __T0s12_SliceBufferV9subscriptAByxGs5RangeVySiGcfm, 
                       __T0s12_SliceBufferV9subscriptAByxGs5RangeVySiGcfs, 
                       __T0s12_SliceBufferV9subscriptxSicfg, __T0s12_SliceBufferV9subscriptxSicfm, 
                       __T0s12_SliceBufferV9subscriptxSicfs, __T0s12_SliceBufferVAByxGs016_ContiguousArrayB0VyxG7_buffer_Si19shiftedToStartIndextcfC, 
                       __T0s12_SliceBufferVAByxGyXl5owner_SpyxG20subscriptBaseAddresss5RangeVySiG7indicesSb09hasNativeB0tcfC, 
                       __T0s12_SliceBufferVAByxGycfC, __T0s12_SliceBufferVMF, 
                       __T0s12_SliceBufferVMP, __T0s12_SliceBufferVMa, 
                       __T0s12_SliceBufferVMn, __T0s12_SliceBufferVWV, 
                       __T0s12_SliceBufferVyxGs06_ArrayB8ProtocolslMA, 
                       __T0s12_SliceBufferVyxGs06_ArrayB8ProtocolslWG, 
                       __T0s12_SliceBufferVyxGs06_ArrayB8ProtocolslWI, 
                       __T0s12_SliceBufferVyxGs06_ArrayB8ProtocolslWP, 
                       __T0s12_SliceBufferVyxGs06_ArrayB8ProtocolslWa, 
                       __T0s12_SliceBufferVyxGs06_ArrayB8ProtocolslsADP9subscript7ElementQzSicfgTW, 
                       __T0s12_SliceBufferVyxGs06_ArrayB8ProtocolslsADP9subscript7ElementQzSicfmTW, 
                       __T0s12_SliceBufferVyxGs06_ArrayB8ProtocolslsADP9subscript7ElementQzSicfsTW, 
                       __T0s12_SliceBufferVyxGs10Collectionsl11SubSequenceWt, 
                       __T0s12_SliceBufferVyxGs10Collectionsl11SubSequences0E0PWT, 
                       __T0s12_SliceBufferVyxGs10Collectionsl11SubSequences14_IndexableBasePWT, 
                       __T0s12_SliceBufferVyxGs10Collectionsl8IteratorWt, 
                       __T0s12_SliceBufferVyxGs10CollectionslMA, __T0s12_SliceBufferVyxGs10CollectionslWG, 
                       __T0s12_SliceBufferVyxGs10CollectionslWI, __T0s12_SliceBufferVyxGs10CollectionslWP, 
                       __T0s12_SliceBufferVyxGs10CollectionslWa, __T0s12_SliceBufferVyxGs10CollectionslsADP5index5IndexQzAH_0E8DistanceQz8offsetBytFTWTm, 
                       __T0s12_SliceBufferVyxGs10CollectionslsADP6prefix11SubSequenceQz5IndexQz4upTo_tFTWTm, 
                       __T0s12_SliceBufferVyxGs10CollectionslsADP9subscript7ElementQz5IndexQzcfgTW, 
                       __T0s12_SliceBufferVyxGs10_IndexableslMA, __T0s12_SliceBufferVyxGs10_IndexableslWG, 
                       __T0s12_SliceBufferVyxGs10_IndexableslWI, __T0s12_SliceBufferVyxGs10_IndexableslWP, 
                       __T0s12_SliceBufferVyxGs10_IndexableslWa, __T0s12_SliceBufferVyxGs14_IndexableBasesl11SubSequenceWt, 
                       __T0s12_SliceBufferVyxGs14_IndexableBasesl7ElementWt, 
                       __T0s12_SliceBufferVyxGs14_IndexableBaseslMA, __T0s12_SliceBufferVyxGs14_IndexableBaseslWG, 
                       __T0s12_SliceBufferVyxGs14_IndexableBaseslWP, __T0s12_SliceBufferVyxGs14_IndexableBaseslWa, 
                       __T0s12_SliceBufferVyxGs14_IndexableBaseslsADP5index5IndexQzAH5after_tFTWTm, 
                       __T0s12_SliceBufferVyxGs14_IndexableBaseslsADP9formIndexy0F0Qzz5after_tFTWTm, 
                       __T0s12_SliceBufferVyxGs14_IndexableBaseslsADP9subscript7ElementQz5IndexQzcfgTW, 
                       __T0s12_SliceBufferVyxGs17MutableCollectionsl11SubSequenceWt, 
                       __T0s12_SliceBufferVyxGs17MutableCollectionsl11SubSequences0D0PWT, 
                       __T0s12_SliceBufferVyxGs17MutableCollectionslMA, 
                       __T0s12_SliceBufferVyxGs17MutableCollectionslWG, 
                       __T0s12_SliceBufferVyxGs17MutableCollectionslWI, 
                       __T0s12_SliceBufferVyxGs17MutableCollectionslWP, 
                       __T0s12_SliceBufferVyxGs17MutableCollectionslWa, 
                       __T0s12_SliceBufferVyxGs17MutableCollectionslsADP9subscript7ElementQz5IndexQzcfgTW, 
                       __T0s12_SliceBufferVyxGs17MutableCollectionslsADP9subscript7ElementQz5IndexQzcfmTW, 
                       __T0s12_SliceBufferVyxGs17MutableCollectionslsADP9subscript7ElementQz5IndexQzcfsTW, 
                       __T0s12_SliceBufferVyxGs17_MutableIndexableslWG, 
                       __T0s12_SliceBufferVyxGs17_MutableIndexableslWI, 
                       __T0s12_SliceBufferVyxGs17_MutableIndexableslWP, 
                       __T0s12_SliceBufferVyxGs17_MutableIndexableslWa, 
                       __T0s12_SliceBufferVyxGs17_MutableIndexableslsADP9subscript7ElementQz5IndexQzcfgTW, 
                       __T0s12_SliceBufferVyxGs17_MutableIndexableslsADP9subscript7ElementQz5IndexQzcfmTW, 
                       __T0s12_SliceBufferVyxGs17_MutableIndexableslsADP9subscript7ElementQz5IndexQzcfsTW, 
                       __T0s12_SliceBufferVyxGs22RandomAccessCollectionsl11SubSequenceWt, 
                       __T0s12_SliceBufferVyxGs22RandomAccessCollectionsl11SubSequences013BidirectionalE0PWT, 
                       __T0s12_SliceBufferVyxGs22RandomAccessCollectionsl11SubSequences01_cD9IndexablePWT, 
                       __T0s12_SliceBufferVyxGs22RandomAccessCollectionslMA, 
                       __T0s12_SliceBufferVyxGs22RandomAccessCollectionslWG, 
                       __T0s12_SliceBufferVyxGs22RandomAccessCollectionslWI, 
                       __T0s12_SliceBufferVyxGs22RandomAccessCollectionslWP, 
                       __T0s12_SliceBufferVyxGs22RandomAccessCollectionslWa, 
                       __T0s12_SliceBufferVyxGs22_RandomAccessIndexableslWG, 
                       __T0s12_SliceBufferVyxGs22_RandomAccessIndexableslWI, 
                       __T0s12_SliceBufferVyxGs22_RandomAccessIndexableslWP, 
                       __T0s12_SliceBufferVyxGs22_RandomAccessIndexableslWa, 
                       __T0s12_SliceBufferVyxGs23BidirectionalCollectionsl11SubSequenceWt, 
                       __T0s12_SliceBufferVyxGs23BidirectionalCollectionsl11SubSequences01_C9IndexablePWT, 
                       __T0s12_SliceBufferVyxGs23BidirectionalCollectionsl11SubSequences0D0PWT, 
                       __T0s12_SliceBufferVyxGs23BidirectionalCollectionslMA, 
                       __T0s12_SliceBufferVyxGs23BidirectionalCollectionslWG, 
                       __T0s12_SliceBufferVyxGs23BidirectionalCollectionslWI, 
                       __T0s12_SliceBufferVyxGs23BidirectionalCollectionslWP, 
                       __T0s12_SliceBufferVyxGs23BidirectionalCollectionslWa, 
                       __T0s12_SliceBufferVyxGs23BidirectionalCollectionslsADP4last7ElementQzSgfgTWTm, 
                       __T0s12_SliceBufferVyxGs23_BidirectionalIndexableslWG, 
                       __T0s12_SliceBufferVyxGs23_BidirectionalIndexableslWI, 
                       __T0s12_SliceBufferVyxGs23_BidirectionalIndexableslWP, 
                       __T0s12_SliceBufferVyxGs23_BidirectionalIndexableslWa, 
                       __T0s12_SliceBufferVyxGs8Sequencesl03SubC0Wt, __T0s12_SliceBufferVyxGs8Sequencesl7ElementWt, 
                       __T0s12_SliceBufferVyxGs8Sequencesl8IteratorWt, 
                       __T0s12_SliceBufferVyxGs8Sequencesl8Iterators0D8ProtocolPWT, 
                       __T0s12_SliceBufferVyxGs8SequenceslMA, __T0s12_SliceBufferVyxGs8SequenceslWG, 
                       __T0s12_SliceBufferVyxGs8SequenceslWP, __T0s12_SliceBufferVyxGs8SequenceslWa, 
                       __T0s12_SliceBufferVyxGs8SequenceslsADP22_copyToContiguousArrays0fG0Vy7ElementQzGyFTW, 
                       __T0s12_SliceBufferVyxGs8SequenceslsADP4drop03SubC0QzSb7ElementQzKc5while_tKFTWTm, 
                       __T0s12_SliceBufferVyxGs8SequenceslsADP9dropFirst03SubC0QzSiFTWTm, 
                       __T0s12_TupleMirrorVMF, __T0s12_TupleMirrorVMa, 
                       __T0s12_TupleMirrorVMf, __T0s12_TupleMirrorVMn, 
                       __T0s12_TupleMirrorVN, __T0s12_TupleMirrorVWV, __T0s12_TupleMirrorVs01_B0sWP, 
                       __T0s12_TupleMirrorVs01_B0sWa, __T0s12_TupleMirrorVs01_B0ssACP11dispositions01_B11DispositionOfgTW, 
                       __T0s12_TupleMirrorVs01_B0ssACP15quickLookObjects015PlaygroundQuickD0OSgfgTW, 
                       __T0s12_TupleMirrorVs01_B0ssACP16objectIdentifiers06ObjectD0VSgfgTW, 
                       __T0s12_TupleMirrorVs01_B0ssACP5countSifgTW, __T0s12_TupleMirrorVs01_B0ssACP5valueypfgTW, 
                       __T0s12_TupleMirrorVs01_B0ssACP7summarySSfgTW, __T0s12_TupleMirrorVs01_B0ssACP9subscriptSS_sAC_ptSicfgTW, 
                       __T0s12_TupleMirrorVs01_B0ssACP9subscriptSS_sAC_ptSicfgTWTm, 
                       __T0s12_TupleMirrorVs01_B0ssACP9valueTypeypXpfgTW, 
                       __T0s12_compareSetsSb8isSubset_Sb0C5Equalts3SetVyxG_AFts8HashableRzlF, 
                       __T0s12_roundUpImplS2u_Si11toAlignmenttF, __T0s12_setDownCasts3SetVyq_GACyxGs8HashableRzsAFR_r0_lF, 
                       __T0s12alignofValueSixlF, __T0s12anyGenerators11AnyIteratorVy7ElementQzGxs0D8ProtocolRzlF, 
                       __T0s12anyGenerators11AnyIteratorVyxGxSgyclF, __T0s12unsafeUnwrapxxSglF, 
                       __T0s13AnyCollectionV10startIndexs0aD0Vfg, __T0s13AnyCollectionV12makeIterators0aD0VyxGyF, 
                       __T0s13AnyCollectionV13_copyContentss0A8IteratorVyxG_SitSryxG12initializing_tF, 
                       __T0s13AnyCollectionV18_preprocessingPassqd__Sgqd__yKcKlF, 
                       __T0s13AnyCollectionV18underestimateCountSiyF, __T0s13AnyCollectionV19underestimatedCountSifg, 
                       __T0s13AnyCollectionV20_failEarlyRangeCheckys0A5IndexV_s0E0VyAEG6boundstF, 
                       __T0s13AnyCollectionV20_failEarlyRangeCheckys0E0Vys0A5IndexVG_AH6boundstF, 
                       __T0s13AnyCollectionV22_copyToContiguousArrays0eF0VyxGyF, 
                       __T0s13AnyCollectionV31_customContainsEquatableElementSbSgxF, 
                       __T0s13AnyCollectionV3mapSayqd__Gqd__xKcKlF, __T0s13AnyCollectionV4dropAByxGSbxKc5while_tKF, 
                       __T0s13AnyCollectionV5counts5Int64Vfg, __T0s13AnyCollectionV5firstxSgfg, 
                       __T0s13AnyCollectionV5indexs0A5IndexVAE5after_tF, 
                       __T0s13AnyCollectionV5indexs0A5IndexVAE_s5Int64V8offsetBytF, 
                       __T0s13AnyCollectionV5indexs0A5IndexVSgAE_s5Int64V8offsetByAE07limitedG0tF, 
                       __T0s13AnyCollectionV5splitSayAByxGGSi9maxSplits_Sb25omittingEmptySubsequencesSbxKc14whereSeparatortKF, 
                       __T0s13AnyCollectionV5splitSayAByxGGSi9maxSplits_Sb25omittingEmptySubsequencesSbxKc14whereSeparatortKFfA0_, 
                       __T0s13AnyCollectionV5splitSayAByxGGSi9maxSplits_Sb25omittingEmptySubsequencesSbxKc14whereSeparatortKFfA_, 
                       __T0s13AnyCollectionV6_boxIDs16ObjectIdentifierVfg, 
                       __T0s13AnyCollectionV6filterSayxGSbxKcKF, __T0s13AnyCollectionV6prefixAByxGSbxKc5while_tKF, 
                       __T0s13AnyCollectionV6prefixAByxGSiF, __T0s13AnyCollectionV6suffixAByxGSiF, 
                       __T0s13AnyCollectionV7forEachyyxKcKF, __T0s13AnyCollectionV8distances5Int64Vs0A5IndexV4from_AG2totF, 
                       __T0s13AnyCollectionV8dropLastAByxGSiF, __T0s13AnyCollectionV8endIndexs0aD0Vfg, 
                       __T0s13AnyCollectionV9dropFirstAByxGSiF, __T0s13AnyCollectionV9formIndexSbs0aD0Vz_s5Int64V8offsetByAE07limitedG0tF, 
                       __T0s13AnyCollectionV9formIndexys0aD0Vz5after_tF, 
                       __T0s13AnyCollectionV9formIndexys0aD0Vz_s5Int64V8offsetBytF, 
                       __T0s13AnyCollectionV9subscriptAByxGs5RangeVys0A5IndexVGcfg, 
                       __T0s13AnyCollectionV9subscriptxs0A5IndexVcfg, __T0s13AnyCollectionVAByxGACcfC, 
                       __T0s13AnyCollectionVAByxGqd__c7ElementQyd__Rszs012RandomAccessB0Rd__sAF7IndicesRpd__sAF11SubSequenceRpd__sAfI_AGRPd__lufC, 
                       __T0s13AnyCollectionVAByxGqd__c7ElementQyd__Rszs013BidirectionalB0Rd__sAF7IndicesRpd__sAF11SubSequenceRpd__sAfI_AGRPd__lufC, 
                       __T0s13AnyCollectionVAByxGqd__c7ElementQyd__Rszs0B0Rd__sAF7IndicesRpd__sAF11SubSequenceRpd__sAfI_AGRPd__lufC, 
                       __T0s13AnyCollectionVAByxGqd__c7ElementQyd__Rszs0B0Rd__sAF7IndicesRpd__sAF11SubSequenceRpd__sAfI_AGRPd__lufCTm, 
                       __T0s13AnyCollectionVAByxGs01_aB3BoxCyxG4_box_tcfC, 
                       __T0s13AnyCollectionVAByxGs0a12RandomAccessB0VyxGcfC, 
                       __T0s13AnyCollectionVAByxGs0a13BidirectionalB0VyxGcfC, 
                       __T0s13AnyCollectionVMF, __T0s13AnyCollectionVMP, 
                       __T0s13AnyCollectionVMa, __T0s13AnyCollectionVMn, 
                       __T0s13AnyCollectionVWV, __T0s13AnyCollectionVyxGs01_aB8ProtocolslWG, 
                       __T0s13AnyCollectionVyxGs01_aB8ProtocolslWI, __T0s13AnyCollectionVyxGs01_aB8ProtocolslWP, 
                       __T0s13AnyCollectionVyxGs01_aB8ProtocolslWa, __T0s13AnyCollectionVyxGs0B0sl11SubSequenceWt, 
                       __T0s13AnyCollectionVyxGs0B0sl11SubSequences0D0PWT, 
                       __T0s13AnyCollectionVyxGs0B0sl11SubSequences14_IndexableBasePWT, 
                       __T0s13AnyCollectionVyxGs0B0sl7IndicesWt, __T0s13AnyCollectionVyxGs0B0sl7Indicess10_IndexablePWT, 
                       __T0s13AnyCollectionVyxGs0B0sl7Indicess8SequencePWT, 
                       __T0s13AnyCollectionVyxGs0B0sl8IteratorWt, __T0s13AnyCollectionVyxGs0B0slMA, 
                       __T0s13AnyCollectionVyxGs0B0slWG, __T0s13AnyCollectionVyxGs0B0slWI, 
                       __T0s13AnyCollectionVyxGs0B0slWP, __T0s13AnyCollectionVyxGs0B0slWa, 
                       __T0s13AnyCollectionVyxGs0B0slsADP5index5IndexQzAH_0D8DistanceQz8offsetBytFTWTm, 
                       __T0s13AnyCollectionVyxGs0B0slsADP5index5IndexQzSgAH_0D8DistanceQz8offsetByAH07limitedG0tFTWTm, 
                       __T0s13AnyCollectionVyxGs0B0slsADP6prefix11SubSequenceQz5IndexQz4upTo_tFTWTm, 
                       __T0s13AnyCollectionVyxGs0B0slsADP8distance13IndexDistanceQz0D0Qz4from_AJ2totFTWTm, 
                       __T0s13AnyCollectionVyxGs0B0slsADP9subscript11SubSequenceQzs5RangeVy5IndexQzGcfgTWTm, 
                       __T0s13AnyCollectionVyxGs10_IndexableslMA, __T0s13AnyCollectionVyxGs10_IndexableslWG, 
                       __T0s13AnyCollectionVyxGs10_IndexableslWI, __T0s13AnyCollectionVyxGs10_IndexableslWP, 
                       __T0s13AnyCollectionVyxGs10_IndexableslWa, __T0s13AnyCollectionVyxGs14_IndexableBasesl11SubSequenceWt, 
                       __T0s13AnyCollectionVyxGs14_IndexableBasesl7ElementWt, 
                       __T0s13AnyCollectionVyxGs14_IndexableBaseslMA, __T0s13AnyCollectionVyxGs14_IndexableBaseslWG, 
                       __T0s13AnyCollectionVyxGs14_IndexableBaseslWP, __T0s13AnyCollectionVyxGs14_IndexableBaseslWa, 
                       __T0s13AnyCollectionVyxGs14_IndexableBaseslsADP5index5IndexQzAH5after_tFTWTm, 
                       __T0s13AnyCollectionVyxGs8Sequencesl03SubC0Wt, __T0s13AnyCollectionVyxGs8Sequencesl7ElementWt, 
                       __T0s13AnyCollectionVyxGs8Sequencesl8IteratorWt, 
                       __T0s13AnyCollectionVyxGs8Sequencesl8Iterators0D8ProtocolPWT, 
                       __T0s13AnyCollectionVyxGs8SequenceslMA, __T0s13AnyCollectionVyxGs8SequenceslWG, 
                       __T0s13AnyCollectionVyxGs8SequenceslWP, __T0s13AnyCollectionVyxGs8SequenceslWa, 
                       __T0s13BinaryIntegerMp, __T0s13BinaryIntegerPsE15addWithOverflowx_Sb8overflowtx_xtFZ, 
                       __T0s13BinaryIntegerPsE18divideWithOverflowx_Sb8overflowtx_xtFZ, 
                       __T0s13BinaryIntegerPsE1goiSbx_xtFZ, __T0s13BinaryIntegerPsE1loiSbx_qd__tsAARd__lFZ, 
                       __T0s13BinaryIntegerPsE20multiplyWithOverflowx_Sb8overflowtx_xtFZ, 
                       __T0s13BinaryIntegerPsE20quotientAndRemainderx0C0_x9remaindertx10dividingBy_tF, 
                       __T0s13BinaryIntegerPsE20subtractWithOverflowx_Sb8overflowtx_xtFZ, 
                       __T0s13BinaryIntegerPsE21remainderWithOverflowx_Sb8overflowtx_xtFZ, 
                       __T0s13BinaryIntegerPsE2eeoiSbx_qd__tsAARd__lFZ, 
                       __T0s13BinaryIntegerPsE2geoiSbx_xtFZ, __T0s13BinaryIntegerPsE2ggoixx_qd__tsAARd__lFZ, 
                       __T0s13BinaryIntegerPsE2leoiSbx_xtFZ, __T0s13BinaryIntegerPsE2lloixx_qd__tsAARd__lFZ, 
                       __T0s13BinaryIntegerPsE8toIntMaxs5Int64VyF, __T0s13BinaryIntegerPsExSgqd__7exactly_tcs0A13FloatingPointRd__lufC, 
                       __T0s13BinaryInteger_pMF, __T0s13DecodingErrorO013dataCorruptedB0AB3KeyQz03forE0_x2inSS16debugDescriptionts05KeyedA17ContainerProtocolRzlFZ, 
                       __T0s13DecodingErrorO013dataCorruptedB0ABs011SingleValueA9Container_p2in_SS16debugDescriptiontFZ, 
                       __T0s13DecodingErrorO013dataCorruptedB0ABs07UnkeyedA9Container_p2in_SS16debugDescriptiontFZ, 
                       __T0s13DecodingErrorO5_codeSifg, __T0s13DecodingErrorO7ContextVADSays9CodingKey_pG10codingPath_SS16debugDescriptions0B0_pSg010underlyingB0tcfC, 
                       __T0s13DecodingErrorO7ContextVADSays9CodingKey_pG10codingPath_SS16debugDescriptions0B0_pSg010underlyingB0tcfcfA1_, 
                       __T0s13DecodingErrorO7ContextVMF, __T0s13DecodingErrorO7ContextVMa, 
                       __T0s13DecodingErrorO7ContextVMf, __T0s13DecodingErrorO7ContextVMn, 
                       __T0s13DecodingErrorO7ContextVN, __T0s13DecodingErrorO7ContextVWV, 
                       __T0s13DecodingErrorO7_domainSSfg, __T0s13DecodingErrorO9_userInfoyXlSgfg, 
                       __T0s13DecodingErrorOMB, __T0s13DecodingErrorOMF, 
                       __T0s13DecodingErrorOMa, __T0s13DecodingErrorOMf, 
                       __T0s13DecodingErrorOMn, __T0s13DecodingErrorON, 
                       __T0s13DecodingErrorOWV, __T0s13DecodingErrorOs0B0sWP, 
                       __T0s13DecodingErrorOs0B0sWa, __T0s13DecodingErrorOs0B0ssACP5_codeSifgTWTm, 
                       __T0s13EmptyIteratorV4nextxSgyF, __T0s13EmptyIteratorV8generateAByxGyF, 
                       __T0s13EmptyIteratorVAByxGycfC, __T0s13EmptyIteratorVMF, 
                       __T0s13EmptyIteratorVMP, __T0s13EmptyIteratorVMa, 
                       __T0s13EmptyIteratorVMn, __T0s13EmptyIteratorVWV, 
                       __T0s13EmptyIteratorVyxGs0B8Protocolsl7ElementWt, 
                       __T0s13EmptyIteratorVyxGs0B8ProtocolslMA, __T0s13EmptyIteratorVyxGs0B8ProtocolslWP, 
                       __T0s13EmptyIteratorVyxGs0B8ProtocolslWa, __T0s13EmptyIteratorVyxGs8Sequencesl03SubC0Wt, 
                       __T0s13EmptyIteratorVyxGs8Sequencesl0B0Wt, __T0s13EmptyIteratorVyxGs8Sequencesl0B0s0B8ProtocolPWT, 
                       __T0s13EmptyIteratorVyxGs8Sequencesl7ElementWt, 
                       __T0s13EmptyIteratorVyxGs8SequenceslMA, __T0s13EmptyIteratorVyxGs8SequenceslWG, 
                       __T0s13EmptyIteratorVyxGs8SequenceslWP, __T0s13EmptyIteratorVyxGs8SequenceslWa, 
                       __T0s13EmptyIteratorVyxGs8SequenceslsADP4drop03SubC0QzSb7ElementQzKc5while_tKFTWTm, 
                       __T0s13EmptyIteratorVyxGs8SequenceslsADP9dropFirst03SubC0QzSiFTWTm, 
                       __T0s13EncodingErrorO5_codeSifg, __T0s13EncodingErrorO7ContextVADSays9CodingKey_pG10codingPath_SS16debugDescriptions0B0_pSg010underlyingB0tcfC, 
                       __T0s13EncodingErrorO7ContextVADSays9CodingKey_pG10codingPath_SS16debugDescriptions0B0_pSg010underlyingB0tcfcfA1_, 
                       __T0s13EncodingErrorO7ContextVMF, __T0s13EncodingErrorO7ContextVMa, 
                       __T0s13EncodingErrorO7ContextVMf, __T0s13EncodingErrorO7ContextVMn, 
                       __T0s13EncodingErrorO7ContextVN, __T0s13EncodingErrorO7ContextVWV, 
                       __T0s13EncodingErrorO7ContextVwCpTm, __T0s13EncodingErrorO7_domainSSfg, 
                       __T0s13EncodingErrorO9_userInfoyXlSgfg, __T0s13EncodingErrorOMF, 
                       __T0s13EncodingErrorOMa, __T0s13EncodingErrorOMf, 
                       __T0s13EncodingErrorOMn, __T0s13EncodingErrorON, 
                       __T0s13EncodingErrorOWV, __T0s13EncodingErrorOs0B0sWP, 
                       __T0s13EncodingErrorOs0B0sWa, __T0s13FloatingPointMp, 
                       __T0s13FloatingPointPsE08floatingB5Classs0aB14ClassificationOfg, 
                       __T0s13FloatingPointPsE10multipliedxx2by_tF, __T0s13FloatingPointPsE11subtractingxxF, 
                       __T0s13FloatingPointPsE13_toBitPatternSuyF, __T0s13FloatingPointPsE15_fromBitPatternxSuFZ, 
                       __T0s13FloatingPointPsE16maximumMagnitudexx_xtFZ, 
                       __T0s13FloatingPointPsE16minimumMagnitudexx_xtFZ, 
                       __T0s13FloatingPointPsE3addyxF, __T0s13FloatingPointPsE6addingxxF, 
                       __T0s13FloatingPointPsE6divideyx2by_tF, __T0s13FloatingPointPsE7dividedxx2by_tF, 
                       __T0s13FloatingPointPsE7maximumxx_xtFZ, __T0s13FloatingPointPsE7minimumxx_xtFZ, 
                       __T0s13FloatingPointPsE7negatedxyF, __T0s13FloatingPointPsE8multiplyyx2by_tF, 
                       __T0s13FloatingPointPsE8subtractyxF, __T0s13FloatingPointPsE8ulpOfOnexfgZ, 
                       __T0s13FloatingPoint_pMF, __T0s13JoinGeneratorVMF, 
                       __T0s13JoinGeneratorVMP, __T0s13JoinGeneratorVMa, 
                       __T0s13JoinGeneratorVMn, __T0s13JoinGeneratorVWV, 
                       __T0s13KeyPathBufferV6HeaderVMF, __T0s13KeyPathBufferV6HeaderVMa, 
                       __T0s13KeyPathBufferV6HeaderVMf, __T0s13KeyPathBufferV6HeaderVMn, 
                       __T0s13KeyPathBufferV6HeaderVN, __T0s13KeyPathBufferV6HeaderVWV, 
                       __T0s13KeyPathBufferV6popRaws06UnsafeeC7PointerVSi4size_Si9alignmenttF, 
                       __T0s13KeyPathBufferVMF, __T0s13KeyPathBufferVMa, 
                       __T0s13KeyPathBufferVMf, __T0s13KeyPathBufferVMn, 
                       __T0s13KeyPathBufferVN, __T0s13KeyPathBufferVWV, 
                       __T0s13ManagedBufferC25withUnsafeMutablePointersqd__qd__SpyxG_Spyq_GtKcKlF, 
                       __T0s13ManagedBufferC32withUnsafeMutablePointerToHeaderqd__qd__SpyxGKcKlF, 
                       __T0s13ManagedBufferC34withUnsafeMutablePointerToElementsqd__qd__Spyq_GKcKlF, 
                       __T0s13ManagedBufferC6createAByxq_GSi15minimumCapacity_xADKc16makingHeaderWithtKFZ, 
                       __T0s13ManagedBufferC6createAByxq_GSi_xADc12initialValuetFZ, 
                       __T0s13ManagedBufferC8capacitySifg, __T0s13ManagedBufferCAByxq_Gyt12_doNotCallMe_tcfC, 
                       __T0s13ManagedBufferCAByxq_Gyt12_doNotCallMe_tcfc, 
                       __T0s13ManagedBufferCMF, __T0s13ManagedBufferCMP, 
                       __T0s13ManagedBufferCMa, __T0s13ManagedBufferCMn, 
                       __T0s13ManagedBufferCfD, __T0s13ManagedBufferCfd, 
                       __T0s13OpaquePointerV16_cVarArgEncodingSaySiGfg, 
                       __T0s13OpaquePointerV16debugDescriptionSSfg, __T0s13OpaquePointerV2eeoiSbAB_ABtFZ, 
                       __T0s13OpaquePointerV9hashValueSifg, __T0s13OpaquePointerVABSVcfC, 
                       __T0s13OpaquePointerVABSgSVSgcfC, __T0s13OpaquePointerVABSgSvSgcfC, 
                       __T0s13OpaquePointerVABSvcfC, __T0s13OpaquePointerVABs9UnmanagedVyxG10bitPattern_tcRlzClufC, 
                       __T0s13OpaquePointerVMF, __T0s13OpaquePointerVMa, 
                       __T0s13OpaquePointerVMf, __T0s13OpaquePointerVMn, 
                       __T0s13OpaquePointerVN, __T0s13OpaquePointerVWV, 
                       __T0s13OpaquePointerVs28CustomDebugStringConvertiblesWP, 
                       __T0s13OpaquePointerVs28CustomDebugStringConvertiblesWa, 
                       __T0s13OpaquePointerVs7CVarArgsWP, __T0s13OpaquePointerVs7CVarArgsWa, 
                       __T0s13OpaquePointerVs8HashablesWP, __T0s13OpaquePointerVs8HashablesWa, 
                       __T0s13OpaquePointerVs9EquatablesWP, __T0s13OpaquePointerVs9EquatablesWa, 
                       __T0s13ReversedIndexV1loiSbAByxG_ADtFZ, __T0s13ReversedIndexV2eeoiSbAByxG_ADtFZ, 
                       __T0s13ReversedIndexVAByxG0B0QzcfC, __T0s13ReversedIndexVMF, 
                       __T0s13ReversedIndexVMP, __T0s13ReversedIndexVMa, 
                       __T0s13ReversedIndexVMn, __T0s13ReversedIndexVyxGs10Comparabless10CollectionRzlWP, 
                       __T0s13ReversedIndexVyxGs10Comparabless10CollectionRzlWa, 
                       __T0s13ReversedIndexVyxGs9Equatabless10CollectionRzlWP, 
                       __T0s13ReversedIndexVyxGs9Equatabless10CollectionRzlWa, 
                       __T0s13SignedIntegerMp, __T0s13SignedIntegerPsE11_maskingAddxx_xtFZ, 
                       __T0s13SignedIntegerPsE11descriptionSSfg, __T0s13SignedIntegerPsE16_maskingSubtractxx_xtFZ, 
                       __T0s13SignedIntegerPsE2apoixx_xtFZ, __T0s13SignedIntegerPsE2asoixx_xtFZ, 
                       __T0s13SignedIntegerPss010FixedWidthB0RzsAARzlE2apoixx_xtFZ, 
                       __T0s13SignedIntegerPss010FixedWidthB0RzsAARzlE2asoixx_xtFZ, 
                       __T0s13SignedIntegerPss010FixedWidthB0RzsAARzlExSgqd__7exactly_tcs06BinaryB0Rd__lufC, 
                       __T0s13SignedIntegerPss010FixedWidthB0RzsAARzlExqd__cs06BinaryB0Rd__lufC, 
                       __T0s13SignedInteger_pMF, __T0s13SignedNumericMp, 
                       __T0s13SignedNumeric_pMF, __T0s13StrideThroughV12customMirrors0D0Vfg, 
                       __T0s13StrideThroughV12makeIterators0abD0VyxGyF, 
                       __T0s13StrideThroughVAByxGx6_start_x3end0A0Qz6stridetcfC, 
                       __T0s13StrideThroughVMF, __T0s13StrideThroughVMP, 
                       __T0s13StrideThroughVMa, __T0s13StrideThroughVMn, 
                       __T0s13StrideThroughVyxGs17CustomReflectabless10StrideableRzlWP, 
                       __T0s13StrideThroughVyxGs17CustomReflectabless10StrideableRzlWa, 
                       __T0s13StrideThroughVyxGs8Sequencess10StrideableRzl03SubC0Wt, 
                       __T0s13StrideThroughVyxGs8Sequencess10StrideableRzl7ElementWt, 
                       __T0s13StrideThroughVyxGs8Sequencess10StrideableRzl8IteratorWt, 
                       __T0s13StrideThroughVyxGs8Sequencess10StrideableRzl8Iterators0E8ProtocolPWT, 
                       __T0s13StrideThroughVyxGs8Sequencess10StrideableRzlMA, 
                       __T0s13StrideThroughVyxGs8Sequencess10StrideableRzlWG, 
                       __T0s13StrideThroughVyxGs8Sequencess10StrideableRzlWP, 
                       __T0s13StrideThroughVyxGs8Sequencess10StrideableRzlWa, 
                       __T0s13VaListBuilderCMF, __T0s13VaListBuilderCML, 
                       __T0s13VaListBuilderCMa, __T0s13VaListBuilderCMf, 
                       __T0s13VaListBuilderCMm, __T0s13VaListBuilderCMn, 
                       __T0s13VaListBuilderCN, __T0s13VaListBuilderCfD, 
                       __T0s13VaListBuilderCfd, __T0s13_CollectionOfV10startIndexxfg, 
                       __T0s13_CollectionOfV12makeIterators03AnyD0Vyq_GyF, 
                       __T0s13_CollectionOfV12makeIterators03AnyD0Vyq_GyFq_SgycfU_, 
                       __T0s13_CollectionOfV12makeIterators03AnyD0Vyq_GyFq_SgycfU_TA, 
                       __T0s13_CollectionOfV5indexxx5after_tF, __T0s13_CollectionOfV8endIndexxfg, 
                       __T0s13_CollectionOfV9subscriptq_xcfg, __T0s13_CollectionOfVMF, 
                       __T0s13_CollectionOfVMP, __T0s13_CollectionOfVMa, 
                       __T0s13_CollectionOfVMn, __T0s13_CollectionOfVyxq_Gs0A0ss10StrideableRzr0_l11SubSequenceWt, 
                       __T0s13_CollectionOfVyxq_Gs0A0ss10StrideableRzr0_l11SubSequences0E0PWT, 
                       __T0s13_CollectionOfVyxq_Gs0A0ss10StrideableRzr0_l11SubSequences14_IndexableBasePWT, 
                       __T0s13_CollectionOfVyxq_Gs0A0ss10StrideableRzr0_l7IndicesWt, 
                       __T0s13_CollectionOfVyxq_Gs0A0ss10StrideableRzr0_l7Indicess10_IndexablePWT, 
                       __T0s13_CollectionOfVyxq_Gs0A0ss10StrideableRzr0_l7Indicess8SequencePWT, 
                       __T0s13_CollectionOfVyxq_Gs0A0ss10StrideableRzr0_l8IteratorWt, 
                       __T0s13_CollectionOfVyxq_Gs0A0ss10StrideableRzr0_lMA, 
                       __T0s13_CollectionOfVyxq_Gs0A0ss10StrideableRzr0_lWG, 
                       __T0s13_CollectionOfVyxq_Gs0A0ss10StrideableRzr0_lWI, 
                       __T0s13_CollectionOfVyxq_Gs0A0ss10StrideableRzr0_lWP, 
                       __T0s13_CollectionOfVyxq_Gs0A0ss10StrideableRzr0_lWa, 
                       __T0s13_CollectionOfVyxq_Gs0A0ss10StrideableRzr0_lsADP12makeIterator0E0QzyFTW, 
                       __T0s13_CollectionOfVyxq_Gs0A0ss10StrideableRzr0_lsADP6prefix11SubSequenceQz5IndexQz4upTo_tFTWTm, 
                       __T0s13_CollectionOfVyxq_Gs0A0ss10StrideableRzr0_lsADP7indices7IndicesQzfgTWTm, 
                       __T0s13_CollectionOfVyxq_Gs0A0ss10StrideableRzr0_lsADP9subscript7ElementQz5IndexQzcfgTW, 
                       __T0s13_CollectionOfVyxq_Gs10_Indexabless10StrideableRzr0_lMA, 
                       __T0s13_CollectionOfVyxq_Gs10_Indexabless10StrideableRzr0_lWG, 
                       __T0s13_CollectionOfVyxq_Gs10_Indexabless10StrideableRzr0_lWI, 
                       __T0s13_CollectionOfVyxq_Gs10_Indexabless10StrideableRzr0_lWP, 
                       __T0s13_CollectionOfVyxq_Gs10_Indexabless10StrideableRzr0_lWa, 
                       __T0s13_CollectionOfVyxq_Gs14_IndexableBasess10StrideableRzr0_l11SubSequenceWt, 
                       __T0s13_CollectionOfVyxq_Gs14_IndexableBasess10StrideableRzr0_l5IndexWt, 
                       __T0s13_CollectionOfVyxq_Gs14_IndexableBasess10StrideableRzr0_l5Indexs10ComparablePWT, 
                       __T0s13_CollectionOfVyxq_Gs14_IndexableBasess10StrideableRzr0_l7ElementWt, 
                       __T0s13_CollectionOfVyxq_Gs14_IndexableBasess10StrideableRzr0_lMA, 
                       __T0s13_CollectionOfVyxq_Gs14_IndexableBasess10StrideableRzr0_lWG, 
                       __T0s13_CollectionOfVyxq_Gs14_IndexableBasess10StrideableRzr0_lWP, 
                       __T0s13_CollectionOfVyxq_Gs14_IndexableBasess10StrideableRzr0_lWa, 
                       __T0s13_CollectionOfVyxq_Gs14_IndexableBasess10StrideableRzr0_lsADP10startIndex0G0QzfgTW, 
                       __T0s13_CollectionOfVyxq_Gs14_IndexableBasess10StrideableRzr0_lsADP10startIndex0G0QzfgTWTm, 
                       __T0s13_CollectionOfVyxq_Gs14_IndexableBasess10StrideableRzr0_lsADP20_failEarlyRangeChecky5IndexQz_s0H0VyAIG6boundstFTWTm, 
                       __T0s13_CollectionOfVyxq_Gs14_IndexableBasess10StrideableRzr0_lsADP5index5IndexQzAI5after_tFTW, 
                       __T0s13_CollectionOfVyxq_Gs14_IndexableBasess10StrideableRzr0_lsADP8endIndex0G0QzfgTW, 
                       __T0s13_CollectionOfVyxq_Gs14_IndexableBasess10StrideableRzr0_lsADP9subscript7ElementQz5IndexQzcfgTW, 
                       __T0s13_CollectionOfVyxq_Gs8Sequencess10StrideableRzr0_l03SubC0Wt, 
                       __T0s13_CollectionOfVyxq_Gs8Sequencess10StrideableRzr0_l7ElementWt, 
                       __T0s13_CollectionOfVyxq_Gs8Sequencess10StrideableRzr0_l8IteratorWt, 
                       __T0s13_CollectionOfVyxq_Gs8Sequencess10StrideableRzr0_l8Iterators0E8ProtocolPWT, 
                       __T0s13_CollectionOfVyxq_Gs8Sequencess10StrideableRzr0_lMA, 
                       __T0s13_CollectionOfVyxq_Gs8Sequencess10StrideableRzr0_lWG, 
                       __T0s13_CollectionOfVyxq_Gs8Sequencess10StrideableRzr0_lWP, 
                       __T0s13_CollectionOfVyxq_Gs8Sequencess10StrideableRzr0_lWa, 
                       __T0s13_CollectionOfVyxq_Gs8Sequencess10StrideableRzr0_lsADP12makeIterator0F0QzyFTW, 
                       __T0s13_CollectionOfVyxq_Gs8Sequencess10StrideableRzr0_lsADP19underestimatedCountSifgTWTm, 
                       __T0s13_CollectionOfVyxq_Gs8Sequencess10StrideableRzr0_lsADP4drop03SubC0QzSb7ElementQzKc5while_tKFTWTm, 
                       __T0s13_CollectionOfVyxq_Gs8Sequencess10StrideableRzr0_lsADP9dropFirst03SubC0QzSiFTWTm, 
                       __T0s13_NSDictionary_pMF, __T0s13_NSEnumerator_pMF, 
                       __T0s13_NSStringCore_pMF, __T0s13_OpaqueMirrorVMF, 
                       __T0s13_OpaqueMirrorVMa, __T0s13_OpaqueMirrorVMf, 
                       __T0s13_OpaqueMirrorVMn, __T0s13_OpaqueMirrorVN, 
                       __T0s13_OpaqueMirrorVWV, __T0s13_OpaqueMirrorVs01_B0sWP, 
                       __T0s13_OpaqueMirrorVs01_B0sWa, __T0s13_OpaqueMirrorVs01_B0ssACP11dispositions01_B11DispositionOfgTW, 
                       __T0s13_OpaqueMirrorVs01_B0ssACP15quickLookObjects015PlaygroundQuickD0OSgfgTW, 
                       __T0s13_OpaqueMirrorVs01_B0ssACP16objectIdentifiers06ObjectD0VSgfgTW, 
                       __T0s13_OpaqueMirrorVs01_B0ssACP5countSifgTW, __T0s13_OpaqueMirrorVs01_B0ssACP5valueypfgTW, 
                       __T0s13_OpaqueMirrorVs01_B0ssACP7summarySSfgTW, 
                       __T0s13_OpaqueMirrorVs01_B0ssACP9subscriptSS_sAC_ptSicfgTW, 
                       __T0s13_OpaqueMirrorVs01_B0ssACP9valueTypeypXpfgTW, 
                       __T0s13_StringBufferV10_anyObjectyXlSgfg, __T0s13_StringBufferV12elementShiftSifg, 
                       __T0s13_StringBufferV5startSvfg, __T0s13_StringBufferV7usedEndSvfs, 
                       __T0s13_StringBufferV8capacitySifg, __T0s13_StringBufferV9usedCountSifg, 
                       __T0s13_StringBufferVABSi8capacity_Si11initialSizeSi12elementWidthtcfC, 
                       __T0s13_StringBufferVMF, __T0s13_StringBufferVMa, 
                       __T0s13_StringBufferVMf, __T0s13_StringBufferVMn, 
                       __T0s13_StringBufferVN, __T0s13_StringBufferVWV, 
                       __T0s13_StructMirrorVMF, __T0s13_StructMirrorVMa, 
                       __T0s13_StructMirrorVMf, __T0s13_StructMirrorVMn, 
                       __T0s13_StructMirrorVN, __T0s13_StructMirrorVWV, 
                       __T0s13_StructMirrorVs01_B0sWP, __T0s13_StructMirrorVs01_B0sWa, 
                       __T0s13_StructMirrorVs01_B0ssACP11dispositions01_B11DispositionOfgTW, 
                       __T0s13_StructMirrorVs01_B0ssACP15quickLookObjects015PlaygroundQuickD0OSgfgTW, 
                       __T0s13_StructMirrorVs01_B0ssACP16objectIdentifiers06ObjectD0VSgfgTW, 
                       __T0s13_StructMirrorVs01_B0ssACP5countSifgTW, __T0s13_StructMirrorVs01_B0ssACP5valueypfgTW, 
                       __T0s13_StructMirrorVs01_B0ssACP7summarySSfgTW, 
                       __T0s13_StructMirrorVs01_B0ssACP9subscriptSS_sAC_ptSicfgTW, 
                       __T0s13_StructMirrorVs01_B0ssACP9valueTypeypXpfgTW, 
                       __T0s13_UnsafeBitMapV11sizeInWordsS2i07forSizeE4Bits_tFZ, 
                       __T0s13_UnsafeBitMapV13numberOfWordsSifg, __T0s13_UnsafeBitMapV16initializeToZeroyyF, 
                       __T0s13_UnsafeBitMapV8bitIndexSuSiFZ, __T0s13_UnsafeBitMapV9subscriptSbSicfg, 
                       __T0s13_UnsafeBitMapV9subscriptSbSicfs, __T0s13_UnsafeBitMapV9wordIndexS2iFZ, 
                       __T0s13_UnsafeBitMapVABSpySuG7storage_Si8bitCounttcfC, 
                       __T0s13_UnsafeBitMapVMF, __T0s13_UnsafeBitMapVMa, 
                       __T0s13_UnsafeBitMapVMf, __T0s13_UnsafeBitMapVMn, 
                       __T0s13_UnsafeBitMapVN, __T0s13_UnsafeBitMapVWV, 
                       __T0s13repeatElements8RepeatedVyxGx_Si5counttlF, 
                       __T0s13strideofValueSixlF, __T0s13unsafeAddressSVyXl2of_tF, 
                       __T0s14COpaquePointerVMF, __T0s14COpaquePointerVMa, 
                       __T0s14COpaquePointerVMf, __T0s14COpaquePointerVMn, 
                       __T0s14COpaquePointerVN, __T0s14COpaquePointerVWV, 
                       __T0s14CVaListPointerV16debugDescriptionSSfg, __T0s14CVaListPointerVABSv018_fromUnsafeMutableC0_tcfC, 
                       __T0s14CVaListPointerVMF, __T0s14CVaListPointerVMa, 
                       __T0s14CVaListPointerVMf, __T0s14CVaListPointerVMn, 
                       __T0s14CVaListPointerVN, __T0s14CVaListPointerVWV, 
                       __T0s14CVaListPointerVs28CustomDebugStringConvertiblesWP, 
                       __T0s14CVaListPointerVs28CustomDebugStringConvertiblesWa, 
                       __T0s14ClosedIntervalVMF, __T0s14ClosedIntervalVMP, 
                       __T0s14ClosedIntervalVMa, __T0s14ClosedIntervalVMn, 
                       __T0s14ClosedIntervalVWV, __T0s14CountableRangeV10startIndexxfg, 
                       __T0s14CountableRangeV11descriptionSSfg, __T0s14CountableRangeV11descriptionSSfgTm, 
                       __T0s14CountableRangeV12customMirrors0D0Vfg, __T0s14CountableRangeV16debugDescriptionSSfg, 
                       __T0s14CountableRangeV2eeoiSbAByxG_ADtFZ, __T0s14CountableRangeV2eeoiSbAByxG_ADtFZTm, 
                       __T0s14CountableRangeV2teoiSbAByxG_xtFZ, __T0s14CountableRangeV31_customContainsEquatableElementSbSgxF, 
                       __T0s14CountableRangeV5indexxx5after_tF, __T0s14CountableRangeV5indexxx6before_tF, 
                       __T0s14CountableRangeV5indexxx_6Strides11_StrideablePQz8offsetBytF, 
                       __T0s14CountableRangeV7clampedAByxGAD2to_tF, __T0s14CountableRangeV7indicesAByxGfg, 
                       __T0s14CountableRangeV7isEmptySbfg, __T0s14CountableRangeV8distance6Strides11_StrideablePQzx4from_x2totF, 
                       __T0s14CountableRangeV8endIndexxfg, __T0s14CountableRangeV8overlapsSbAByxGF, 
                       __T0s14CountableRangeV8overlapsSbs06ClosedB0VyxGF, 
                       __T0s14CountableRangeV8overlapsSbs0B0VyxGF, __T0s14CountableRangeV8overlapsSbs0a6ClosedB0VyxGF, 
                       __T0s14CountableRangeV8relatives0B0VyxGqd__2to_t5IndexQyd__Rszs10_IndexableRd__lF, 
                       __T0s14CountableRangeV9subscriptAByxGADcfg, __T0s14CountableRangeV9subscriptAByxGs0B0VyxGcfg, 
                       __T0s14CountableRangeV9subscriptx09_DisabledB5Indexs11_StrideablePQzcfg, 
                       __T0s14CountableRangeV9subscriptxxcfg, __T0s14CountableRangeVAByxGACcfC, 
                       __T0s14CountableRangeVAByxGACcfCTm, __T0s14CountableRangeVAByxGs06ClosedB0VyxGcfC, 
                       __T0s14CountableRangeVAByxGs0B0VyxGcfC, __T0s14CountableRangeVAByxGs0B0VyxGcfCTm, 
                       __T0s14CountableRangeVAByxGs0a6ClosedB0VyxGcfC, 
                       __T0s14CountableRangeVAByxGx5lower_x5uppert15uncheckedBounds_tcfC, 
                       __T0s14CountableRangeVMF, __T0s14CountableRangeVMP, 
                       __T0s14CountableRangeVMa, __T0s14CountableRangeVMn, 
                       __T0s14CountableRangeVss10ComparableRzs11_StrideableRzs13SignedInteger6StridesADPRpzs0D009_DisabledB5IndexAGRpzsAejG_AFRPzlE9subscriptAByxGAByAKGcfg, 
                       __T0s14CountableRangeVss10ComparableRzs11_StrideableRzs13SignedInteger6StridesADPRpzs0D009_DisabledB5IndexAGRpzsAejG_AFRPzlE9subscriptAByxGs06ClosedB0VyAKGcfg, 
                       __T0s14CountableRangeVss10ComparableRzs11_StrideableRzs13SignedInteger6StridesADPRpzs0D009_DisabledB5IndexAGRpzsAejG_AFRPzlE9subscriptAByxGs06ClosedB0VyxGcfg, 
                       __T0s14CountableRangeVss10ComparableRzs11_StrideableRzs13SignedInteger6StridesADPRpzs0D009_DisabledB5IndexAGRpzsAejG_AFRPzlE9subscriptAByxGs0B0VyAKGcfg, 
                       __T0s14CountableRangeVss10ComparableRzs11_StrideableRzs13SignedInteger6StridesADPRpzs0D009_DisabledB5IndexAGRpzsAejG_AFRPzlE9subscriptAByxGs0a6ClosedB0VyAKGcfg, 
                       __T0s14CountableRangeVss10ComparableRzs11_StrideableRzs13SignedInteger6StridesADPRpzs0D009_DisabledB5IndexAGRpzsAejG_AFRPzlE9subscriptAByxGs0a6ClosedB0VyxGcfg, 
                       __T0s14CountableRangeVySiGAByxGs10Collectionss10ComparableRzs11_StrideableRzs13SignedInteger6StridesAGPRpzlWlTm, 
                       __T0s14CountableRangeVyxGs0B10Expressionss10ComparableRzs11_StrideableRzs13SignedInteger6StridesAFPRpzl5BoundWt, 
                       __T0s14CountableRangeVyxGs0B10Expressionss10ComparableRzs11_StrideableRzs13SignedInteger6StridesAFPRpzl5BoundsAEPWT, 
                       __T0s14CountableRangeVyxGs0B10Expressionss10ComparableRzs11_StrideableRzs13SignedInteger6StridesAFPRpzlMA, 
                       __T0s14CountableRangeVyxGs0B10Expressionss10ComparableRzs11_StrideableRzs13SignedInteger6StridesAFPRpzlWP, 
                       __T0s14CountableRangeVyxGs0B10Expressionss10ComparableRzs11_StrideableRzs13SignedInteger6StridesAFPRpzlWa, 
                       __T0s14CountableRangeVyxGs0B10Expressionss10ComparableRzs11_StrideableRzs13SignedInteger6StridesAFPRpzlsADP8containsSb5BoundQzFTWTm, 
                       __T0s14CountableRangeVyxGs10Collectionss10ComparableRzs11_StrideableRzs13SignedInteger6StridesAFPRpzl11SubSequenceWt, 
                       __T0s14CountableRangeVyxGs10Collectionss10ComparableRzs11_StrideableRzs13SignedInteger6StridesAFPRpzl11SubSequences0J0PWT, 
                       __T0s14CountableRangeVyxGs10Collectionss10ComparableRzs11_StrideableRzs13SignedInteger6StridesAFPRpzl11SubSequences14_IndexableBasePWT, 
                       __T0s14CountableRangeVyxGs10Collectionss10ComparableRzs11_StrideableRzs13SignedInteger6StridesAFPRpzl13IndexDistanceWt, 
                       __T0s14CountableRangeVyxGs10Collectionss10ComparableRzs11_StrideableRzs13SignedInteger6StridesAFPRpzl7IndicesWt, 
                       __T0s14CountableRangeVyxGs10Collectionss10ComparableRzs11_StrideableRzs13SignedInteger6StridesAFPRpzl7Indicess10_IndexablePWT, 
                       __T0s14CountableRangeVyxGs10Collectionss10ComparableRzs11_StrideableRzs13SignedInteger6StridesAFPRpzl7Indicess8SequencePWT, 
                       __T0s14CountableRangeVyxGs10Collectionss10ComparableRzs11_StrideableRzs13SignedInteger6StridesAFPRpzl8IteratorWt, 
                       __T0s14CountableRangeVyxGs10Collectionss10ComparableRzs11_StrideableRzs13SignedInteger6StridesAFPRpzlMA, 
                       __T0s14CountableRangeVyxGs10Collectionss10ComparableRzs11_StrideableRzs13SignedInteger6StridesAFPRpzlWG, 
                       __T0s14CountableRangeVyxGs10Collectionss10ComparableRzs11_StrideableRzs13SignedInteger6StridesAFPRpzlWI, 
                       __T0s14CountableRangeVyxGs10Collectionss10ComparableRzs11_StrideableRzs13SignedInteger6StridesAFPRpzlWP, 
                       __T0s14CountableRangeVyxGs10Collectionss10ComparableRzs11_StrideableRzs13SignedInteger6StridesAFPRpzlWa, 
                       __T0s14CountableRangeVyxGs10Collectionss10ComparableRzs11_StrideableRzs13SignedInteger6StridesAFPRpzlsADP6prefix11SubSequenceQz5IndexQz4upTo_tFTWTm, 
                       __T0s14CountableRangeVyxGs10_Indexabless10ComparableRzs11_StrideableRzs13SignedInteger6StridesAFPRpzl13IndexDistanceWt, 
                       __T0s14CountableRangeVyxGs10_Indexabless10ComparableRzs11_StrideableRzs13SignedInteger6StridesAFPRpzl13IndexDistancesAGPWT, 
                       __T0s14CountableRangeVyxGs10_Indexabless10ComparableRzs11_StrideableRzs13SignedInteger6StridesAFPRpzlMA, 
                       __T0s14CountableRangeVyxGs10_Indexabless10ComparableRzs11_StrideableRzs13SignedInteger6StridesAFPRpzlWG, 
                       __T0s14CountableRangeVyxGs10_Indexabless10ComparableRzs11_StrideableRzs13SignedInteger6StridesAFPRpzlWI, 
                       __T0s14CountableRangeVyxGs10_Indexabless10ComparableRzs11_StrideableRzs13SignedInteger6StridesAFPRpzlWP, 
                       __T0s14CountableRangeVyxGs10_Indexabless10ComparableRzs11_StrideableRzs13SignedInteger6StridesAFPRpzlWa, 
                       __T0s14CountableRangeVyxGs14_IndexableBasess10ComparableRzs11_StrideableRzs13SignedInteger6StridesAFPRpzl11SubSequenceWt, 
                       __T0s14CountableRangeVyxGs14_IndexableBasess10ComparableRzs11_StrideableRzs13SignedInteger6StridesAFPRpzl5IndexWt, 
                       __T0s14CountableRangeVyxGs14_IndexableBasess10ComparableRzs11_StrideableRzs13SignedInteger6StridesAFPRpzl5IndexsAEPWT, 
                       __T0s14CountableRangeVyxGs14_IndexableBasess10ComparableRzs11_StrideableRzs13SignedInteger6StridesAFPRpzl7ElementWt, 
                       __T0s14CountableRangeVyxGs14_IndexableBasess10ComparableRzs11_StrideableRzs13SignedInteger6StridesAFPRpzlMA, 
                       __T0s14CountableRangeVyxGs14_IndexableBasess10ComparableRzs11_StrideableRzs13SignedInteger6StridesAFPRpzlWG, 
                       __T0s14CountableRangeVyxGs14_IndexableBasess10ComparableRzs11_StrideableRzs13SignedInteger6StridesAFPRpzlWP, 
                       __T0s14CountableRangeVyxGs14_IndexableBasess10ComparableRzs11_StrideableRzs13SignedInteger6StridesAFPRpzlWa, 
                       __T0s14CountableRangeVyxGs14_IndexableBasess10ComparableRzs11_StrideableRzs13SignedInteger6StridesAFPRpzlsADP010_failEarlyB5Checky5IndexQz_s0B0VyANG6boundstFTWTm, 
                       __T0s14CountableRangeVyxGs14_IndexableBasess10ComparableRzs11_StrideableRzs13SignedInteger6StridesAFPRpzlsADP9formIndexy0K0Qzz5after_tFTWTm, 
                       __T0s14CountableRangeVyxGs17CustomReflectabless10ComparableRzs11_StrideableRzs13SignedInteger6StridesAFPRpzlWP, 
                       __T0s14CountableRangeVyxGs17CustomReflectabless10ComparableRzs11_StrideableRzs13SignedInteger6StridesAFPRpzlWa, 
                       __T0s14CountableRangeVyxGs22RandomAccessCollectionss10ComparableRzs11_StrideableRzs13SignedInteger6StridesAFPRpzl11SubSequenceWt, 
                       __T0s14CountableRangeVyxGs22RandomAccessCollectionss10ComparableRzs11_StrideableRzs13SignedInteger6StridesAFPRpzl11SubSequences013BidirectionalE0PWT, 
                       __T0s14CountableRangeVyxGs22RandomAccessCollectionss10ComparableRzs11_StrideableRzs13SignedInteger6StridesAFPRpzl11SubSequences01_cD9IndexablePWT, 
                       __T0s14CountableRangeVyxGs22RandomAccessCollectionss10ComparableRzs11_StrideableRzs13SignedInteger6StridesAFPRpzl7IndicesWt, 
                       __T0s14CountableRangeVyxGs22RandomAccessCollectionss10ComparableRzs11_StrideableRzs13SignedInteger6StridesAFPRpzl7Indicess013BidirectionalE0PWT, 
                       __T0s14CountableRangeVyxGs22RandomAccessCollectionss10ComparableRzs11_StrideableRzs13SignedInteger6StridesAFPRpzl7Indicess01_cD9IndexablePWT, 
                       __T0s14CountableRangeVyxGs22RandomAccessCollectionss10ComparableRzs11_StrideableRzs13SignedInteger6StridesAFPRpzlMA, 
                       __T0s14CountableRangeVyxGs22RandomAccessCollectionss10ComparableRzs11_StrideableRzs13SignedInteger6StridesAFPRpzlWG, 
                       __T0s14CountableRangeVyxGs22RandomAccessCollectionss10ComparableRzs11_StrideableRzs13SignedInteger6StridesAFPRpzlWI, 
                       __T0s14CountableRangeVyxGs22RandomAccessCollectionss10ComparableRzs11_StrideableRzs13SignedInteger6StridesAFPRpzlWP, 
                       __T0s14CountableRangeVyxGs22RandomAccessCollectionss10ComparableRzs11_StrideableRzs13SignedInteger6StridesAFPRpzlWa, 
                       __T0s14CountableRangeVyxGs22_RandomAccessIndexabless10ComparableRzs11_StrideableRzs13SignedInteger6StridesAFPRpzlWG, 
                       __T0s14CountableRangeVyxGs22_RandomAccessIndexabless10ComparableRzs11_StrideableRzs13SignedInteger6StridesAFPRpzlWI, 
                       __T0s14CountableRangeVyxGs22_RandomAccessIndexabless10ComparableRzs11_StrideableRzs13SignedInteger6StridesAFPRpzlWP, 
                       __T0s14CountableRangeVyxGs22_RandomAccessIndexabless10ComparableRzs11_StrideableRzs13SignedInteger6StridesAFPRpzlWa, 
                       __T0s14CountableRangeVyxGs23BidirectionalCollectionss10ComparableRzs11_StrideableRzs13SignedInteger6StridesAFPRpzl11SubSequenceWt, 
                       __T0s14CountableRangeVyxGs23BidirectionalCollectionss10ComparableRzs11_StrideableRzs13SignedInteger6StridesAFPRpzl11SubSequences01_C9IndexablePWT, 
                       __T0s14CountableRangeVyxGs23BidirectionalCollectionss10ComparableRzs11_StrideableRzs13SignedInteger6StridesAFPRpzl11SubSequences0D0PWT, 
                       __T0s14CountableRangeVyxGs23BidirectionalCollectionss10ComparableRzs11_StrideableRzs13SignedInteger6StridesAFPRpzl7IndicesWt, 
                       __T0s14CountableRangeVyxGs23BidirectionalCollectionss10ComparableRzs11_StrideableRzs13SignedInteger6StridesAFPRpzl7Indicess01_C9IndexablePWT, 
                       __T0s14CountableRangeVyxGs23BidirectionalCollectionss10ComparableRzs11_StrideableRzs13SignedInteger6StridesAFPRpzl7Indicess0D0PWT, 
                       __T0s14CountableRangeVyxGs23BidirectionalCollectionss10ComparableRzs11_StrideableRzs13SignedInteger6StridesAFPRpzlMA, 
                       __T0s14CountableRangeVyxGs23BidirectionalCollectionss10ComparableRzs11_StrideableRzs13SignedInteger6StridesAFPRpzlWG, 
                       __T0s14CountableRangeVyxGs23BidirectionalCollectionss10ComparableRzs11_StrideableRzs13SignedInteger6StridesAFPRpzlWI, 
                       __T0s14CountableRangeVyxGs23BidirectionalCollectionss10ComparableRzs11_StrideableRzs13SignedInteger6StridesAFPRpzlWP, 
                       __T0s14CountableRangeVyxGs23BidirectionalCollectionss10ComparableRzs11_StrideableRzs13SignedInteger6StridesAFPRpzlWa, 
                       __T0s14CountableRangeVyxGs23CustomStringConvertibless10ComparableRzs11_StrideableRzs13SignedInteger6StridesAFPRpzlWP, 
                       __T0s14CountableRangeVyxGs23CustomStringConvertibless10ComparableRzs11_StrideableRzs13SignedInteger6StridesAFPRpzlWa, 
                       __T0s14CountableRangeVyxGs23_BidirectionalIndexabless10ComparableRzs11_StrideableRzs13SignedInteger6StridesAFPRpzlWG, 
                       __T0s14CountableRangeVyxGs23_BidirectionalIndexabless10ComparableRzs11_StrideableRzs13SignedInteger6StridesAFPRpzlWI, 
                       __T0s14CountableRangeVyxGs23_BidirectionalIndexabless10ComparableRzs11_StrideableRzs13SignedInteger6StridesAFPRpzlWP, 
                       __T0s14CountableRangeVyxGs23_BidirectionalIndexabless10ComparableRzs11_StrideableRzs13SignedInteger6StridesAFPRpzlWa, 
                       __T0s14CountableRangeVyxGs28CustomDebugStringConvertibless10ComparableRzs11_StrideableRzs13SignedInteger6StridesAFPRpzlWP, 
                       __T0s14CountableRangeVyxGs28CustomDebugStringConvertibless10ComparableRzs11_StrideableRzs13SignedInteger6StridesAFPRpzlWa, 
                       __T0s14CountableRangeVyxGs8Sequencess10ComparableRzs11_StrideableRzs13SignedInteger6StridesAFPRpzl03SubC0Wt, 
                       __T0s14CountableRangeVyxGs8Sequencess10ComparableRzs11_StrideableRzs13SignedInteger6StridesAFPRpzl7ElementWt, 
                       __T0s14CountableRangeVyxGs8Sequencess10ComparableRzs11_StrideableRzs13SignedInteger6StridesAFPRpzl8IteratorWt, 
                       __T0s14CountableRangeVyxGs8Sequencess10ComparableRzs11_StrideableRzs13SignedInteger6StridesAFPRpzl8Iterators0I8ProtocolPWT, 
                       __T0s14CountableRangeVyxGs8Sequencess10ComparableRzs11_StrideableRzs13SignedInteger6StridesAFPRpzlMA, 
                       __T0s14CountableRangeVyxGs8Sequencess10ComparableRzs11_StrideableRzs13SignedInteger6StridesAFPRpzlWG, 
                       __T0s14CountableRangeVyxGs8Sequencess10ComparableRzs11_StrideableRzs13SignedInteger6StridesAFPRpzlWP, 
                       __T0s14CountableRangeVyxGs8Sequencess10ComparableRzs11_StrideableRzs13SignedInteger6StridesAFPRpzlWa, 
                       __T0s14CountableRangeVyxGs9Equatabless10ComparableRzs11_StrideableRzs13SignedInteger6StridesAFPRpzlWP, 
                       __T0s14CountableRangeVyxGs9Equatabless10ComparableRzs11_StrideableRzs13SignedInteger6StridesAFPRpzlWa, 
                       __T0s14DefaultIndicesV10startIndex0D0Qzfg, __T0s14DefaultIndicesV5index5IndexQzAE5after_tF, 
                       __T0s14DefaultIndicesV7indicesAByxGfg, __T0s14DefaultIndicesV8endIndex0D0Qzfg, 
                       __T0s14DefaultIndicesV9formIndexy0D0Qzz5after_tF, 
                       __T0s14DefaultIndicesV9subscript5IndexQzAEcfg, __T0s14DefaultIndicesV9subscriptAByxGs5RangeVy5IndexQzGcfg, 
                       __T0s14DefaultIndicesVAByxGx9_elements_5IndexQz05startD0AF03endD0tcfC, 
                       __T0s14DefaultIndicesVMF, __T0s14DefaultIndicesVMP, 
                       __T0s14DefaultIndicesVMa, __T0s14DefaultIndicesVMn, 
                       __T0s14DefaultIndicesVyxGs10Collectionss10_IndexableRzl0B0Wt, 
                       __T0s14DefaultIndicesVyxGs10Collectionss10_IndexableRzl0B0s8SequencePWT, 
                       __T0s14DefaultIndicesVyxGs10Collectionss10_IndexableRzl0B0sAEPWT, 
                       __T0s14DefaultIndicesVyxGs10Collectionss10_IndexableRzl11SubSequenceWt, 
                       __T0s14DefaultIndicesVyxGs10Collectionss10_IndexableRzl11SubSequences01_D4BasePWT, 
                       __T0s14DefaultIndicesVyxGs10Collectionss10_IndexableRzl11SubSequences0F0PWT, 
                       __T0s14DefaultIndicesVyxGs10Collectionss10_IndexableRzl8IteratorWt, 
                       __T0s14DefaultIndicesVyxGs10Collectionss10_IndexableRzlMA, 
                       __T0s14DefaultIndicesVyxGs10Collectionss10_IndexableRzlWG, 
                       __T0s14DefaultIndicesVyxGs10Collectionss10_IndexableRzlWI, 
                       __T0s14DefaultIndicesVyxGs10Collectionss10_IndexableRzlWP, 
                       __T0s14DefaultIndicesVyxGs10Collectionss10_IndexableRzlWa, 
                       __T0s14DefaultIndicesVyxGs10Collectionss10_IndexableRzlsADP12makeIterator0F0QzyFTWTm, 
                       __T0s14DefaultIndicesVyxGs10Collectionss10_IndexableRzlsADP6prefix11SubSequenceQz5IndexQz4upTo_tFTWTm, 
                       __T0s14DefaultIndicesVyxGs10Collectionss10_IndexableRzlsADP7indices0B0QzfgTWTm, 
                       __T0s14DefaultIndicesVyxGs10Collectionss10_IndexableRzlsADP9subscript11SubSequenceQzs5RangeVy5IndexQzGcfgTWTm, 
                       __T0s14DefaultIndicesVyxGs10_IndexablessADRzlMA, 
                       __T0s14DefaultIndicesVyxGs10_IndexablessADRzlWG, 
                       __T0s14DefaultIndicesVyxGs10_IndexablessADRzlWI, 
                       __T0s14DefaultIndicesVyxGs10_IndexablessADRzlWP, 
                       __T0s14DefaultIndicesVyxGs10_IndexablessADRzlWa, 
                       __T0s14DefaultIndicesVyxGs14_IndexableBasess01_C0Rzl11SubSequenceWt, 
                       __T0s14DefaultIndicesVyxGs14_IndexableBasess01_C0Rzl5IndexWt, 
                       __T0s14DefaultIndicesVyxGs14_IndexableBasess01_C0Rzl5Indexs10ComparablePWT, 
                       __T0s14DefaultIndicesVyxGs14_IndexableBasess01_C0Rzl7ElementWt, 
                       __T0s14DefaultIndicesVyxGs14_IndexableBasess01_C0RzlMA, 
                       __T0s14DefaultIndicesVyxGs14_IndexableBasess01_C0RzlWG, 
                       __T0s14DefaultIndicesVyxGs14_IndexableBasess01_C0RzlWP, 
                       __T0s14DefaultIndicesVyxGs14_IndexableBasess01_C0RzlWa, 
                       __T0s14DefaultIndicesVyxGs14_IndexableBasess01_C0RzlsADP20_failEarlyRangeChecky5IndexQz_s0G0VyAIG6boundstFTWTm, 
                       __T0s14DefaultIndicesVyxGs8Sequencess10_IndexableRzl03SubC0Wt, 
                       __T0s14DefaultIndicesVyxGs8Sequencess10_IndexableRzl7ElementWt, 
                       __T0s14DefaultIndicesVyxGs8Sequencess10_IndexableRzl8IteratorWt, 
                       __T0s14DefaultIndicesVyxGs8Sequencess10_IndexableRzl8Iterators0E8ProtocolPWT, 
                       __T0s14DefaultIndicesVyxGs8Sequencess10_IndexableRzlMA, 
                       __T0s14DefaultIndicesVyxGs8Sequencess10_IndexableRzlWG, 
                       __T0s14DefaultIndicesVyxGs8Sequencess10_IndexableRzlWP, 
                       __T0s14DefaultIndicesVyxGs8Sequencess10_IndexableRzlWa, 
                       __T0s14DefaultIndicesVyxGs8Sequencess10_IndexableRzlsADP19underestimatedCountSifgTWTm, 
                       __T0s14DefaultIndicesVyxGs8Sequencess10_IndexableRzlsADP4drop03SubC0QzSb7ElementQzKc5while_tKFTWTm, 
                       __T0s14DefaultIndicesVyxGs8Sequencess10_IndexableRzlsADP9dropFirst03SubC0QzSiFTWTm, 
                       __T0s14EmptyGeneratorVMF, __T0s14EmptyGeneratorVMP, 
                       __T0s14EmptyGeneratorVMa, __T0s14EmptyGeneratorVMn, 
                       __T0s14EmptyGeneratorVWV, __T0s14GeneratorOfOneVMF, 
                       __T0s14GeneratorOfOneVMP, __T0s14GeneratorOfOneVMa, 
                       __T0s14GeneratorOfOneVMn, __T0s14GeneratorOfOneVWV, 
                       __T0s14JoinedIteratorV4next7Element_ADQZSgyF, __T0s14JoinedIteratorVAByxGx4base_qd__9separatortcs8SequenceRd__7Element_AGQZAGRtd__lufC, 
                       __T0s14JoinedIteratorVMF, __T0s14JoinedIteratorVMP, 
                       __T0s14JoinedIteratorVMa, __T0s14JoinedIteratorVMn, 
                       __T0s14JoinedIteratorVyxGs0B8ProtocolssADRzs8Sequence7ElementRpzlAFWt, 
                       __T0s14JoinedIteratorVyxGs0B8ProtocolssADRzs8Sequence7ElementRpzlMA, 
                       __T0s14JoinedIteratorVyxGs0B8ProtocolssADRzs8Sequence7ElementRpzlWP, 
                       __T0s14JoinedIteratorVyxGs0B8ProtocolssADRzs8Sequence7ElementRpzlWa, 
                       __T0s14JoinedSequenceV12makeIterators0aD0Vy0D0QzGyF, 
                       __T0s14JoinedSequenceV22_copyToContiguousArrays0eF0Vy7Element_AFQZGyF, 
                       __T0s14JoinedSequenceV22_copyToContiguousArrays0eF0Vy7Element_AFQZGyFSiycfU_, 
                       __T0s14JoinedSequenceV22_copyToContiguousArrays0eF0Vy7Element_AFQZGyFSiycfU_TA, 
                       __T0s14JoinedSequenceV8generates0A8IteratorVy0D0QzGyF, 
                       __T0s14JoinedSequenceVAByxGx4base_qd__9separatortcs0B0Rd__7Element_AGQZAGRtd__lufC, 
                       __T0s14JoinedSequenceVMF, __T0s14JoinedSequenceVMP, 
                       __T0s14JoinedSequenceVMa, __T0s14JoinedSequenceVMn, 
                       __T0s14JoinedSequenceVyxGs0B0ssADRzsAD7ElementRpzl03SubB0Wt, 
                       __T0s14JoinedSequenceVyxGs0B0ssADRzsAD7ElementRpzl8IteratorWt, 
                       __T0s14JoinedSequenceVyxGs0B0ssADRzsAD7ElementRpzl8Iterators0D8ProtocolPWT, 
                       __T0s14JoinedSequenceVyxGs0B0ssADRzsAD7ElementRpzlAEWt, 
                       __T0s14JoinedSequenceVyxGs0B0ssADRzsAD7ElementRpzlMA, 
                       __T0s14JoinedSequenceVyxGs0B0ssADRzsAD7ElementRpzlWG, 
                       __T0s14JoinedSequenceVyxGs0B0ssADRzsAD7ElementRpzlWP, 
                       __T0s14JoinedSequenceVyxGs0B0ssADRzsAD7ElementRpzlWa, 
                       __T0s14JoinedSequenceVyxGs0B0ssADRzsAD7ElementRpzlsADP4drop03SubB0QzSbAFKc5while_tKFTWTm, 
                       __T0s14JoinedSequenceVyxGs0B0ssADRzsAD7ElementRpzlsADP9dropFirst03SubB0QzSiFTWTm, 
                       __T0s14LazyCollectionV10startIndex0D0Qzfg, __T0s14LazyCollectionV12makeIterator0D0QzyF, 
                       __T0s14LazyCollectionV13_copyContents8IteratorQz_SitSry7ElementQzG12initializing_tF, 
                       __T0s14LazyCollectionV19underestimatedCountSifg, 
                       __T0s14LazyCollectionV22_copyToContiguousArrays0eF0Vy7ElementQzGyF, 
                       __T0s14LazyCollectionV30_customIndexOfEquatableElement0D0QzSgSg0G0QzF, 
                       __T0s14LazyCollectionV31_customContainsEquatableElementSbSg0F0QzF, 
                       __T0s14LazyCollectionV5count13IndexDistanceQzfg, 
                       __T0s14LazyCollectionV5first7ElementQzSgfg, __T0s14LazyCollectionV5index5IndexQzAE5after_tF, 
                       __T0s14LazyCollectionV5index5IndexQzAE_0D8DistanceQz8offsetBytF, 
                       __T0s14LazyCollectionV5index5IndexQzSgAE_0D8DistanceQz8offsetByAE07limitedG0tF, 
                       __T0s14LazyCollectionV7indices7IndicesQzfg, __T0s14LazyCollectionV7isEmptySbfg, 
                       __T0s14LazyCollectionV8distance13IndexDistanceQz0D0Qz4from_AG2totF, 
                       __T0s14LazyCollectionV8elementsxfg, __T0s14LazyCollectionV8endIndex0D0Qzfg, 
                       __T0s14LazyCollectionV9subscript7ElementQz5IndexQzcfg, 
                       __T0s14LazyCollectionV9subscripts5SliceVyAByxGGs5RangeVy5IndexQzGcfg, 
                       __T0s14LazyCollectionVAByxGx5_base_tcfC, __T0s14LazyCollectionVMF, 
                       __T0s14LazyCollectionVMP, __T0s14LazyCollectionVMa, 
                       __T0s14LazyCollectionVMn, __T0s14LazyCollectionVyxGs0A16SequenceProtocolss0B0Rzl8ElementsWt, 
                       __T0s14LazyCollectionVyxGs0A16SequenceProtocolss0B0Rzl8Elementss0C0PWT, 
                       __T0s14LazyCollectionVyxGs0A16SequenceProtocolss0B0RzlMA, 
                       __T0s14LazyCollectionVyxGs0A16SequenceProtocolss0B0RzlWG, 
                       __T0s14LazyCollectionVyxGs0A16SequenceProtocolss0B0RzlWI, 
                       __T0s14LazyCollectionVyxGs0A16SequenceProtocolss0B0RzlWP, 
                       __T0s14LazyCollectionVyxGs0A16SequenceProtocolss0B0RzlWa, 
                       __T0s14LazyCollectionVyxGs0A16SequenceProtocolss0B0RzlsADP8elements8ElementsQzfgTWTm, 
                       __T0s14LazyCollectionVyxGs0B0ssADRzl11SubSequenceWt, 
                       __T0s14LazyCollectionVyxGs0B0ssADRzl11SubSequences0D0PWT, 
                       __T0s14LazyCollectionVyxGs0B0ssADRzl11SubSequences14_IndexableBasePWT, 
                       __T0s14LazyCollectionVyxGs0B0ssADRzl13IndexDistanceWt, 
                       __T0s14LazyCollectionVyxGs0B0ssADRzl7IndicesWt, 
                       __T0s14LazyCollectionVyxGs0B0ssADRzl7Indicess10_IndexablePWT, 
                       __T0s14LazyCollectionVyxGs0B0ssADRzl7Indicess8SequencePWT, 
                       __T0s14LazyCollectionVyxGs0B0ssADRzl8IteratorWt, 
                       __T0s14LazyCollectionVyxGs0B0ssADRzlMA, __T0s14LazyCollectionVyxGs0B0ssADRzlWG, 
                       __T0s14LazyCollectionVyxGs0B0ssADRzlWI, __T0s14LazyCollectionVyxGs0B0ssADRzlWP, 
                       __T0s14LazyCollectionVyxGs0B0ssADRzlWa, __T0s14LazyCollectionVyxGs0B0ssADRzlsADP5index5IndexQzAH_0D8DistanceQz8offsetBytFTWTm, 
                       __T0s14LazyCollectionVyxGs0B0ssADRzlsADP5index5IndexQzSgAH_0D8DistanceQz8offsetByAH07limitedG0tFTWTm, 
                       __T0s14LazyCollectionVyxGs0B0ssADRzlsADP6prefix11SubSequenceQz5IndexQz4upTo_tFTWTm, 
                       __T0s14LazyCollectionVyxGs0B0ssADRzlsADP7isEmptySbfgTWTm, 
                       __T0s14LazyCollectionVyxGs0aB8Protocolss0B0Rzl8ElementsWt, 
                       __T0s14LazyCollectionVyxGs0aB8Protocolss0B0Rzl8ElementssAEPWT, 
                       __T0s14LazyCollectionVyxGs0aB8Protocolss0B0RzlMA, 
                       __T0s14LazyCollectionVyxGs0aB8Protocolss0B0RzlWG, 
                       __T0s14LazyCollectionVyxGs0aB8Protocolss0B0RzlWI, 
                       __T0s14LazyCollectionVyxGs0aB8Protocolss0B0RzlWP, 
                       __T0s14LazyCollectionVyxGs0aB8Protocolss0B0RzlWa, 
                       __T0s14LazyCollectionVyxGs10_Indexabless0B0Rzl13IndexDistanceWt, 
                       __T0s14LazyCollectionVyxGs10_Indexabless0B0Rzl13IndexDistances13SignedIntegerPWT, 
                       __T0s14LazyCollectionVyxGs10_Indexabless0B0RzlMA, 
                       __T0s14LazyCollectionVyxGs10_Indexabless0B0RzlWG, 
                       __T0s14LazyCollectionVyxGs10_Indexabless0B0RzlWI, 
                       __T0s14LazyCollectionVyxGs10_Indexabless0B0RzlWP, 
                       __T0s14LazyCollectionVyxGs10_Indexabless0B0RzlWa, 
                       __T0s14LazyCollectionVyxGs10_Indexabless0B0RzlsADP9formIndexSb0E0Qzz_0E8DistanceQz8offsetByAI07limitedH0tFTWTm, 
                       __T0s14LazyCollectionVyxGs10_Indexabless0B0RzlsADP9formIndexy0E0Qzz_0E8DistanceQz8offsetBytFTWTm, 
                       __T0s14LazyCollectionVyxGs14_IndexableBasess0B0Rzl11SubSequenceWt, 
                       __T0s14LazyCollectionVyxGs14_IndexableBasess0B0Rzl5IndexWt, 
                       __T0s14LazyCollectionVyxGs14_IndexableBasess0B0Rzl5Indexs10ComparablePWT, 
                       __T0s14LazyCollectionVyxGs14_IndexableBasess0B0Rzl7ElementWt, 
                       __T0s14LazyCollectionVyxGs14_IndexableBasess0B0RzlMA, 
                       __T0s14LazyCollectionVyxGs14_IndexableBasess0B0RzlWG, 
                       __T0s14LazyCollectionVyxGs14_IndexableBasess0B0RzlWP, 
                       __T0s14LazyCollectionVyxGs14_IndexableBasess0B0RzlWa, 
                       __T0s14LazyCollectionVyxGs14_IndexableBasess0B0RzlsADP20_failEarlyRangeChecky5IndexQz_s0G0VyAIG6boundstFTWTm, 
                       __T0s14LazyCollectionVyxGs14_IndexableBasess0B0RzlsADP9formIndexy0F0Qzz5after_tFTWTm, 
                       __T0s14LazyCollectionVyxGs8Sequencess0B0Rzl03SubC0Wt, 
                       __T0s14LazyCollectionVyxGs8Sequencess0B0Rzl7ElementWt, 
                       __T0s14LazyCollectionVyxGs8Sequencess0B0Rzl8IteratorWt, 
                       __T0s14LazyCollectionVyxGs8Sequencess0B0Rzl8Iterators0D8ProtocolPWT, 
                       __T0s14LazyCollectionVyxGs8Sequencess0B0RzlMA, __T0s14LazyCollectionVyxGs8Sequencess0B0RzlWG, 
                       __T0s14LazyCollectionVyxGs8Sequencess0B0RzlWP, __T0s14LazyCollectionVyxGs8Sequencess0B0RzlWa, 
                       __T0s14LazyCollectionVyxGs8Sequencess0B0RzlsADP13_copyContents8IteratorQz_SitSry7ElementQzG12initializing_tFTWTm, 
                       __T0s14LazyCollectionVyxGs8Sequencess0B0RzlsADP31_customContainsEquatableElementSbSg0G0QzFTWTm, 
                       __T0s14PartialKeyPathCMF, __T0s14PartialKeyPathCMP, 
                       __T0s14PartialKeyPathCMa, __T0s14PartialKeyPathCMn, 
                       __T0s14PartialKeyPathCfD, __T0s14PartialKeyPathCfd, 
                       __T0s14RangeGeneratorVMF, __T0s14RangeGeneratorVMP, 
                       __T0s14RangeGeneratorVMa, __T0s14RangeGeneratorVMn, 
                       __T0s14RangeGeneratorVWV, __T0s14StringProtocolMp, 
                       __T0s14StringProtocolPsE010_ephemeralA0SSfg, __T0s14StringProtocolPsE1goiSbx_qd__tsAARd__lFZ, 
                       __T0s14StringProtocolPsE1loiSbx_qd__tsAARd__lFZ, 
                       __T0s14StringProtocolPsE2eeoiSbx_qd__tsAARd__lFZ, 
                       __T0s14StringProtocolPsE2geoiSbx_qd__tsAARd__lFZ, 
                       __T0s14StringProtocolPsE2leoiSbx_qd__tsAARd__lFZ, 
                       __T0s14StringProtocolPsE2neoiSbx_qd__tsAARd__lFZ, 
                       __T0s14StringProtocolPsE9hashValueSifg, __T0s14StringProtocol_pMF, 
                       __T0s14UnfoldSequenceV4nextxSgyF, __T0s14UnfoldSequenceVMF, 
                       __T0s14UnfoldSequenceVMP, __T0s14UnfoldSequenceVMa, 
                       __T0s14UnfoldSequenceVMn, __T0s14UnfoldSequenceVyxq_Gs0B0sr0_l03SubB0Wt, 
                       __T0s14UnfoldSequenceVyxq_Gs0B0sr0_l7ElementWt, 
                       __T0s14UnfoldSequenceVyxq_Gs0B0sr0_l8IteratorWt, 
                       __T0s14UnfoldSequenceVyxq_Gs0B0sr0_l8Iterators0C8ProtocolPWT, 
                       __T0s14UnfoldSequenceVyxq_Gs0B0sr0_lMA, __T0s14UnfoldSequenceVyxq_Gs0B0sr0_lWG, 
                       __T0s14UnfoldSequenceVyxq_Gs0B0sr0_lWP, __T0s14UnfoldSequenceVyxq_Gs0B0sr0_lWa, 
                       __T0s14UnfoldSequenceVyxq_Gs0B0sr0_lsADP4drop03SubB0QzSb7ElementQzKc5while_tKFTWTm, 
                       __T0s14UnfoldSequenceVyxq_Gs0B0sr0_lsADP9dropFirst03SubB0QzSiFTWTm, 
                       __T0s14UnfoldSequenceVyxq_Gs16IteratorProtocolsr0_l7ElementWt, 
                       __T0s14UnfoldSequenceVyxq_Gs16IteratorProtocolsr0_lMA, 
                       __T0s14UnfoldSequenceVyxq_Gs16IteratorProtocolsr0_lWP, 
                       __T0s14UnfoldSequenceVyxq_Gs16IteratorProtocolsr0_lWa, 
                       __T0s14_AppendKeyPathMp, __T0s14_AppendKeyPathPsE9appendings017ReferenceWritablebC0Cyqd__qd_1_GAEyqd_0_qd_1_G4path_ts0bC0Cyqd__qd_0_GRszr1_lF, 
                       __T0s14_AppendKeyPathPsE9appendings017ReferenceWritablebC0Cyqd__qd_1_GAEyqd_0_qd_1_G4path_ts0fbC0Cyqd__qd_0_GRszr1_lF, 
                       __T0s14_AppendKeyPathPsE9appendings017ReferenceWritablebC0Cyqd__qd_1_GSgAEyqd_0_qd_1_G4path_ts07PartialbC0Cyqd__GRszr1_lF, 
                       __T0s14_AppendKeyPathPsE9appendings017ReferenceWritablebC0Cyqd__qd_1_Gs0fbC0Cyqd_0_qd_1_G4path_tAEyqd__qd_0_GRszr1_lF, 
                       __T0s14_AppendKeyPathPsE9appendings07PartialbC0Cyqd__GSgs03AnybC0C4path_tAFRszlF, 
                       __T0s14_AppendKeyPathPsE9appendings08WritablebC0Cyqd__qd_1_GAEyqd_0_qd_1_G4path_tAEyqd__qd_0_GRszr1_lF, 
                       __T0s14_AppendKeyPathPsE9appendings0bC0Cyqd__qd_1_GAEyqd_0_qd_1_G4path_tr1_lF, 
                       __T0s14_AppendKeyPathPsE9appendings0bC0Cyqd__qd_1_GSgAEyqd_0_qd_1_G4path_ts07PartialbC0Cyqd__GRszr1_lF, 
                       __T0s14_AppendKeyPathPss03AnybC0CRszlE9appendingADSgAD4path_tF, 
                       __T0s14_AppendKeyPath_pMF, __T0s14_ArrayProtocolMp, 
                       __T0s14_ArrayProtocolPsE6filterSay7ElementQzGSbAEKcKF, 
                       __T0s14_ArrayProtocol_pMF, __T0s14_BridgeStorageV12objCInstanceq_fg, 
                       __T0s14_BridgeStorageV14nativeInstancexfg, __T0s14_BridgeStorageV26isUniquelyReferencedNativeSbyF, 
                       __T0s14_BridgeStorageV26nativeInstance_noSpareBitsxfg, 
                       __T0s14_BridgeStorageV28isNativeWithClearedSpareBitsSbSiF, 
                       __T0s14_BridgeStorageV34isUniquelyReferencedOrPinnedNativeSbyF, 
                       __T0s14_BridgeStorageV39isUniquelyReferenced_native_noSpareBitsSbyF, 
                       __T0s14_BridgeStorageV47isUniquelyReferencedOrPinned_native_noSpareBitsSbyF, 
                       __T0s14_BridgeStorageV6isObjCSbfg, __T0s14_BridgeStorageV8isNativeSbfg, 
                       __T0s14_BridgeStorageV9spareBitsSifg, __T0s14_BridgeStorageVAByxq_Gq_4objC_tcfC, 
                       __T0s14_BridgeStorageVAByxq_Gx6native_Si4bitstcfC, 
                       __T0s14_BridgeStorageVAByxq_Gx6native_tcfC, __T0s14_BridgeStorageVMF, 
                       __T0s14_BridgeStorageVMP, __T0s14_BridgeStorageVMa, 
                       __T0s14_BridgeStorageVMn, __T0s14_BridgeStorageVWV, 
                       __T0s14_CocoaSetIndexVMF, __T0s14_CocoaSetIndexVMa, 
                       __T0s14_CocoaSetIndexVMf, __T0s14_CocoaSetIndexVMn, 
                       __T0s14_CocoaSetIndexVN, __T0s14_CocoaSetIndexVWV, 
                       __T0s14_CocoaSetIndexVs10ComparablesWP, __T0s14_CocoaSetIndexVs10ComparablesWa, 
                       __T0s14_CocoaSetIndexVs10ComparablessACP1goiSbx_xtFZTW, 
                       __T0s14_CocoaSetIndexVs10ComparablessACP1loiSbx_xtFZTW, 
                       __T0s14_CocoaSetIndexVs10ComparablessACP2geoiSbx_xtFZTW, 
                       __T0s14_CocoaSetIndexVs10ComparablessACP2leoiSbx_xtFZTW, 
                       __T0s14_CocoaSetIndexVs9EquatablesWP, __T0s14_CocoaSetIndexVs9EquatablesWa, 
                       __T0s14_CocoaSetIndexVs9EquatablessACP2eeoiSbx_xtFZTW, 
                       __T0s14_CollectionBoxC10_dropFirsts04_AnyaB0Cy7ElementQzGSiF, 
                       __T0s14_CollectionBoxC10_formIndexSbs04_AnydB0_pz_s5Int64V8offsetBysAD_p07limitedH0tF, 
                       __T0s14_CollectionBoxC10_formIndexys04_AnydB0_p5after_tF, 
                       __T0s14_CollectionBoxC10_formIndexys04_AnydB0_pz_s5Int64V8offsetBytF, 
                       __T0s14_CollectionBoxC13_makeIterators03AnyD0Vy7ElementQzGyF, 
                       __T0s14_CollectionBoxC14__copyContentss11AnyIteratorVy7ElementQzG_SitSryAGG12initializing_tF, 
                       __T0s14_CollectionBoxC19__preprocessingPassqd__Sgqd__yKcKlF, 
                       __T0s14_CollectionBoxC20_underestimatedCountSifg, 
                       __T0s14_CollectionBoxC23__copyToContiguousArrays0eF0Vy7ElementQzGyF, 
                       __T0s14_CollectionBoxC32__customContainsEquatableElementSbSg0F0QzF, 
                       __T0s14_CollectionBoxC4_mapSayqd__Gqd__7ElementQzKcKlF, 
                       __T0s14_CollectionBoxC5_drops04_AnyaB0Cy7ElementQzGSbAGKc5while_tKF, 
                       __T0s14_CollectionBoxC6_counts5Int64Vfg, __T0s14_CollectionBoxC6_first7ElementQzSgfg, 
                       __T0s14_CollectionBoxC6_indexs09_AnyIndexB0_pSgsAD_p_s5Int64V8offsetBysAD_p07limitedH0tF, 
                       __T0s14_CollectionBoxC6_indexs09_AnyIndexB0_psAD_p5after_tF, 
                       __T0s14_CollectionBoxC6_indexs09_AnyIndexB0_psAD_p_s5Int64V8offsetBytF, 
                       __T0s14_CollectionBoxC6_splitSays03AnyA0Vy7ElementQzGGSi9maxSplits_Sb25omittingEmptySubsequencesSbAGKc14whereSeparatortKF, 
                       __T0s14_CollectionBoxC6_splitSays03AnyA0Vy7ElementQzGGSi9maxSplits_Sb25omittingEmptySubsequencesSbAGKc14whereSeparatortKFAH11SubSequenceQzcfU_TA, 
                       __T0s14_CollectionBoxC6_splitSays11AnySequenceVy7ElementQzGGSi9maxSplits_Sb25omittingEmptySubsequencesSbAGKc14whereSeparatortKF, 
                       __T0s14_CollectionBoxC6_splitSays11AnySequenceVy7ElementQzGGSi9maxSplits_Sb25omittingEmptySubsequencesSbAGKc14whereSeparatortKFAH03SubE0QzcfU_TA, 
                       __T0s14_CollectionBoxC6_splitSays11AnySequenceVy7ElementQzGGSi9maxSplits_Sb25omittingEmptySubsequencesSbAGKc14whereSeparatortKFAH03SubE0QzcfU_TATm, 
                       __T0s14_CollectionBoxC6_unbox5IndexQzs04_AnydB0_p_s12StaticStringV4fileSu4linetF, 
                       __T0s14_CollectionBoxC7_filterSay7ElementQzGSbAEKcKF, 
                       __T0s14_CollectionBoxC7_prefixs04_AnyaB0Cy7ElementQzGSbAGKc5while_tKF, 
                       __T0s14_CollectionBoxC7_prefixs04_AnyaB0Cy7ElementQzGSiF, 
                       __T0s14_CollectionBoxC7_suffixs04_AnyaB0Cy7ElementQzGSiF, 
                       __T0s14_CollectionBoxC8_forEachyy7ElementQzKcKF, 
                       __T0s14_CollectionBoxC9_distances5Int64Vs09_AnyIndexB0_p4from_sAF_p2totF, 
                       __T0s14_CollectionBoxC9_dropLasts04_AnyaB0Cy7ElementQzGSiF, 
                       __T0s14_CollectionBoxC9subscript7ElementQzs09_AnyIndexB0_pcfg, 
                       __T0s14_CollectionBoxC9subscripts04_AnyaB0Cy7ElementQzGs01_d5IndexB0_p5start_sAI_p3endtcfg, 
                       __T0s14_CollectionBoxCAByxGs09_AnyIndexB0_p06_startD0_sAD_p03endD0tcfc, 
                       __T0s14_CollectionBoxCAByxGs09_AnyIndexB0_p06_startD0_sAD_p03endD0tcfcTm, 
                       __T0s14_CollectionBoxCAByxGx5_base_tcfC, __T0s14_CollectionBoxCAByxGx5_base_tcfc, 
                       __T0s14_CollectionBoxCMF, __T0s14_CollectionBoxCMP, 
                       __T0s14_CollectionBoxCMa, __T0s14_CollectionBoxCMn, 
                       __T0s14_CollectionBoxCfD, __T0s14_CollectionBoxCfE, 
                       __T0s14_HashingDetailV17fixedSeedOverrides6UInt64VfgZ, 
                       __T0s14_HashingDetailV17fixedSeedOverrides6UInt64VfsZ, 
                       __T0s14_HashingDetailVMF, __T0s14_HashingDetailVMa, 
                       __T0s14_HashingDetailVMf, __T0s14_HashingDetailVMn, 
                       __T0s14_HashingDetailVN, __T0s14_HashingDetailVWV, 
                       __T0s14_IgnorePointerV4callySpyxG_Si5counttF, __T0s14_IgnorePointerVAByxGycfC, 
                       __T0s14_IgnorePointerVMF, __T0s14_IgnorePointerVMP, 
                       __T0s14_IgnorePointerVMa, __T0s14_IgnorePointerVMn, 
                       __T0s14_IgnorePointerVWV, __T0s14_IgnorePointerVyxGs01_B8Functionsl7ElementWt, 
                       __T0s14_IgnorePointerVyxGs01_B8FunctionslMA, __T0s14_IgnorePointerVyxGs01_B8FunctionslWP, 
                       __T0s14_IgnorePointerVyxGs01_B8FunctionslWa, __T0s14_IncrementableMp, 
                       __T0s14_Incrementable_pMF, __T0s14_IndexableBaseMp, 
                       __T0s14_IndexableBase_pMF, __T0s14_SipHashDetailO22_loadUnalignedUInt64LEs0F0VSV4from_tFZ, 
                       __T0s14_SipHashDetailO29_loadPartialUnalignedUInt64LEs0G0VSV4from_Si9byteCounttFZ, 
                       __T0s14_SipHashDetailO7_rotates6UInt64VAE_Si6leftBytFZ, 
                       __T0s14_SipHashDetailO9_sipRoundys6UInt64Vz2v0_AEz2v1AEz2v2AEz2v3tFZ, 
                       __T0s14_SipHashDetailOMF, __T0s14_SipHashDetailOMa, 
                       __T0s14_SipHashDetailOMf, __T0s14_SipHashDetailOMn, 
                       __T0s14_SipHashDetailON, __T0s14_SipHashDetailOWV, 
                       __T0s14_StopIterationOMF, __T0s14_StopIterationOMa, 
                       __T0s14_StopIterationOMf, __T0s14_StopIterationOMn, 
                       __T0s14_StopIterationON, __T0s14_StopIterationOWV, 
                       __T0s14_StopIterationOs5ErrorsWP, __T0s14_StopIterationOs5ErrorsWa, 
                       __T0s14_StopIterationOs8HashablesWP, __T0s14_StopIterationOs8HashablesWa, 
                       __T0s14_StopIterationOs8HashablessACP9hashValueSifgTW, 
                       __T0s14_StopIterationOs9EquatablesWP, __T0s14_StopIterationOs9EquatablesWa, 
                       __T0s14_StopIterationOs9EquatablessACP2eeoiSbx_xtFZTW, 
                       __T0s14_StringElementMp, __T0s14_StringElement_pMF, 
                       __T0s14_UnicodeParserMp, __T0s14_UnicodeParserPsE6_parseSiqd__z_Sb27repairingIllFormedSequencesy8Encoding_13EncodedScalarQZc4intots16IteratorProtocolRd__AE_8CodeUnitQZ7ElementRtd__lFZ, 
                       __T0s14_UnicodeParserPsE6_parseSiqd__z_Sb27repairingIllFormedSequencesy8Encoding_13EncodedScalarQZc4intots16IteratorProtocolRd__AE_8CodeUnitQZ7ElementRtd__lFZfA0_, 
                       __T0s14_UnicodeParserPsE7_decodeSiqd__z_Sb27repairingIllFormedSequencesys0A0O6ScalarVc4intots16IteratorProtocolRd__8Encoding_8CodeUnitQZ7ElementRtd__lFZ, 
                       __T0s14_UnicodeParser_pMF, __T0s14_VaListBuilderC022alignedStorageForEmptyA5ListsSdvZ, 
                       __T0s14_VaListBuilderC24requiredAlignmentInBytesSivWvd, 
                       __T0s14_VaListBuilderC5countSivWvd, __T0s14_VaListBuilderC7storageSpySiGSgvWvd, 
                       __T0s14_VaListBuilderC9allocatedSivWvd, __T0s14_VaListBuilderCMF, 
                       __T0s14_VaListBuilderCML, __T0s14_VaListBuilderCMa, 
                       __T0s14_VaListBuilderCMf, __T0s14_VaListBuilderCMm, 
                       __T0s14_VaListBuilderCMn, __T0s14_VaListBuilderCN, 
                       __T0s14_VaListBuilderCfD, __T0s14_decodeCStringSS6result_Sb11repairsMadetSgSPy8CodeUnitQzG_xm2asSi6lengthSb016repairingInvalidF5Unitsts16_UnicodeEncodingRzlF, 
                       __T0s14_dump_unlockedyyp_xz2toSSSg4nameSi6indentSi8maxDepthSiz0F11ItemCounters10DictionaryVys16ObjectIdentifierVSiGz12visitedItemsts16TextOutputStreamRzlF, 
                       __T0s14_getSuperclassyXlXpSgyXlXpF, __T0s14_getSuperclassyXlXpSgypXpF, 
                       __T0s14_insertionSortyxz_s5RangeVy5Indexs14_IndexableBasePQzG03subC0Sb7Elements8SequencePQz_AMtKc2bytKs23BidirectionalCollectionRzs07MutableL0RzlF, 
                       __T0s14_insertionSortyxz_s5RangeVy5Indexs14_IndexableBasePQzG03subC0ts23BidirectionalCollectionRzs07MutableI0Rzs10Comparable7Elements8SequencePRpzlF, 
                       __T0s14_int64ToStringSSs5Int64V_AC5radixSb9uppercasetF, 
                       __T0s14_introSortImplyxz_s5RangeVy5Indexs14_IndexableBasePQzG03subD0Sb7Elements8SequencePQz_AMtKc2bySi10depthLimittKs17MutableCollectionRzs012RandomAccessO0RzlF, 
                       __T0s14_introSortImplyxz_s5RangeVy5Indexs14_IndexableBasePQzG03subD0Si10depthLimitts17MutableCollectionRzs012RandomAccessL0Rzs10Comparable7Elements8SequencePRpzlF, 
                       __T0s15CollectionOfOneV10startIndexSifg, __T0s15CollectionOfOneV12customMirrors0E0Vfg, 
                       __T0s15CollectionOfOneV12makeIterators0e4OverC0VyxGyF, 
                       __T0s15CollectionOfOneV16debugDescriptionSSfg, __T0s15CollectionOfOneV5countSifg, 
                       __T0s15CollectionOfOneV5indexS2i5after_tF, __T0s15CollectionOfOneV5indexS2i6before_tF, 
                       __T0s15CollectionOfOneV8endIndexSifg, __T0s15CollectionOfOneV9subscripts24MutableRandomAccessSliceVyAByxGGs5RangeVySiGcfg, 
                       __T0s15CollectionOfOneV9subscripts24MutableRandomAccessSliceVyAByxGGs5RangeVySiGcfm, 
                       __T0s15CollectionOfOneV9subscripts24MutableRandomAccessSliceVyAByxGGs5RangeVySiGcfs, 
                       __T0s15CollectionOfOneV9subscriptxSicfg, __T0s15CollectionOfOneV9subscriptxSicfm, 
                       __T0s15CollectionOfOneV9subscriptxSicfs, __T0s15CollectionOfOneVAByxGxcfC, 
                       __T0s15CollectionOfOneVAByxGxcfCTm, __T0s15CollectionOfOneVMF, 
                       __T0s15CollectionOfOneVMP, __T0s15CollectionOfOneVMa, 
                       __T0s15CollectionOfOneVMn, __T0s15CollectionOfOneVyxGs012RandomAccessA0sl11SubSequenceWt, 
                       __T0s15CollectionOfOneVyxGs012RandomAccessA0sl11SubSequences013BidirectionalA0PWT, 
                       __T0s15CollectionOfOneVyxGs012RandomAccessA0sl11SubSequences01_dE9IndexablePWT, 
                       __T0s15CollectionOfOneVyxGs012RandomAccessA0slMA, 
                       __T0s15CollectionOfOneVyxGs012RandomAccessA0slWG, 
                       __T0s15CollectionOfOneVyxGs012RandomAccessA0slWI, 
                       __T0s15CollectionOfOneVyxGs012RandomAccessA0slWP, 
                       __T0s15CollectionOfOneVyxGs012RandomAccessA0slWa, 
                       __T0s15CollectionOfOneVyxGs013BidirectionalA0sl11SubSequenceWt, 
                       __T0s15CollectionOfOneVyxGs013BidirectionalA0sl11SubSequences01_D9IndexablePWT, 
                       __T0s15CollectionOfOneVyxGs013BidirectionalA0sl11SubSequences0A0PWT, 
                       __T0s15CollectionOfOneVyxGs013BidirectionalA0slMA, 
                       __T0s15CollectionOfOneVyxGs013BidirectionalA0slWG, 
                       __T0s15CollectionOfOneVyxGs013BidirectionalA0slWI, 
                       __T0s15CollectionOfOneVyxGs013BidirectionalA0slWP, 
                       __T0s15CollectionOfOneVyxGs013BidirectionalA0slWa, 
                       __T0s15CollectionOfOneVyxGs07MutableA0sl11SubSequenceWt, 
                       __T0s15CollectionOfOneVyxGs07MutableA0sl11SubSequences0A0PWT, 
                       __T0s15CollectionOfOneVyxGs07MutableA0slMA, __T0s15CollectionOfOneVyxGs07MutableA0slWG, 
                       __T0s15CollectionOfOneVyxGs07MutableA0slWI, __T0s15CollectionOfOneVyxGs07MutableA0slWP, 
                       __T0s15CollectionOfOneVyxGs07MutableA0slWa, __T0s15CollectionOfOneVyxGs0A0sl11SubSequenceWt, 
                       __T0s15CollectionOfOneVyxGs0A0sl11SubSequences0E0PWT, 
                       __T0s15CollectionOfOneVyxGs0A0sl11SubSequences14_IndexableBasePWT, 
                       __T0s15CollectionOfOneVyxGs0A0sl8IteratorWt, __T0s15CollectionOfOneVyxGs0A0slMA, 
                       __T0s15CollectionOfOneVyxGs0A0slWG, __T0s15CollectionOfOneVyxGs0A0slWI, 
                       __T0s15CollectionOfOneVyxGs0A0slWP, __T0s15CollectionOfOneVyxGs0A0slWa, 
                       __T0s15CollectionOfOneVyxGs0A0slsADP5index5IndexQzAH_0E8DistanceQz8offsetBytFTWTm, 
                       __T0s15CollectionOfOneVyxGs0A0slsADP6prefix11SubSequenceQz5IndexQz4upTo_tFTWTm, 
                       __T0s15CollectionOfOneVyxGs10_IndexableslMA, __T0s15CollectionOfOneVyxGs10_IndexableslWG, 
                       __T0s15CollectionOfOneVyxGs10_IndexableslWI, __T0s15CollectionOfOneVyxGs10_IndexableslWP, 
                       __T0s15CollectionOfOneVyxGs10_IndexableslWa, __T0s15CollectionOfOneVyxGs14_IndexableBasesl11SubSequenceWt, 
                       __T0s15CollectionOfOneVyxGs14_IndexableBasesl7ElementWt, 
                       __T0s15CollectionOfOneVyxGs14_IndexableBaseslMA, 
                       __T0s15CollectionOfOneVyxGs14_IndexableBaseslWG, 
                       __T0s15CollectionOfOneVyxGs14_IndexableBaseslWP, 
                       __T0s15CollectionOfOneVyxGs14_IndexableBaseslWa, 
                       __T0s15CollectionOfOneVyxGs14_IndexableBaseslsADP10startIndex0G0QzfgTWTm, 
                       __T0s15CollectionOfOneVyxGs14_IndexableBaseslsADP20_failEarlyRangeChecky5IndexQz_s0H0VyAHG6boundstFTWTm, 
                       __T0s15CollectionOfOneVyxGs14_IndexableBaseslsADP5index5IndexQzAH5after_tFTWTm, 
                       __T0s15CollectionOfOneVyxGs14_IndexableBaseslsADP9formIndexy0G0Qzz5after_tFTWTm, 
                       __T0s15CollectionOfOneVyxGs17CustomReflectableslWP, 
                       __T0s15CollectionOfOneVyxGs17CustomReflectableslWa, 
                       __T0s15CollectionOfOneVyxGs17_MutableIndexableslWG, 
                       __T0s15CollectionOfOneVyxGs17_MutableIndexableslWI, 
                       __T0s15CollectionOfOneVyxGs17_MutableIndexableslWP, 
                       __T0s15CollectionOfOneVyxGs17_MutableIndexableslWa, 
                       __T0s15CollectionOfOneVyxGs22_RandomAccessIndexableslWG, 
                       __T0s15CollectionOfOneVyxGs22_RandomAccessIndexableslWI, 
                       __T0s15CollectionOfOneVyxGs22_RandomAccessIndexableslWP, 
                       __T0s15CollectionOfOneVyxGs22_RandomAccessIndexableslWa, 
                       __T0s15CollectionOfOneVyxGs23_BidirectionalIndexableslWG, 
                       __T0s15CollectionOfOneVyxGs23_BidirectionalIndexableslWI, 
                       __T0s15CollectionOfOneVyxGs23_BidirectionalIndexableslWP, 
                       __T0s15CollectionOfOneVyxGs23_BidirectionalIndexableslWa, 
                       __T0s15CollectionOfOneVyxGs28CustomDebugStringConvertibleslWP, 
                       __T0s15CollectionOfOneVyxGs28CustomDebugStringConvertibleslWa, 
                       __T0s15CollectionOfOneVyxGs8Sequencesl03SubD0Wt, 
                       __T0s15CollectionOfOneVyxGs8Sequencesl7ElementWt, 
                       __T0s15CollectionOfOneVyxGs8Sequencesl8IteratorWt, 
                       __T0s15CollectionOfOneVyxGs8Sequencesl8Iterators0E8ProtocolPWT, 
                       __T0s15CollectionOfOneVyxGs8SequenceslMA, __T0s15CollectionOfOneVyxGs8SequenceslWG, 
                       __T0s15CollectionOfOneVyxGs8SequenceslWP, __T0s15CollectionOfOneVyxGs8SequenceslWa, 
                       __T0s15ContiguousArrayV014_baseAddressIfA0SpyxGSgfg, 
                       __T0s15ContiguousArrayV034_makeUniqueAndReserveCapacityIfNotD0yyF, 
                       __T0s15ContiguousArrayV07_copyToaB0AByxGyF, __T0s15ContiguousArrayV10startIndexSifg, 
                       __T0s15ContiguousArrayV11_checkIndexySiF, __T0s15ContiguousArrayV11_copyBufferys01_abD0VyxGzFZ, 
                       __T0s15ContiguousArrayV11_getElementxSi_Sb20wasNativeTypeCheckeds16_DependenceTokenV22matchingSubscriptChecktF, 
                       __T0s15ContiguousArrayV11descriptionSSfg, __T0s15ContiguousArrayV12_baseAddressSpyxGfg, 
                       __T0s15ContiguousArrayV12_getCapacitySiyF, __T0s15ContiguousArrayV12customMirrors0D0Vfg, 
                       __T0s15ContiguousArrayV12replaceRangeys0D0VySiG_qd__4witht7ElementQyd__Rszs10CollectionRd__lF, 
                       __T0s15ContiguousArrayV13_copyContentss16IndexingIteratorVyAByxGG_SitSryxG12initializing_tF, 
                       __T0s15ContiguousArrayV13removeAtIndexxSiF, __T0s15ContiguousArrayV15_checkSubscripts16_DependenceTokenVSi_Sb20wasNativeTypeCheckedtF, 
                       __T0s15ContiguousArrayV15replaceSubrangeys5RangeVySiG_qd__4witht7ElementQyd__Rszs10CollectionRd__lF, 
                       __T0s15ContiguousArrayV15reserveCapacityySiF, __T0s15ContiguousArrayV15reserveCapacityySiFs5UInt8V_Tgq5Tm, 
                       __T0s15ContiguousArrayV15withUnsafeBytesqd__qd__s0D16RawBufferPointerVKcKlF, 
                       __T0s15ContiguousArrayV16_copyToNewBufferySi8oldCount_tF, 
                       __T0s15ContiguousArrayV16_copyToNewBufferySi8oldCount_tFs5UInt8V_Tgq5Tm, 
                       __T0s15ContiguousArrayV16_getOwner_nativeBoyF, __T0s15ContiguousArrayV16_makeDescriptionSSSb7isDebug_tF, 
                       __T0s15ContiguousArrayV16appendContentsOfyqd__7ElementQyd__Rszs8SequenceRd__lF, 
                       __T0s15ContiguousArrayV16debugDescriptionSSfg, __T0s15ContiguousArrayV18_getElementAddressSpyxGSiF, 
                       __T0s15ContiguousArrayV20_failEarlyRangeCheckySi_s0E0VySiG6boundstF, 
                       __T0s15ContiguousArrayV20_failEarlyRangeCheckys0E0VySiG_AF6boundstF, 
                       __T0s15ContiguousArrayV21_makeMutableAndUniqueyyF, 
                       __T0s15ContiguousArrayV22_allocateUninitializedAByxG_SpyxGtSiFZ, 
                       __T0s15ContiguousArrayV22_checkSubscript_nativeySiF, 
                       __T0s15ContiguousArrayV22withUnsafeMutableBytesqd__qd__s0dE16RawBufferPointerVKcKlF, 
                       __T0s15ContiguousArrayV22withUnsafeMutableBytesqd__qd__s0dE16RawBufferPointerVKcKlFqd__SryxGzKcfU_TA, 
                       __T0s15ContiguousArrayV23withUnsafeBufferPointerqd__qd__SRyxGKcKlF, 
                       __T0s15ContiguousArrayV24reserveCapacityForAppendySi16newElementsCount_tF, 
                       __T0s15ContiguousArrayV28_allocateBufferUninitializeds01_abD0VyxGSi15minimumCapacity_tFZ, 
                       __T0s15ContiguousArrayV29_hoistableIsNativeTypeCheckedSbyF, 
                       __T0s15ContiguousArrayV29_makeMutableAndUniqueOrPinnedyyF, 
                       __T0s15ContiguousArrayV30withUnsafeMutableBufferPointerqd__qd__SryxGzKcKlF, 
                       __T0s15ContiguousArrayV33_getOwnerWithSemanticLabel_nativeBoyF, 
                       __T0s15ContiguousArrayV36_reserveCapacityAssumingUniqueBufferySi8oldCount_tF, 
                       __T0s15ContiguousArrayV37_appendElementAssumeUniqueAndCapacityySi_x03newD0tF, 
                       __T0s15ContiguousArrayV42_withUnsafeMutableBufferPointerIfSupportedqd__Sgqd__SpyxG_SitKcKlF, 
                       __T0s15ContiguousArrayV42_withUnsafeMutableBufferPointerIfSupportedqd__Sgqd__SpyxG_SitKcKlFTm, 
                       __T0s15ContiguousArrayV42_withUnsafeMutableBufferPointerIfSupportedqd__Sgqd__SpyxG_SitKcKlFqd__SryxGzKcfU_TA, 
                       __T0s15ContiguousArrayV5countSifg, __T0s15ContiguousArrayV5indexS2i5after_tF, 
                       __T0s15ContiguousArrayV5indexS2i6before_tF, __T0s15ContiguousArrayV5indexS2i_Si8offsetBytF, 
                       __T0s15ContiguousArrayV5indexSiSgSi_Si8offsetBySi07limitedE0tF, 
                       __T0s15ContiguousArrayV6_owneryXlSgfg, __T0s15ContiguousArrayV6appendyqd__10contentsOf_t7ElementQyd__Rszs8SequenceRd__lF, 
                       __T0s15ContiguousArrayV6appendyxF, __T0s15ContiguousArrayV6insertyx_Si2attF, 
                       __T0s15ContiguousArrayV6removexSi2at_tF, __T0s15ContiguousArrayV7popLastxSgyF, 
                       __T0s15ContiguousArrayV8capacitySifg, __T0s15ContiguousArrayV8distanceS2i4from_Si2totF, 
                       __T0s15ContiguousArrayV8endIndexSifg, __T0s15ContiguousArrayV9_getCountSiyF, 
                       __T0s15ContiguousArrayV9formIndexySiz5after_tF, 
                       __T0s15ContiguousArrayV9formIndexySiz6before_tF, 
                       __T0s15ContiguousArrayV9removeAllySb15keepingCapacity_tF, 
                       __T0s15ContiguousArrayV9removeAllySb15keepingCapacity_tFfA_, 
                       __T0s15ContiguousArrayV9subscripts0B5SliceVyxGs5RangeVySiGcfg, 
                       __T0s15ContiguousArrayV9subscripts0B5SliceVyxGs5RangeVySiGcfm, 
                       __T0s15ContiguousArrayV9subscripts0B5SliceVyxGs5RangeVySiGcfmytfU_Tm, 
                       __T0s15ContiguousArrayV9subscripts0B5SliceVyxGs5RangeVySiGcfs, 
                       __T0s15ContiguousArrayV9subscriptxSicfaP, __T0s15ContiguousArrayV9subscriptxSicfg, 
                       __T0s15ContiguousArrayV9subscriptxSicfm, __T0s15ContiguousArrayV9subscriptxSicfsTm, 
                       __T0s15ContiguousArrayVAByxGSayxG12arrayLiterald_tcfC, 
                       __T0s15ContiguousArrayVAByxGSi19_uninitializedCount_tcfC, 
                       __T0s15ContiguousArrayVAByxGqd__c7ElementQyd__Rszs8SequenceRd__lufC, 
                       __T0s15ContiguousArrayVAByxGs01_aB6BufferVyxG7_buffer_tcfC, 
                       __T0s15ContiguousArrayVAByxGx9repeating_Si5counttcfC, 
                       __T0s15ContiguousArrayVAByxGycfC, __T0s15ContiguousArrayVMF, 
                       __T0s15ContiguousArrayVMP, __T0s15ContiguousArrayVMa, 
                       __T0s15ContiguousArrayVMn, __T0s15ContiguousArrayVWV, 
                       __T0s15ContiguousArrayVyxGs013ExpressibleByB7Literalsl0bE7ElementWt, 
                       __T0s15ContiguousArrayVyxGs013ExpressibleByB7LiteralslMA, 
                       __T0s15ContiguousArrayVyxGs013ExpressibleByB7LiteralslWP, 
                       __T0s15ContiguousArrayVyxGs013ExpressibleByB7LiteralslWa, 
                       __T0s15ContiguousArrayVyxGs01_B8Protocolsl7_BufferWt, 
                       __T0s15ContiguousArrayVyxGs01_B8Protocolsl7_Buffers01_bdC0PWT, 
                       __T0s15ContiguousArrayVyxGs01_B8ProtocolslMA, __T0s15ContiguousArrayVyxGs01_B8ProtocolslWG, 
                       __T0s15ContiguousArrayVyxGs01_B8ProtocolslWI, __T0s15ContiguousArrayVyxGs01_B8ProtocolslWP, 
                       __T0s15ContiguousArrayVyxGs01_B8ProtocolslWa, __T0s15ContiguousArrayVyxGs01_B8ProtocolslsADP7isEmptySbfgTWTm, 
                       __T0s15ContiguousArrayVyxGs10Collectionsl11SubSequenceWt, 
                       __T0s15ContiguousArrayVyxGs10Collectionsl11SubSequences0E0PWT, 
                       __T0s15ContiguousArrayVyxGs10Collectionsl11SubSequences14_IndexableBasePWT, 
                       __T0s15ContiguousArrayVyxGs10Collectionsl8IteratorWt, 
                       __T0s15ContiguousArrayVyxGs10CollectionslMA, __T0s15ContiguousArrayVyxGs10CollectionslWG, 
                       __T0s15ContiguousArrayVyxGs10CollectionslWI, __T0s15ContiguousArrayVyxGs10CollectionslWP, 
                       __T0s15ContiguousArrayVyxGs10CollectionslWa, __T0s15ContiguousArrayVyxGs10CollectionslsADP6prefix11SubSequenceQz5IndexQz4upTo_tFTWTm, 
                       __T0s15ContiguousArrayVyxGs10CollectionslsADP7indices7IndicesQzfgTWTm, 
                       __T0s15ContiguousArrayVyxGs10_IndexableslMA, __T0s15ContiguousArrayVyxGs10_IndexableslWG, 
                       __T0s15ContiguousArrayVyxGs10_IndexableslWI, __T0s15ContiguousArrayVyxGs10_IndexableslWP, 
                       __T0s15ContiguousArrayVyxGs10_IndexableslWa, __T0s15ContiguousArrayVyxGs10_IndexableslsADP9formIndexSb0E0Qzz_0E8DistanceQz8offsetByAH07limitedH0tFTWTm, 
                       __T0s15ContiguousArrayVyxGs10_IndexableslsADP9formIndexy0E0Qzz_0E8DistanceQz8offsetBytFTWTm, 
                       __T0s15ContiguousArrayVyxGs14_IndexableBasesl11SubSequenceWt, 
                       __T0s15ContiguousArrayVyxGs14_IndexableBasesl7ElementWt, 
                       __T0s15ContiguousArrayVyxGs14_IndexableBaseslMA, 
                       __T0s15ContiguousArrayVyxGs14_IndexableBaseslWG, 
                       __T0s15ContiguousArrayVyxGs14_IndexableBaseslWP, 
                       __T0s15ContiguousArrayVyxGs14_IndexableBaseslWa, 
                       __T0s15ContiguousArrayVyxGs17CustomReflectableslWP, 
                       __T0s15ContiguousArrayVyxGs17CustomReflectableslWa, 
                       __T0s15ContiguousArrayVyxGs17MutableCollectionsl11SubSequenceWt, 
                       __T0s15ContiguousArrayVyxGs17MutableCollectionsl11SubSequences0D0PWT, 
                       __T0s15ContiguousArrayVyxGs17MutableCollectionslMA, 
                       __T0s15ContiguousArrayVyxGs17MutableCollectionslWG, 
                       __T0s15ContiguousArrayVyxGs17MutableCollectionslWI, 
                       __T0s15ContiguousArrayVyxGs17MutableCollectionslWP, 
                       __T0s15ContiguousArrayVyxGs17MutableCollectionslWa, 
                       __T0s15ContiguousArrayVyxGs17_MutableIndexableslWG, 
                       __T0s15ContiguousArrayVyxGs17_MutableIndexableslWI, 
                       __T0s15ContiguousArrayVyxGs17_MutableIndexableslWP, 
                       __T0s15ContiguousArrayVyxGs17_MutableIndexableslWa, 
                       __T0s15ContiguousArrayVyxGs22RandomAccessCollectionsl11SubSequenceWt, 
                       __T0s15ContiguousArrayVyxGs22RandomAccessCollectionsl11SubSequences013BidirectionalE0PWT, 
                       __T0s15ContiguousArrayVyxGs22RandomAccessCollectionsl11SubSequences01_cD9IndexablePWT, 
                       __T0s15ContiguousArrayVyxGs22RandomAccessCollectionslMA, 
                       __T0s15ContiguousArrayVyxGs22RandomAccessCollectionslWG, 
                       __T0s15ContiguousArrayVyxGs22RandomAccessCollectionslWI, 
                       __T0s15ContiguousArrayVyxGs22RandomAccessCollectionslWP, 
                       __T0s15ContiguousArrayVyxGs22RandomAccessCollectionslWa, 
                       __T0s15ContiguousArrayVyxGs22_RandomAccessIndexableslWG, 
                       __T0s15ContiguousArrayVyxGs22_RandomAccessIndexableslWI, 
                       __T0s15ContiguousArrayVyxGs22_RandomAccessIndexableslWP, 
                       __T0s15ContiguousArrayVyxGs22_RandomAccessIndexableslWa, 
                       __T0s15ContiguousArrayVyxGs23BidirectionalCollectionsl11SubSequenceWt, 
                       __T0s15ContiguousArrayVyxGs23BidirectionalCollectionsl11SubSequences01_C9IndexablePWT, 
                       __T0s15ContiguousArrayVyxGs23BidirectionalCollectionsl11SubSequences0D0PWT, 
                       __T0s15ContiguousArrayVyxGs23BidirectionalCollectionslMA, 
                       __T0s15ContiguousArrayVyxGs23BidirectionalCollectionslWG, 
                       __T0s15ContiguousArrayVyxGs23BidirectionalCollectionslWI, 
                       __T0s15ContiguousArrayVyxGs23BidirectionalCollectionslWP, 
                       __T0s15ContiguousArrayVyxGs23BidirectionalCollectionslWa, 
                       __T0s15ContiguousArrayVyxGs23BidirectionalCollectionslsADP4last7ElementQzSgfgTWTm, 
                       __T0s15ContiguousArrayVyxGs23CustomStringConvertibleslWP, 
                       __T0s15ContiguousArrayVyxGs23CustomStringConvertibleslWa, 
                       __T0s15ContiguousArrayVyxGs23_BidirectionalIndexableslWG, 
                       __T0s15ContiguousArrayVyxGs23_BidirectionalIndexableslWI, 
                       __T0s15ContiguousArrayVyxGs23_BidirectionalIndexableslWP, 
                       __T0s15ContiguousArrayVyxGs23_BidirectionalIndexableslWa, 
                       __T0s15ContiguousArrayVyxGs24_DestructorSafeContainerslWP, 
                       __T0s15ContiguousArrayVyxGs24_DestructorSafeContainerslWa, 
                       __T0s15ContiguousArrayVyxGs26RangeReplaceableCollectionsl11SubSequenceWt, 
                       __T0s15ContiguousArrayVyxGs26RangeReplaceableCollectionsl11SubSequences01_cD9IndexablePWT, 
                       __T0s15ContiguousArrayVyxGs26RangeReplaceableCollectionslMA, 
                       __T0s15ContiguousArrayVyxGs26RangeReplaceableCollectionslWG, 
                       __T0s15ContiguousArrayVyxGs26RangeReplaceableCollectionslWI, 
                       __T0s15ContiguousArrayVyxGs26RangeReplaceableCollectionslWP, 
                       __T0s15ContiguousArrayVyxGs26RangeReplaceableCollectionslWa, 
                       __T0s15ContiguousArrayVyxGs26_RangeReplaceableIndexableslWG, 
                       __T0s15ContiguousArrayVyxGs26_RangeReplaceableIndexableslWI, 
                       __T0s15ContiguousArrayVyxGs26_RangeReplaceableIndexableslWP, 
                       __T0s15ContiguousArrayVyxGs26_RangeReplaceableIndexableslWa, 
                       __T0s15ContiguousArrayVyxGs28CustomDebugStringConvertibleslWP, 
                       __T0s15ContiguousArrayVyxGs28CustomDebugStringConvertibleslWa, 
                       __T0s15ContiguousArrayVyxGs8Sequencesl03SubC0Wt, 
                       __T0s15ContiguousArrayVyxGs8Sequencesl7ElementWt, 
                       __T0s15ContiguousArrayVyxGs8Sequencesl8IteratorWt, 
                       __T0s15ContiguousArrayVyxGs8Sequencesl8Iterators0D8ProtocolPWT, 
                       __T0s15ContiguousArrayVyxGs8SequenceslMA, __T0s15ContiguousArrayVyxGs8SequenceslWG, 
                       __T0s15ContiguousArrayVyxGs8SequenceslWP, __T0s15ContiguousArrayVyxGs8SequenceslWa, 
                       __T0s15ContiguousArrayVyxGs8SequenceslsADP19underestimatedCountSifgTWTm, 
                       __T0s15ContiguousArrayVyxGs8SequenceslsADP3mapSayqd__Gqd__7ElementQzKcKlFTWTm, 
                       __T0s15ContiguousArrayVyxGs8SequenceslsADP4drop03SubC0QzSb7ElementQzKc5while_tKFTWTm, 
                       __T0s15ContiguousArrayVyxGs8SequenceslsADP5splitSay03SubC0QzGSi9maxSplits_Sb25omittingEmptySubsequencesSb7ElementQzKc14whereSeparatortKFTWTm, 
                       __T0s15ContiguousArrayVyxGs8SequenceslsADP6filterSay7ElementQzGSbAHKcKFTWTm, 
                       __T0s15ContiguousArrayVyxGs8SequenceslsADP7forEachyy7ElementQzKcKFTWTm, 
                       __T0s15ContiguousArrayVyxGs8SequenceslsADP9dropFirst03SubC0QzSiFTWTm, 
                       __T0s15EmptyCollectionV10startIndexSifg, __T0s15EmptyCollectionV12makeIterators0aD0VyxGyF, 
                       __T0s15EmptyCollectionV20_failEarlyRangeCheckySi_s0E0VySiG6boundstF, 
                       __T0s15EmptyCollectionV20_failEarlyRangeCheckys0E0VySiG_AF6boundstF, 
                       __T0s15EmptyCollectionV2eeoiSbAByxG_ADtFZ, __T0s15EmptyCollectionV5countSifg, 
                       __T0s15EmptyCollectionV5indexS2i5after_tF, __T0s15EmptyCollectionV5indexS2i6before_tF, 
                       __T0s15EmptyCollectionV5indexS2i_Si8offsetBytF, 
                       __T0s15EmptyCollectionV5indexSiSgSi_Si8offsetBySi07limitedE0tF, 
                       __T0s15EmptyCollectionV8distanceS2i4from_Si2totF, 
                       __T0s15EmptyCollectionV8endIndexSifg, __T0s15EmptyCollectionV9subscriptAByxGs5RangeVySiGcfg, 
                       __T0s15EmptyCollectionV9subscriptAByxGs5RangeVySiGcfm, 
                       __T0s15EmptyCollectionV9subscriptAByxGs5RangeVySiGcfs, 
                       __T0s15EmptyCollectionV9subscriptxSicfg, __T0s15EmptyCollectionV9subscriptxSicfm, 
                       __T0s15EmptyCollectionV9subscriptxSicfs, __T0s15EmptyCollectionVAByxGycfC, 
                       __T0s15EmptyCollectionVMF, __T0s15EmptyCollectionVMP, 
                       __T0s15EmptyCollectionVMa, __T0s15EmptyCollectionVMn, 
                       __T0s15EmptyCollectionVWV, __T0s15EmptyCollectionVyxGs012RandomAccessB0sl11SubSequenceWt, 
                       __T0s15EmptyCollectionVyxGs012RandomAccessB0sl11SubSequences013BidirectionalB0PWT, 
                       __T0s15EmptyCollectionVyxGs012RandomAccessB0sl11SubSequences01_cD9IndexablePWT, 
                       __T0s15EmptyCollectionVyxGs012RandomAccessB0slMA, 
                       __T0s15EmptyCollectionVyxGs012RandomAccessB0slWG, 
                       __T0s15EmptyCollectionVyxGs012RandomAccessB0slWI, 
                       __T0s15EmptyCollectionVyxGs012RandomAccessB0slWP, 
                       __T0s15EmptyCollectionVyxGs012RandomAccessB0slWa, 
                       __T0s15EmptyCollectionVyxGs013BidirectionalB0sl11SubSequenceWt, 
                       __T0s15EmptyCollectionVyxGs013BidirectionalB0sl11SubSequences01_C9IndexablePWT, 
                       __T0s15EmptyCollectionVyxGs013BidirectionalB0sl11SubSequences0B0PWT, 
                       __T0s15EmptyCollectionVyxGs013BidirectionalB0slMA, 
                       __T0s15EmptyCollectionVyxGs013BidirectionalB0slWG, 
                       __T0s15EmptyCollectionVyxGs013BidirectionalB0slWI, 
                       __T0s15EmptyCollectionVyxGs013BidirectionalB0slWP, 
                       __T0s15EmptyCollectionVyxGs013BidirectionalB0slWa, 
                       __T0s15EmptyCollectionVyxGs07MutableB0sl11SubSequenceWt, 
                       __T0s15EmptyCollectionVyxGs07MutableB0sl11SubSequences0B0PWT, 
                       __T0s15EmptyCollectionVyxGs07MutableB0slMA, __T0s15EmptyCollectionVyxGs07MutableB0slWG, 
                       __T0s15EmptyCollectionVyxGs07MutableB0slWI, __T0s15EmptyCollectionVyxGs07MutableB0slWP, 
                       __T0s15EmptyCollectionVyxGs07MutableB0slWa, __T0s15EmptyCollectionVyxGs0B0sl11SubSequenceWt, 
                       __T0s15EmptyCollectionVyxGs0B0sl11SubSequences0D0PWT, 
                       __T0s15EmptyCollectionVyxGs0B0sl11SubSequences14_IndexableBasePWT, 
                       __T0s15EmptyCollectionVyxGs0B0sl8IteratorWt, __T0s15EmptyCollectionVyxGs0B0slMA, 
                       __T0s15EmptyCollectionVyxGs0B0slWG, __T0s15EmptyCollectionVyxGs0B0slWI, 
                       __T0s15EmptyCollectionVyxGs0B0slWP, __T0s15EmptyCollectionVyxGs0B0slWa, 
                       __T0s15EmptyCollectionVyxGs10_IndexableslMA, __T0s15EmptyCollectionVyxGs10_IndexableslWG, 
                       __T0s15EmptyCollectionVyxGs10_IndexableslWI, __T0s15EmptyCollectionVyxGs10_IndexableslWP, 
                       __T0s15EmptyCollectionVyxGs10_IndexableslWa, __T0s15EmptyCollectionVyxGs14_IndexableBasesl11SubSequenceWt, 
                       __T0s15EmptyCollectionVyxGs14_IndexableBasesl7ElementWt, 
                       __T0s15EmptyCollectionVyxGs14_IndexableBaseslMA, 
                       __T0s15EmptyCollectionVyxGs14_IndexableBaseslWG, 
                       __T0s15EmptyCollectionVyxGs14_IndexableBaseslWP, 
                       __T0s15EmptyCollectionVyxGs14_IndexableBaseslWa, 
                       __T0s15EmptyCollectionVyxGs17_MutableIndexableslWG, 
                       __T0s15EmptyCollectionVyxGs17_MutableIndexableslWI, 
                       __T0s15EmptyCollectionVyxGs17_MutableIndexableslWP, 
                       __T0s15EmptyCollectionVyxGs17_MutableIndexableslWa, 
                       __T0s15EmptyCollectionVyxGs22_RandomAccessIndexableslWG, 
                       __T0s15EmptyCollectionVyxGs22_RandomAccessIndexableslWI, 
                       __T0s15EmptyCollectionVyxGs22_RandomAccessIndexableslWP, 
                       __T0s15EmptyCollectionVyxGs22_RandomAccessIndexableslWa, 
                       __T0s15EmptyCollectionVyxGs23_BidirectionalIndexableslWG, 
                       __T0s15EmptyCollectionVyxGs23_BidirectionalIndexableslWI, 
                       __T0s15EmptyCollectionVyxGs23_BidirectionalIndexableslWP, 
                       __T0s15EmptyCollectionVyxGs23_BidirectionalIndexableslWa, 
                       __T0s15EmptyCollectionVyxGs8Sequencesl03SubC0Wt, 
                       __T0s15EmptyCollectionVyxGs8Sequencesl7ElementWt, 
                       __T0s15EmptyCollectionVyxGs8Sequencesl8IteratorWt, 
                       __T0s15EmptyCollectionVyxGs8Sequencesl8Iterators0D8ProtocolPWT, 
                       __T0s15EmptyCollectionVyxGs8SequenceslMA, __T0s15EmptyCollectionVyxGs8SequenceslWG, 
                       __T0s15EmptyCollectionVyxGs8SequenceslWP, __T0s15EmptyCollectionVyxGs8SequenceslWa, 
                       __T0s15EmptyCollectionVyxGs9EquatableslWP, __T0s15EmptyCollectionVyxGs9EquatableslWa, 
                       __T0s15FlattenIteratorV4next7Element_ADQZSgyF, __T0s15FlattenIteratorVMF, 
                       __T0s15FlattenIteratorVMP, __T0s15FlattenIteratorVMa, 
                       __T0s15FlattenIteratorVMn, __T0s15FlattenIteratorVyxGs0B8ProtocolssADRzs8Sequence7ElementRpzlAFWt, 
                       __T0s15FlattenIteratorVyxGs0B8ProtocolssADRzs8Sequence7ElementRpzlMA, 
                       __T0s15FlattenIteratorVyxGs0B8ProtocolssADRzs8Sequence7ElementRpzlWP, 
                       __T0s15FlattenIteratorVyxGs0B8ProtocolssADRzs8Sequence7ElementRpzlWa, 
                       __T0s15FlattenIteratorVyxGs8Sequencess0B8ProtocolRzsAD7ElementRpzl03SubC0Wt, 
                       __T0s15FlattenIteratorVyxGs8Sequencess0B8ProtocolRzsAD7ElementRpzl0B0Wt, 
                       __T0s15FlattenIteratorVyxGs8Sequencess0B8ProtocolRzsAD7ElementRpzl0B0sAEPWT, 
                       __T0s15FlattenIteratorVyxGs8Sequencess0B8ProtocolRzsAD7ElementRpzlAFWt, 
                       __T0s15FlattenIteratorVyxGs8Sequencess0B8ProtocolRzsAD7ElementRpzlMA, 
                       __T0s15FlattenIteratorVyxGs8Sequencess0B8ProtocolRzsAD7ElementRpzlWG, 
                       __T0s15FlattenIteratorVyxGs8Sequencess0B8ProtocolRzsAD7ElementRpzlWP, 
                       __T0s15FlattenIteratorVyxGs8Sequencess0B8ProtocolRzsAD7ElementRpzlWa, 
                       __T0s15FlattenIteratorVyxGs8Sequencess0B8ProtocolRzsAD7ElementRpzlsADP4drop03SubC0QzSbAFQzKc5while_tKFTWTm, 
                       __T0s15FlattenIteratorVyxGs8Sequencess0B8ProtocolRzsAD7ElementRpzlsADP9dropFirst03SubC0QzSiFTWTm, 
                       __T0s15FlattenSequenceV12makeIterators0aD0Vy0D0QzGyF, 
                       __T0s15FlattenSequenceV8generates0A8IteratorVy0D0QzGyF, 
                       __T0s15FlattenSequenceVMF, __T0s15FlattenSequenceVMP, 
                       __T0s15FlattenSequenceVMa, __T0s15FlattenSequenceVMn, 
                       __T0s15FlattenSequenceVyxGs0B0ssADRzsAD7ElementRpzl03SubB0Wt, 
                       __T0s15FlattenSequenceVyxGs0B0ssADRzsAD7ElementRpzl8IteratorWt, 
                       __T0s15FlattenSequenceVyxGs0B0ssADRzsAD7ElementRpzl8Iterators0D8ProtocolPWT, 
                       __T0s15FlattenSequenceVyxGs0B0ssADRzsAD7ElementRpzlAEWt, 
                       __T0s15FlattenSequenceVyxGs0B0ssADRzsAD7ElementRpzlMA, 
                       __T0s15FlattenSequenceVyxGs0B0ssADRzsAD7ElementRpzlWG, 
                       __T0s15FlattenSequenceVyxGs0B0ssADRzsAD7ElementRpzlWP, 
                       __T0s15FlattenSequenceVyxGs0B0ssADRzsAD7ElementRpzlWa, 
                       __T0s15FlattenSequenceVyxGs0B0ssADRzsAD7ElementRpzlsADP024_customContainsEquatableC0SbSgAFFTWTm, 
                       __T0s15FlattenSequenceVyxGs0B0ssADRzsAD7ElementRpzlsADP4drop03SubB0QzSbAFKc5while_tKFTWTm, 
                       __T0s15FlattenSequenceVyxGs0B0ssADRzsAD7ElementRpzlsADP9dropFirst03SubB0QzSiFTWTm, 
                       __T0s15IteratorOverOneV4nextxSgyF, __T0s15IteratorOverOneV8generateAByxGyF, 
                       __T0s15IteratorOverOneVAByxGxSg9_elements_tcfC, 
                       __T0s15IteratorOverOneVMF, __T0s15IteratorOverOneVMP, 
                       __T0s15IteratorOverOneVMa, __T0s15IteratorOverOneVMn, 
                       __T0s15IteratorOverOneVyxGs0A8Protocolsl7ElementWt, 
                       __T0s15IteratorOverOneVyxGs0A8ProtocolslMA, __T0s15IteratorOverOneVyxGs0A8ProtocolslWP, 
                       __T0s15IteratorOverOneVyxGs0A8ProtocolslWa, __T0s15IteratorOverOneVyxGs8Sequencesl03SubD0Wt, 
                       __T0s15IteratorOverOneVyxGs8Sequencesl0A0Wt, __T0s15IteratorOverOneVyxGs8Sequencesl0A0s0A8ProtocolPWT, 
                       __T0s15IteratorOverOneVyxGs8Sequencesl7ElementWt, 
                       __T0s15IteratorOverOneVyxGs8SequenceslMA, __T0s15IteratorOverOneVyxGs8SequenceslWG, 
                       __T0s15IteratorOverOneVyxGs8SequenceslWP, __T0s15IteratorOverOneVyxGs8SequenceslWa, 
                       __T0s15IteratorOverOneVyxGs8SequenceslsADP4drop03SubD0QzSb7ElementQzKc5while_tKFTWTm, 
                       __T0s15IteratorOverOneVyxGs8SequenceslsADP9dropFirst03SubD0QzSiFTWTm, 
                       __T0s15LazyMapIteratorV4basexfg, __T0s15LazyMapIteratorV4nextq_SgyF, 
                       __T0s15LazyMapIteratorVAByxq_Gx5_base_q_7ElementQzc10_transformtcfC, 
                       __T0s15LazyMapIteratorVAByxq_Gx5_base_q_7ElementQzc10_transformtcfCTm, 
                       __T0s15LazyMapIteratorVMF, __T0s15LazyMapIteratorVMP, 
                       __T0s15LazyMapIteratorVMa, __T0s15LazyMapIteratorVMn, 
                       __T0s15LazyMapIteratorVyxq_Gs0C8ProtocolssADRzr0_l7ElementWt, 
                       __T0s15LazyMapIteratorVyxq_Gs0C8ProtocolssADRzr0_lMA, 
                       __T0s15LazyMapIteratorVyxq_Gs0C8ProtocolssADRzr0_lWP, 
                       __T0s15LazyMapIteratorVyxq_Gs0C8ProtocolssADRzr0_lWa, 
                       __T0s15LazyMapIteratorVyxq_Gs8Sequencess0C8ProtocolRzr0_l03SubD0Wt, 
                       __T0s15LazyMapIteratorVyxq_Gs8Sequencess0C8ProtocolRzr0_l0C0Wt, 
                       __T0s15LazyMapIteratorVyxq_Gs8Sequencess0C8ProtocolRzr0_l0C0sAEPWT, 
                       __T0s15LazyMapIteratorVyxq_Gs8Sequencess0C8ProtocolRzr0_l7ElementWt, 
                       __T0s15LazyMapIteratorVyxq_Gs8Sequencess0C8ProtocolRzr0_lMA, 
                       __T0s15LazyMapIteratorVyxq_Gs8Sequencess0C8ProtocolRzr0_lWG, 
                       __T0s15LazyMapIteratorVyxq_Gs8Sequencess0C8ProtocolRzr0_lWP, 
                       __T0s15LazyMapIteratorVyxq_Gs8Sequencess0C8ProtocolRzr0_lWa, 
                       __T0s15LazyMapIteratorVyxq_Gs8Sequencess0C8ProtocolRzr0_lsADP4drop03SubD0QzSb7ElementQzKc5while_tKFTWTm, 
                       __T0s15LazyMapIteratorVyxq_Gs8Sequencess0C8ProtocolRzr0_lsADP6prefix03SubD0QzSiFTWTm, 
                       __T0s15LazyMapIteratorVyxq_Gs8Sequencess0C8ProtocolRzr0_lsADP9dropFirst03SubD0QzSiFTWTm, 
                       __T0s15LazyMapSequenceV12makeIterators0abE0Vy0E0Qzq_GyF, 
                       __T0s15LazyMapSequenceV19underestimatedCountSifg, 
                       __T0s15LazyMapSequenceVAByxq_Gx5_base_q_7ElementQzc9transformtcfC, 
                       __T0s15LazyMapSequenceVAByxq_Gx_q_7ElementQzc9transformtcfC, 
                       __T0s15LazyMapSequenceVMF, __T0s15LazyMapSequenceVMP, 
                       __T0s15LazyMapSequenceVMa, __T0s15LazyMapSequenceVMn, 
                       __T0s15LazyMapSequenceVyxq_Gs0C0ssADRzr0_l03SubC0Wt, 
                       __T0s15LazyMapSequenceVyxq_Gs0C0ssADRzr0_l7ElementWt, 
                       __T0s15LazyMapSequenceVyxq_Gs0C0ssADRzr0_l8IteratorWt, 
                       __T0s15LazyMapSequenceVyxq_Gs0C0ssADRzr0_l8Iterators0D8ProtocolPWT, 
                       __T0s15LazyMapSequenceVyxq_Gs0C0ssADRzr0_lMA, __T0s15LazyMapSequenceVyxq_Gs0C0ssADRzr0_lWG, 
                       __T0s15LazyMapSequenceVyxq_Gs0C0ssADRzr0_lWP, __T0s15LazyMapSequenceVyxq_Gs0C0ssADRzr0_lWa, 
                       __T0s15LazyMapSequenceVyxq_Gs0aC8Protocolss0C0Rzr0_l8ElementsWt, 
                       __T0s15LazyMapSequenceVyxq_Gs0aC8Protocolss0C0Rzr0_l8ElementssAEPWT, 
                       __T0s15LazyMapSequenceVyxq_Gs0aC8Protocolss0C0Rzr0_lMA, 
                       __T0s15LazyMapSequenceVyxq_Gs0aC8Protocolss0C0Rzr0_lWG, 
                       __T0s15LazyMapSequenceVyxq_Gs0aC8Protocolss0C0Rzr0_lWI, 
                       __T0s15LazyMapSequenceVyxq_Gs0aC8Protocolss0C0Rzr0_lWP, 
                       __T0s15LazyMapSequenceVyxq_Gs0aC8Protocolss0C0Rzr0_lWa, 
                       __T0s15RangeExpressionMp, __T0s15RangeExpressionPsE2teoiSbx_5BoundQztFZ, 
                       __T0s15RangeExpression_pMF, __T0s15UnboundedRange_O3zzzoPyABFZ, 
                       __T0s15UnboundedRange_OMF, __T0s15UnboundedRange_OMa, 
                       __T0s15UnboundedRange_OMf, __T0s15UnboundedRange_OMn, 
                       __T0s15UnboundedRange_ON, __T0s15UnboundedRange_OWV, 
                       __T0s15UnsignedIntegerMp, __T0s15UnsignedIntegerPsE11descriptionSSfg, 
                       __T0s15UnsignedIntegerPsE9toUIntMaxs6UInt64VyF, 
                       __T0s15UnsignedIntegerPss010FixedWidthB0RzsAARzlExSgqd__7exactly_tcs06BinaryB0Rd__lufC, 
                       __T0s15UnsignedIntegerPss010FixedWidthB0RzsAARzlExqd__cs06BinaryB0Rd__lufC, 
                       __T0s15UnsignedInteger_pMF, __T0s15WritableKeyPathC21projectMutableAddressSpyq_G7pointer_yXlSg5ownertSPyxG4from_tF, 
                       __T0s15WritableKeyPathC4kinds0bC4KindOfgZ, __T0s15WritableKeyPathCMF, 
                       __T0s15WritableKeyPathCMP, __T0s15WritableKeyPathCMa, 
                       __T0s15WritableKeyPathCMn, __T0s15WritableKeyPathCfD, 
                       __T0s15WritableKeyPathCfd, __T0s15_AnyHashableBoxMp, 
                       __T0s15_AnyHashableBox_pMF, __T0s15_AnySequenceBoxC10_dropFirstAByxGSiF, 
                       __T0s15_AnySequenceBoxC13_makeIterators0aE0VyxGyF, 
                       __T0s15_AnySequenceBoxC14__copyContentss0A8IteratorVyxG_SitSryxG12initializing_tF, 
                       __T0s15_AnySequenceBoxC19__preprocessingPassqd__Sgqd__yKcKlF, 
                       __T0s15_AnySequenceBoxC20_underestimatedCountSifg, 
                       __T0s15_AnySequenceBoxC23__copyToContiguousArrays0fG0VyxGyF, 
                       __T0s15_AnySequenceBoxC32__customContainsEquatableElementSbSgxF, 
                       __T0s15_AnySequenceBoxC4_mapSayqd__Gqd__xKcKlF, 
                       __T0s15_AnySequenceBoxC5_dropAByxGSbxKc5while_tKF, 
                       __T0s15_AnySequenceBoxC6_splitSays0aB0VyxGGSi9maxSplits_Sb25omittingEmptySubsequencesSbxKc14whereSeparatortKF, 
                       __T0s15_AnySequenceBoxC7_filterSayxGSbxKcKF, __T0s15_AnySequenceBoxC7_prefixAByxGSbxKc5while_tKF, 
                       __T0s15_AnySequenceBoxC7_prefixAByxGSiF, __T0s15_AnySequenceBoxC7_suffixAByxGSiF, 
                       __T0s15_AnySequenceBoxC8_forEachyyxKcKF, __T0s15_AnySequenceBoxC9_dropLastAByxGSiF, 
                       __T0s15_AnySequenceBoxCMF, __T0s15_AnySequenceBoxCMP, 
                       __T0s15_AnySequenceBoxCMa, __T0s15_AnySequenceBoxCMn, 
                       __T0s15_AnySequenceBoxCfD, __T0s15_CVarArgAlignedMp, 
                       __T0s15_CVarArgAligned_pMF, __T0s15_CocoaSetBufferV10startIndexs01_abE0Vfg, 
                       __T0s15_CocoaSetBufferV5indexs01_aB5IndexVAE5after_tF, 
                       __T0s15_CocoaSetBufferV5indexs01_aB5IndexVSgyXl6forKey_tF, 
                       __T0s15_CocoaSetBufferVMF, __T0s15_CocoaSetBufferVMa, 
                       __T0s15_CocoaSetBufferVMf, __T0s15_CocoaSetBufferVMn, 
                       __T0s15_CocoaSetBufferVN, __T0s15_CocoaSetBufferVWV, 
                       __T0s15_CocoaSetBufferVs05_HashC0sMA, __T0s15_CocoaSetBufferVs05_HashC0sWP, 
                       __T0s15_CocoaSetBufferVs05_HashC0sWa, __T0s15_CocoaSetBufferVs05_HashC0ssACP10startIndex0F0QzfgTW, 
                       __T0s15_CocoaSetBufferVs05_HashC0ssACP11removeValue0F0QzSg3KeyQz03forG0_tFTW, 
                       __T0s15_CocoaSetBufferVs05_HashC0ssACP11updateValue0F0QzSgAG_3KeyQz03forG0tFTW, 
                       __T0s15_CocoaSetBufferVs05_HashC0ssACP12assertingGet15SequenceElementQz5IndexQzFTW, 
                       __T0s15_CocoaSetBufferVs05_HashC0ssACP12assertingGet5ValueQz3KeyQzFTW, 
                       __T0s15_CocoaSetBufferVs05_HashC0ssACP5countSifgTW, 
                       __T0s15_CocoaSetBufferVs05_HashC0ssACP6insertSb8inserted_5ValueQz17memberAfterInserttAH_3KeyQz03forK0tFTW, 
                       __T0s15_CocoaSetBufferVs05_HashC0ssACP6remove15SequenceElementQz5IndexQz2at_tFTW, 
                       __T0s15_CocoaSetBufferVs05_HashC0ssACP8endIndex0F0QzfgTW, 
                       __T0s15_CocoaSetBufferVs05_HashC0ssACP8maybeGet5ValueQzSg3KeyQzFTW, 
                       __T0s15_CocoaSetBufferVs05_HashC0ssACP8maybeGet5ValueQzSg3KeyQzFTWTm, 
                       __T0s15_CocoaSetBufferVs05_HashC0ssACP9formIndexy0F0Qzz5after_tFTW, 
                       __T0s15_CocoaSetBufferVs05_HashC0ssACP9fromArrayxSay28SequenceElementWithoutLabelsQzGFZTW, 
                       __T0s15_CocoaSetBufferVs05_HashC0ssACP9removeAllySb15keepingCapacity_tFTW, 
                       __T0s15_MetatypeMirrorVMF, __T0s15_MetatypeMirrorVMa, 
                       __T0s15_MetatypeMirrorVMf, __T0s15_MetatypeMirrorVMn, 
                       __T0s15_MetatypeMirrorVN, __T0s15_MetatypeMirrorVWV, 
                       __T0s15_MetatypeMirrorVs01_B0sWP, __T0s15_MetatypeMirrorVs01_B0sWa, 
                       __T0s15_MetatypeMirrorVs01_B0ssACP11dispositions01_B11DispositionOfgTW, 
                       __T0s15_MetatypeMirrorVs01_B0ssACP15quickLookObjects015PlaygroundQuickD0OSgfgTW, 
                       __T0s15_MetatypeMirrorVs01_B0ssACP16objectIdentifiers06ObjectD0VSgfgTW, 
                       __T0s15_MetatypeMirrorVs01_B0ssACP5countSifgTW, 
                       __T0s15_MetatypeMirrorVs01_B0ssACP5valueypfgTW, 
                       __T0s15_MetatypeMirrorVs01_B0ssACP7summarySSfgTW, 
                       __T0s15_MetatypeMirrorVs01_B0ssACP9subscriptSS_sAC_ptSicfgTW, 
                       __T0s15_MetatypeMirrorVs01_B0ssACP9valueTypeypXpfgTW, 
                       __T0s15_NativeSetIndexV1goiSbAByxG_ADtFZ, __T0s15_NativeSetIndexV1loiSbAByxG_ADtFZ, 
                       __T0s15_NativeSetIndexV2eeoiSbAByxG_ADtFZ, __T0s15_NativeSetIndexV2geoiSbAByxG_ADtFZ, 
                       __T0s15_NativeSetIndexV2leoiSbAByxG_ADtFZ, __T0s15_NativeSetIndexVAByxGSi6offset_tcfC, 
                       __T0s15_NativeSetIndexVMF, __T0s15_NativeSetIndexVMP, 
                       __T0s15_NativeSetIndexVMa, __T0s15_NativeSetIndexVMn, 
                       __T0s15_NativeSetIndexVWV, __T0s15_NativeSetIndexVyxGs10ComparableslWP, 
                       __T0s15_NativeSetIndexVyxGs10ComparableslWa, __T0s15_NativeSetIndexVyxGs10ComparableslsADP1goiSbx_xtFZTW, 
                       __T0s15_NativeSetIndexVyxGs10ComparableslsADP1loiSbx_xtFZTW, 
                       __T0s15_NativeSetIndexVyxGs10ComparableslsADP2geoiSbx_xtFZTW, 
                       __T0s15_NativeSetIndexVyxGs10ComparableslsADP2leoiSbx_xtFZTW, 
                       __T0s15_NativeSetIndexVyxGs9EquatableslWP, __T0s15_NativeSetIndexVyxGs9EquatableslWa, 
                       __T0s15_NativeSetIndexVyxGs9EquatableslsADP2eeoiSbx_xtFZTW, 
                       __T0s15_PrefixSequenceV12makeIteratorAByxGyF, __T0s15_PrefixSequenceV4next7ElementQzSgyF, 
                       __T0s15_PrefixSequenceV6prefixs03AnyB0Vy7ElementQzGSiF, 
                       __T0s15_PrefixSequenceVAByxGx9_iterator_Si9maxLengthSi5takentcfC, 
                       __T0s15_PrefixSequenceVAByxGx9_iterator_Si9maxLengthSi5takentcfcfA1_, 
                       __T0s15_PrefixSequenceVMF, __T0s15_PrefixSequenceVMP, 
                       __T0s15_PrefixSequenceVMa, __T0s15_PrefixSequenceVMn, 
                       __T0s15_PrefixSequenceVyxGs0B0ss16IteratorProtocolRzl03SubB0Wt, 
                       __T0s15_PrefixSequenceVyxGs0B0ss16IteratorProtocolRzl0C0Wt, 
                       __T0s15_PrefixSequenceVyxGs0B0ss16IteratorProtocolRzl0C0sAEPWT, 
                       __T0s15_PrefixSequenceVyxGs0B0ss16IteratorProtocolRzl7ElementWt, 
                       __T0s15_PrefixSequenceVyxGs0B0ss16IteratorProtocolRzlMA, 
                       __T0s15_PrefixSequenceVyxGs0B0ss16IteratorProtocolRzlWG, 
                       __T0s15_PrefixSequenceVyxGs0B0ss16IteratorProtocolRzlWP, 
                       __T0s15_PrefixSequenceVyxGs0B0ss16IteratorProtocolRzlWa, 
                       __T0s15_PrefixSequenceVyxGs0B0ss16IteratorProtocolRzlsADP4drop03SubB0QzSb7ElementQzKc5while_tKFTWTm, 
                       __T0s15_PrefixSequenceVyxGs0B0ss16IteratorProtocolRzlsADP9dropFirst03SubB0QzSiFTWTm, 
                       __T0s15_PrefixSequenceVyxGs16IteratorProtocolssADRzl7ElementWt, 
                       __T0s15_PrefixSequenceVyxGs16IteratorProtocolssADRzlMA, 
                       __T0s15_PrefixSequenceVyxGs16IteratorProtocolssADRzlWP, 
                       __T0s15_PrefixSequenceVyxGs16IteratorProtocolssADRzlWa, 
                       __T0s15_RuntimeHelpersOMF, __T0s15_RuntimeHelpersOMa, 
                       __T0s15_RuntimeHelpersOMf, __T0s15_RuntimeHelpersOMn, 
                       __T0s15_RuntimeHelpersON, __T0s15_RuntimeHelpersOWV, 
                       __T0s15_ShadowProtocol_pMF, __T0s15_arrayForceCastSayq_GSayxGr0_lF, 
                       __T0s15_arrayForceCastSayq_GSayxGr0_lFq_xcfU_, __T0s15_arrayForceCastSayq_GSayxGr0_lFq_xcfU_TA, 
                       __T0s15_nonPointerBitsSuBbF, __T0s15_persistCStringSays4Int8VGSgSPyACGSgF, 
                       __T0s15_print_unlockedyx_q_zts16TextOutputStreamR_r0_lF, 
                       __T0s15_print_unlockedyx_q_zts16TextOutputStreamR_r0_lFTfq4gn_n, 
                       __T0s15_uint64ToStringSSs6UInt64V_s5Int64V5radixSb9uppercasetF, 
                       __T0s15_uint64ToStringSSs6UInt64V_s5Int64V5radixSb9uppercasetFTm, 
                       __T0s15_uint64ToStringSSs6UInt64V_s5Int64V5radixSb9uppercasetFfA0_, 
                       __T0s15_uint64ToStringSSs6UInt64V_s5Int64V5radixSb9uppercasetFfA1_, 
                       __T0s15unsafeAddressOfSVyXlF, __T0s15withUnsafeBytesq_xz2of_q_s0B16RawBufferPointerVKctKr0_lF, 
                       __T0s15withUnsafeBytesq_xz2of_q_s0B16RawBufferPointerVKctKr0_lFTm, 
                       __T0s16ClosedRangeIndexV13_dereferencedxfg, __T0s16ClosedRangeIndexV1loiSbAByxG_ADtFZ, 
                       __T0s16ClosedRangeIndexV2eeoiSbAByxG_ADtFZ, __T0s16ClosedRangeIndexV2eeoiSbAByxG_ADtFZTm, 
                       __T0s16ClosedRangeIndexVAByxGxcfC, __T0s16ClosedRangeIndexVAByxGycfC, 
                       __T0s16ClosedRangeIndexVMF, __T0s16ClosedRangeIndexVMP, 
                       __T0s16ClosedRangeIndexVMa, __T0s16ClosedRangeIndexVMn, 
                       __T0s16ClosedRangeIndexVyxGs10ComparablessADRzs11_StrideableRzs13SignedInteger6StridesAEPRpzlWP, 
                       __T0s16ClosedRangeIndexVyxGs10ComparablessADRzs11_StrideableRzs13SignedInteger6StridesAEPRpzlWa, 
                       __T0s16ClosedRangeIndexVyxGs9Equatabless10ComparableRzs11_StrideableRzs13SignedInteger6StridesAFPRpzlWP, 
                       __T0s16ClosedRangeIndexVyxGs9Equatabless10ComparableRzs11_StrideableRzs13SignedInteger6StridesAFPRpzlWa, 
                       __T0s16FlattenGeneratorVMF, __T0s16FlattenGeneratorVMP, 
                       __T0s16FlattenGeneratorVMa, __T0s16FlattenGeneratorVMn, 
                       __T0s16FlattenGeneratorVWV, __T0s16HalfOpenIntervalVMF, 
                       __T0s16HalfOpenIntervalVMP, __T0s16HalfOpenIntervalVMa, 
                       __T0s16HalfOpenIntervalVMn, __T0s16HalfOpenIntervalVWV, 
                       __T0s16IndexingIteratorV4next7ElementQzSgyF, __T0s16IndexingIteratorVAByxGx9_elements_5IndexQz9_positiontcfC, 
                       __T0s16IndexingIteratorVAByxGx9_elements_tcfC, __T0s16IndexingIteratorVMF, 
                       __T0s16IndexingIteratorVMP, __T0s16IndexingIteratorVMa, 
                       __T0s16IndexingIteratorVMn, __T0s16IndexingIteratorVyxGs0B8Protocolss14_IndexableBaseRzl7ElementWt, 
                       __T0s16IndexingIteratorVyxGs0B8Protocolss14_IndexableBaseRzlMA, 
                       __T0s16IndexingIteratorVyxGs0B8Protocolss14_IndexableBaseRzlWP, 
                       __T0s16IndexingIteratorVyxGs0B8Protocolss14_IndexableBaseRzlWa, 
                       __T0s16IndexingIteratorVyxGs8Sequencess14_IndexableBaseRzl03SubC0Wt, 
                       __T0s16IndexingIteratorVyxGs8Sequencess14_IndexableBaseRzl0B0Wt, 
                       __T0s16IndexingIteratorVyxGs8Sequencess14_IndexableBaseRzl0B0s0B8ProtocolPWT, 
                       __T0s16IndexingIteratorVyxGs8Sequencess14_IndexableBaseRzl7ElementWt, 
                       __T0s16IndexingIteratorVyxGs8Sequencess14_IndexableBaseRzlMA, 
                       __T0s16IndexingIteratorVyxGs8Sequencess14_IndexableBaseRzlWG, 
                       __T0s16IndexingIteratorVyxGs8Sequencess14_IndexableBaseRzlWP, 
                       __T0s16IndexingIteratorVyxGs8Sequencess14_IndexableBaseRzlWa, 
                       __T0s16IndexingIteratorVyxGs8Sequencess14_IndexableBaseRzlsADP4drop03SubC0QzSb7ElementQzKc5while_tKFTWTm, 
                       __T0s16IndexingIteratorVyxGs8Sequencess14_IndexableBaseRzlsADP9dropFirst03SubC0QzSiFTWTm, 
                       __T0s16IteratorProtocolMp, __T0s16IteratorProtocol_pMF, 
                       __T0s16IteratorSequenceV4next7ElementQzSgyF, __T0s16IteratorSequenceVAByxGxcfC, 
                       __T0s16IteratorSequenceVMF, __T0s16IteratorSequenceVMP, 
                       __T0s16IteratorSequenceVMa, __T0s16IteratorSequenceVMn, 
                       __T0s16IteratorSequenceVyxGs0A8ProtocolssADRzl7ElementWt, 
                       __T0s16IteratorSequenceVyxGs0A8ProtocolssADRzlMA, 
                       __T0s16IteratorSequenceVyxGs0A8ProtocolssADRzlWP, 
                       __T0s16IteratorSequenceVyxGs0A8ProtocolssADRzlWa, 
                       __T0s16IteratorSequenceVyxGs0B0ss0A8ProtocolRzl03SubB0Wt, 
                       __T0s16IteratorSequenceVyxGs0B0ss0A8ProtocolRzl0A0Wt, 
                       __T0s16IteratorSequenceVyxGs0B0ss0A8ProtocolRzl0A0sAEPWT, 
                       __T0s16IteratorSequenceVyxGs0B0ss0A8ProtocolRzl7ElementWt, 
                       __T0s16IteratorSequenceVyxGs0B0ss0A8ProtocolRzlMA, 
                       __T0s16IteratorSequenceVyxGs0B0ss0A8ProtocolRzlWG, 
                       __T0s16IteratorSequenceVyxGs0B0ss0A8ProtocolRzlWP, 
                       __T0s16IteratorSequenceVyxGs0B0ss0A8ProtocolRzlWa, 
                       __T0s16IteratorSequenceVyxGs0B0ss0A8ProtocolRzlsADP4drop03SubB0QzSb7ElementQzKc5while_tKFTWTm, 
                       __T0s16IteratorSequenceVyxGs0B0ss0A8ProtocolRzlsADP9dropFirst03SubB0QzSiFTWTm, 
                       __T0s16KeyPathComponentO11ArgumentRefVMF, __T0s16KeyPathComponentO11ArgumentRefVMa, 
                       __T0s16KeyPathComponentO11ArgumentRefVMf, __T0s16KeyPathComponentO11ArgumentRefVMn, 
                       __T0s16KeyPathComponentO11ArgumentRefVN, __T0s16KeyPathComponentO11ArgumentRefVWV, 
                       __T0s16KeyPathComponentO9hashValueSifg, __T0s16KeyPathComponentOMB, 
                       __T0s16KeyPathComponentOMF, __T0s16KeyPathComponentOMa, 
                       __T0s16KeyPathComponentOMf, __T0s16KeyPathComponentOMn, 
                       __T0s16KeyPathComponentON, __T0s16KeyPathComponentOWV, 
                       __T0s16KeyPathComponentOs8HashablesWP, __T0s16KeyPathComponentOs8HashablesWa, 
                       __T0s16KeyPathComponentOs8HashablessACP9hashValueSifgTW, 
                       __T0s16KeyPathComponentOs9EquatablesWP, __T0s16KeyPathComponentOs9EquatablesWa, 
                       __T0s16KeyPathComponentOs9EquatablessACP2eeoiSbx_xtFZTW, 
                       __T0s16LazyMapGeneratorVMF, __T0s16LazyMapGeneratorVMP, 
                       __T0s16LazyMapGeneratorVMa, __T0s16LazyMapGeneratorVMn, 
                       __T0s16LazyMapGeneratorVWV, __T0s16ObjectIdentifierV16debugDescriptionSSfg, 
                       __T0s16ObjectIdentifierV1loiSbAB_ABtFZ, __T0s16ObjectIdentifierV2eeoiSbAB_ABtFZ, 
                       __T0s16ObjectIdentifierV9hashValueSifg, __T0s16ObjectIdentifierV9uintValueSufg, 
                       __T0s16ObjectIdentifierVAByXlcfC, __T0s16ObjectIdentifierVABypXpcfC, 
                       __T0s16ObjectIdentifierVMF, __T0s16ObjectIdentifierVMa, 
                       __T0s16ObjectIdentifierVMf, __T0s16ObjectIdentifierVMn, 
                       __T0s16ObjectIdentifierVN, __T0s16ObjectIdentifierVWV, 
                       __T0s16ObjectIdentifierVs10ComparablesWP, __T0s16ObjectIdentifierVs10ComparablesWa, 
                       __T0s16ObjectIdentifierVs28CustomDebugStringConvertiblesWP, 
                       __T0s16ObjectIdentifierVs28CustomDebugStringConvertiblesWa, 
                       __T0s16ObjectIdentifierVs8HashablesWP, __T0s16ObjectIdentifierVs8HashablesWa, 
                       __T0s16ObjectIdentifierVs9EquatablesWP, __T0s16ObjectIdentifierVs9EquatablesWa, 
                       __T0s16PartialRangeFromV8containsSbxF, __T0s16PartialRangeFromV8relatives0B0VyxGqd__2to_t5IndexQyd__Rszs10_IndexableRd__lF, 
                       __T0s16PartialRangeFromVAByxGxcfC, __T0s16PartialRangeFromVMF, 
                       __T0s16PartialRangeFromVMP, __T0s16PartialRangeFromVMa, 
                       __T0s16PartialRangeFromVMn, __T0s16PartialRangeFromVyxGs0B10Expressionss10ComparableRzl5BoundWt, 
                       __T0s16PartialRangeFromVyxGs0B10Expressionss10ComparableRzl5BoundsAEPWT, 
                       __T0s16PartialRangeFromVyxGs0B10Expressionss10ComparableRzlMA, 
                       __T0s16PartialRangeFromVyxGs0B10Expressionss10ComparableRzlWP, 
                       __T0s16PartialRangeFromVyxGs0B10Expressionss10ComparableRzlWa, 
                       __T0s16PartialRangeUpToV8containsSbxF, __T0s16PartialRangeUpToV8relatives0B0VyxGqd__2to_t5IndexQyd__Rszs10_IndexableRd__lF, 
                       __T0s16PartialRangeUpToVAByxGxcfC, __T0s16PartialRangeUpToVMF, 
                       __T0s16PartialRangeUpToVMP, __T0s16PartialRangeUpToVMa, 
                       __T0s16PartialRangeUpToVMn, __T0s16PartialRangeUpToVyxGs0B10Expressionss10ComparableRzl5BoundWt, 
                       __T0s16PartialRangeUpToVyxGs0B10Expressionss10ComparableRzl5BoundsAEPWT, 
                       __T0s16PartialRangeUpToVyxGs0B10Expressionss10ComparableRzlMA, 
                       __T0s16PartialRangeUpToVyxGs0B10Expressionss10ComparableRzlWP, 
                       __T0s16PartialRangeUpToVyxGs0B10Expressionss10ComparableRzlWa, 
                       __T0s16PartialRangeUpToVyxGs0B10Expressionss10ComparableRzlsADP8containsSb5BoundQzFTWTm, 
                       __T0s16PartialRangeUpToVyxGs0B10Expressionss10ComparableRzlsADP8relatives0B0Vy5BoundQzGqd__2to_ts10_IndexableRd__5IndexQyd__AKRSlFTWTm, 
                       __T0s16RawRepresentableMp, __T0s16RawRepresentablePss9DecodableRzsAARzSS0A5ValueABRtzlExs7Decoder_p4from_tKcfC, 
                       __T0s16RawRepresentablePss9DecodableRzsAARzSb0A5ValueABRtzlExs7Decoder_p4from_tKcfC, 
                       __T0s16RawRepresentablePss9DecodableRzsAARzSd0A5ValueABRtzlExs7Decoder_p4from_tKcfC, 
                       __T0s16RawRepresentablePss9DecodableRzsAARzSf0A5ValueABRtzlExs7Decoder_p4from_tKcfC, 
                       __T0s16RawRepresentablePss9DecodableRzsAARzSi0A5ValueABRtzlExs7Decoder_p4from_tKcfC, 
                       __T0s16RawRepresentablePss9DecodableRzsAARzSu0A5ValueABRtzlExs7Decoder_p4from_tKcfC, 
                       __T0s16RawRepresentablePss9DecodableRzsAARzs4Int8V0A5ValueABRtzlExs7Decoder_p4from_tKcfC, 
                       __T0s16RawRepresentablePss9DecodableRzsAARzs5Int16V0A5ValueABRtzlExs7Decoder_p4from_tKcfC, 
                       __T0s16RawRepresentablePss9DecodableRzsAARzs5Int32V0A5ValueABRtzlExs7Decoder_p4from_tKcfC, 
                       __T0s16RawRepresentablePss9DecodableRzsAARzs5Int64V0A5ValueABRtzlExs7Decoder_p4from_tKcfC, 
                       __T0s16RawRepresentablePss9DecodableRzsAARzs5UInt8V0A5ValueABRtzlExs7Decoder_p4from_tKcfC, 
                       __T0s16RawRepresentablePss9DecodableRzsAARzs6UInt16V0A5ValueABRtzlExs7Decoder_p4from_tKcfC, 
                       __T0s16RawRepresentablePss9DecodableRzsAARzs6UInt32V0A5ValueABRtzlExs7Decoder_p4from_tKcfC, 
                       __T0s16RawRepresentablePss9DecodableRzsAARzs6UInt64V0A5ValueABRtzlExs7Decoder_p4from_tKcfC, 
                       __T0s16RawRepresentablePss9EncodableRzsAARzSS0A5ValueABRtzlE6encodeys7Encoder_p2to_tKF, 
                       __T0s16RawRepresentablePss9EncodableRzsAARzSb0A5ValueABRtzlE6encodeys7Encoder_p2to_tKF, 
                       __T0s16RawRepresentablePss9EncodableRzsAARzSd0A5ValueABRtzlE6encodeys7Encoder_p2to_tKF, 
                       __T0s16RawRepresentablePss9EncodableRzsAARzSf0A5ValueABRtzlE6encodeys7Encoder_p2to_tKF, 
                       __T0s16RawRepresentablePss9EncodableRzsAARzSi0A5ValueABRtzlE6encodeys7Encoder_p2to_tKF, 
                       __T0s16RawRepresentablePss9EncodableRzsAARzSu0A5ValueABRtzlE6encodeys7Encoder_p2to_tKF, 
                       __T0s16RawRepresentablePss9EncodableRzsAARzs4Int8V0A5ValueABRtzlE6encodeys7Encoder_p2to_tKF, 
                       __T0s16RawRepresentablePss9EncodableRzsAARzs5Int16V0A5ValueABRtzlE6encodeys7Encoder_p2to_tKF, 
                       __T0s16RawRepresentablePss9EncodableRzsAARzs5Int32V0A5ValueABRtzlE6encodeys7Encoder_p2to_tKF, 
                       __T0s16RawRepresentablePss9EncodableRzsAARzs5Int64V0A5ValueABRtzlE6encodeys7Encoder_p2to_tKF, 
                       __T0s16RawRepresentablePss9EncodableRzsAARzs5UInt8V0A5ValueABRtzlE6encodeys7Encoder_p2to_tKF, 
                       __T0s16RawRepresentablePss9EncodableRzsAARzs6UInt16V0A5ValueABRtzlE6encodeys7Encoder_p2to_tKF, 
                       __T0s16RawRepresentablePss9EncodableRzsAARzs6UInt32V0A5ValueABRtzlE6encodeys7Encoder_p2to_tKF, 
                       __T0s16RawRepresentablePss9EncodableRzsAARzs6UInt64V0A5ValueABRtzlE6encodeys7Encoder_p2to_tKF, 
                       __T0s16RawRepresentable_pMF, __T0s16StrideToIteratorV4nextxSgyF, 
                       __T0s16StrideToIteratorVAByxGx6_start_x3end0A0Qz6stridetcfC, 
                       __T0s16StrideToIteratorVMF, __T0s16StrideToIteratorVMP, 
                       __T0s16StrideToIteratorVMa, __T0s16StrideToIteratorVMn, 
                       __T0s16StrideToIteratorVyxGs0C8Protocolss10StrideableRzl7ElementWt, 
                       __T0s16StrideToIteratorVyxGs0C8Protocolss10StrideableRzlMA, 
                       __T0s16StrideToIteratorVyxGs0C8Protocolss10StrideableRzlWP, 
                       __T0s16StrideToIteratorVyxGs0C8Protocolss10StrideableRzlWa, 
                       __T0s16TextOutputStreamMp, __T0s16TextOutputStreamPsE5_lockyyF, 
                       __T0s16TextOutputStreamPsE7_unlockyyF, __T0s16TextOutputStream_pMF, 
                       __T0s16_DebuggerSupportO16CollectionStatusOMF, __T0s16_DebuggerSupportO16CollectionStatusOMa, 
                       __T0s16_DebuggerSupportO16CollectionStatusOMf, __T0s16_DebuggerSupportO16CollectionStatusOMn, 
                       __T0s16_DebuggerSupportO16CollectionStatusON, __T0s16_DebuggerSupportO16CollectionStatusOWV, 
                       __T0s16_DebuggerSupportO16CollectionStatusOs8HashablesWP, 
                       __T0s16_DebuggerSupportO16CollectionStatusOs8HashablesWa, 
                       __T0s16_DebuggerSupportO16CollectionStatusOs8HashablessAEP9hashValueSifgTW, 
                       __T0s16_DebuggerSupportO16CollectionStatusOs9EquatablesWP, 
                       __T0s16_DebuggerSupportO16CollectionStatusOs9EquatablesWa, 
                       __T0s16_DebuggerSupportO16CollectionStatusOs9EquatablessAEP2eeoiSbx_xtFZTW, 
                       __T0s16_DebuggerSupportO20stringForPrintObjectSSypFZ, 
                       __T0s16_DebuggerSupportOMF, __T0s16_DebuggerSupportOMa, 
                       __T0s16_DebuggerSupportOMf, __T0s16_DebuggerSupportOMn, 
                       __T0s16_DebuggerSupportON, __T0s16_DebuggerSupportOWV, 
                       __T0s16_DependenceTokenVABycfC, __T0s16_DependenceTokenVMF, 
                       __T0s16_DependenceTokenVMa, __T0s16_DependenceTokenVMf, 
                       __T0s16_DependenceTokenVMn, __T0s16_DependenceTokenVN, 
                       __T0s16_DependenceTokenVWV, __T0s16_GenericIndexKeyVMF, 
                       __T0s16_GenericIndexKeyVMa, __T0s16_GenericIndexKeyVMf, 
                       __T0s16_GenericIndexKeyVMn, __T0s16_GenericIndexKeyVN, 
                       __T0s16_GenericIndexKeyVWV, __T0s16_GenericIndexKeyVs06CodingC0sWP, 
                       __T0s16_GenericIndexKeyVs06CodingC0sWa, __T0s16_GenericIndexKeyVs06CodingC0ssACP11stringValueSSfgTW, 
                       __T0s16_GenericIndexKeyVs06CodingC0ssACP8intValueSiSgfgTW, 
                       __T0s16_GenericIndexKeyVs06CodingC0ssACPxSgSS11stringValue_tcfCTW, 
                       __T0s16_GenericIndexKeyVs06CodingC0ssACPxSgSi8intValue_tcfCTW, 
                       __T0s16_GenericIndexKeyVs06CodingC0ssACPxSgSi8intValue_tcfCTWTm, 
                       __T0s16_GenericIndexKeyVwCpTm, __T0s16_MagicMirrorDataV10_loadValuexxm6ofType_tlF, 
                       __T0s16_MagicMirrorDataVMF, __T0s16_MagicMirrorDataVMa, 
                       __T0s16_MagicMirrorDataVMf, __T0s16_MagicMirrorDataVMn, 
                       __T0s16_MagicMirrorDataVN, __T0s16_MagicMirrorDataVWV, 
                       __T0s16_NativeSetBufferV10startIndexs01_abE0VyxGfg, 
                       __T0s16_NativeSetBufferV12assertingGetxs01_aB5IndexVyxGF, 
                       __T0s16_NativeSetBufferV18isInitializedEntrySbSi2at_tF, 
                       __T0s16_NativeSetBufferV3keyxSi2at_tF, __T0s16_NativeSetBufferV4keysSpyxGfg, 
                       __T0s16_NativeSetBufferV5countSifg, __T0s16_NativeSetBufferV5countSifs, 
                       __T0s16_NativeSetBufferV5indexs01_aB5IndexVyxGAF5after_tF, 
                       __T0s16_NativeSetBufferV8capacitySifg, __T0s16_NativeSetBufferV8endIndexs01_abE0VyxGfg, 
                       __T0s16_NativeSetBufferV9formIndexys01_abE0VyxGz5after_tF, 
                       __T0s16_NativeSetBufferVMF, __T0s16_NativeSetBufferVMP, 
                       __T0s16_NativeSetBufferVMa, __T0s16_NativeSetBufferVMn, 
                       __T0s16_NativeSetBufferVWV, __T0s16_NativeSetBufferVss8HashableRzlE12assertingGetxxF, 
                       __T0s16_NativeSetBufferVss8HashableRzlE5_finds01_aB5IndexVyxG3pos_Sb5foundtx_Si11startBuckettF, 
                       __T0s16_NativeSetBufferVss8HashableRzlE5indexs01_aB5IndexVyxGSgx6forKey_tF, 
                       __T0s16_NativeSetBufferVss8HashableRzlE6_indexS2i5after_tF, 
                       __T0s16_NativeSetBufferVss8HashableRzlE7_bucketSixF, 
                       __T0s16_NativeSetBufferVss8HashableRzlE7bridgeds6_NSSet_pyF, 
                       __T0s16_NativeSetBufferVss8HashableRzlE8maybeGetxSgxF, 
                       __T0s16_NativeSetBufferVss8HashableRzlE9fromArrayAByxGSayxGFZ, 
                       __T0s16_ObjCSuperMirrorV11dispositions01_C11DispositionOfg, 
                       __T0s16_ObjCSuperMirrorV15quickLookObjects015PlaygroundQuickE0OSgfg, 
                       __T0s16_ObjCSuperMirrorV16objectIdentifiers06ObjectE0VSgfg, 
                       __T0s16_ObjCSuperMirrorV5countSifg, __T0s16_ObjCSuperMirrorV5valueypfg, 
                       __T0s16_ObjCSuperMirrorV7summarySSfg, __T0s16_ObjCSuperMirrorV9subscriptSS_s01_C0_ptSicfg, 
                       __T0s16_ObjCSuperMirrorV9valueTypeypXpfg, __T0s16_ObjCSuperMirrorVMF, 
                       __T0s16_ObjCSuperMirrorVMa, __T0s16_ObjCSuperMirrorVMf, 
                       __T0s16_ObjCSuperMirrorVMn, __T0s16_ObjCSuperMirrorVN, 
                       __T0s16_ObjCSuperMirrorVWV, __T0s16_ObjCSuperMirrorVs01_C0sWP, 
                       __T0s16_ObjCSuperMirrorVs01_C0sWa, __T0s16_PointerFunctionMp, 
                       __T0s16_PointerFunction_pMF, __T0s16_SequenceWrapperMp, 
                       __T0s16_SequenceWrapperPsE18_preprocessingPassqd__Sgqd__yKcKlF, 
                       __T0s16_SequenceWrapperPsE19underestimatedCountSifg, 
                       __T0s16_SequenceWrapperPssAARz4Base_03SubA0QZADRtzlE6prefixAFSiF, 
                       __T0s16_SequenceWrapperPssAARz4Base_03SubA0QZADRtzlE6suffixAFSiF, 
                       __T0s16_SequenceWrapperPssAARz4Base_03SubA0QZADRtzlE8dropLastAFSiF, 
                       __T0s16_SequenceWrapperPssAARz4Base_03SubA0QZADRtzlE9dropFirstAFSiF, 
                       __T0s16_SequenceWrapperPssAARz4Base_7ElementQZADRtzAC_03SubA0QZAGRtzlE4dropAISbAFKc5while_tKF, 
                       __T0s16_SequenceWrapperPssAARz4Base_7ElementQZADRtzAC_03SubA0QZAGRtzlE5splitSayAIGSi9maxSplits_Sb25omittingEmptySubsequencesSbAFKc14whereSeparatortKF, 
                       __T0s16_SequenceWrapperPssAARz4Base_7ElementQZADRtzAC_03SubA0QZAGRtzlE6prefixAISbAFKc5while_tKF, 
                       __T0s16_SequenceWrapperPssAARz4Base_7ElementQZADRtzAC_03SubA0QZAGRtzlE6suffixAISiF, 
                       __T0s16_SequenceWrapperPssAARz4Base_7ElementQZADRtzlE024_customContainsEquatableD0SbSgAFF, 
                       __T0s16_SequenceWrapperPssAARz4Base_7ElementQZADRtzlE22_copyToContiguousArrays0gH0VyAFGyF, 
                       __T0s16_SequenceWrapperPssAARz4Base_7ElementQZADRtzlE3mapSayqd__Gqd__AFKcKlF, 
                       __T0s16_SequenceWrapperPssAARz4Base_7ElementQZADRtzlE6filterSayAFGSbAFKcKF, 
                       __T0s16_SequenceWrapperPssAARz4Base_7ElementQZADRtzlE7forEachyyAFKcKF, 
                       __T0s16_SequenceWrapperPssAARz4Base_8IteratorQZADRtzlE04makeD0AFyF, 
                       __T0s16_SequenceWrapperPssAARz4Base_8IteratorQZADRtzlE13_copyContentsAF_SitSry7ElementQzG12initializing_tF, 
                       __T0s16_SequenceWrapper_pMF, __T0s16_SwiftStringViewMp, 
                       __T0s16_SwiftStringView_pMF, __T0s16_UnicodeEncodingMp, 
                       __T0s16_UnicodeEncoding_pMF, __T0s16_ValidUTF8BufferV03_isA0SbAB5IndexVyx_GF, 
                       __T0s16_ValidUTF8BufferV10startIndexAB0E0Vyx_Gfg, 
                       __T0s16_ValidUTF8BufferV11removeFirstyyF, __T0s16_ValidUTF8BufferV12makeIteratorAB0E0Vyx_GyF, 
                       __T0s16_ValidUTF8BufferV15replaceSubrangeys5RangeVyAB5IndexVyx_GG_qd__4withts10CollectionRd__s5UInt8V7ElementRtd__lF, 
                       __T0s16_ValidUTF8BufferV27encodedReplacementCharacterAByxGfgZ, 
                       __T0s16_ValidUTF8BufferV5IndexV1loiSbADyx_G_AFtFZ, 
                       __T0s16_ValidUTF8BufferV5IndexV2eeoiSbADyx_G_AFtFZ, 
                       __T0s16_ValidUTF8BufferV5IndexVADyx_Gx11_biasedBits_tcfC, 
                       __T0s16_ValidUTF8BufferV5IndexVMF, __T0s16_ValidUTF8BufferV5IndexVMP, 
                       __T0s16_ValidUTF8BufferV5IndexVMa, __T0s16_ValidUTF8BufferV5IndexVMn, 
                       __T0s16_ValidUTF8BufferV5IndexVyx_Gs10Comparabless17FixedWidthIntegerRzs08UnsignedH0RzlWP, 
                       __T0s16_ValidUTF8BufferV5IndexVyx_Gs10Comparabless17FixedWidthIntegerRzs08UnsignedH0RzlWa, 
                       __T0s16_ValidUTF8BufferV5IndexVyx_Gs9Equatabless17FixedWidthIntegerRzs08UnsignedH0RzlWP, 
                       __T0s16_ValidUTF8BufferV5IndexVyx_Gs9Equatabless17FixedWidthIntegerRzs08UnsignedH0RzlWa, 
                       __T0s16_ValidUTF8BufferV5countSifg, __T0s16_ValidUTF8BufferV5indexAB5IndexVyx_GAF5after_tF, 
                       __T0s16_ValidUTF8BufferV5indexAB5IndexVyx_GAF6before_tF, 
                       __T0s16_ValidUTF8BufferV5indexAB5IndexVyx_GAF_Si8offsetBytF, 
                       __T0s16_ValidUTF8BufferV6appendyAByqd__G10contentsOf_ts17FixedWidthIntegerRd__s08UnsignedI0Rd__lF, 
                       __T0s16_ValidUTF8BufferV6appendys5UInt8VF, __T0s16_ValidUTF8BufferV8IteratorV4nexts5UInt8VSgyF, 
                       __T0s16_ValidUTF8BufferV8IteratorVADyx_GAByxGcfC, 
                       __T0s16_ValidUTF8BufferV8IteratorVMF, __T0s16_ValidUTF8BufferV8IteratorVMP, 
                       __T0s16_ValidUTF8BufferV8IteratorVMa, __T0s16_ValidUTF8BufferV8IteratorVMn, 
                       __T0s16_ValidUTF8BufferV8IteratorVyx_Gs0D8Protocolss17FixedWidthIntegerRzs08UnsignedH0RzlMA, 
                       __T0s16_ValidUTF8BufferV8IteratorVyx_Gs0D8Protocolss17FixedWidthIntegerRzs08UnsignedH0RzlWP, 
                       __T0s16_ValidUTF8BufferV8IteratorVyx_Gs0D8Protocolss17FixedWidthIntegerRzs08UnsignedH0RzlWa, 
                       __T0s16_ValidUTF8BufferV8IteratorVyx_Gs8Sequencess17FixedWidthIntegerRzs08UnsignedH0RzlACWt, 
                       __T0s16_ValidUTF8BufferV8IteratorVyx_Gs8Sequencess17FixedWidthIntegerRzs08UnsignedH0RzlACs0D8ProtocolPWT, 
                       __T0s16_ValidUTF8BufferV8IteratorVyx_Gs8Sequencess17FixedWidthIntegerRzs08UnsignedH0RzlMA, 
                       __T0s16_ValidUTF8BufferV8IteratorVyx_Gs8Sequencess17FixedWidthIntegerRzs08UnsignedH0RzlWG, 
                       __T0s16_ValidUTF8BufferV8IteratorVyx_Gs8Sequencess17FixedWidthIntegerRzs08UnsignedH0RzlWP, 
                       __T0s16_ValidUTF8BufferV8IteratorVyx_Gs8Sequencess17FixedWidthIntegerRzs08UnsignedH0RzlWa, 
                       __T0s16_ValidUTF8BufferV8IteratorVyx_Gs8Sequencess17FixedWidthIntegerRzs08UnsignedH0RzlsAFP4drop03SubE0QzSb7ElementQzKc5while_tKFTWTm, 
                       __T0s16_ValidUTF8BufferV8IteratorVyx_Gs8Sequencess17FixedWidthIntegerRzs08UnsignedH0RzlsAFP9dropFirst03SubE0QzSiFTWTm, 
                       __T0s16_ValidUTF8BufferV8capacitySifg, __T0s16_ValidUTF8BufferV8capacitySifgZ, 
                       __T0s16_ValidUTF8BufferV8distanceSiAB5IndexVyx_G4from_AF2totF, 
                       __T0s16_ValidUTF8BufferV8endIndexAB0E0Vyx_Gfg, __T0s16_ValidUTF8BufferV9subscripts5UInt8VAB5IndexVyx_Gcfg, 
                       __T0s16_ValidUTF8BufferVAByxGs5UInt8V11_containing_tcfC, 
                       __T0s16_ValidUTF8BufferVAByxGx11_biasedBits_tcfC, 
                       __T0s16_ValidUTF8BufferVAByxGycfC, __T0s16_ValidUTF8BufferVMF, 
                       __T0s16_ValidUTF8BufferVMP, __T0s16_ValidUTF8BufferVMa, 
                       __T0s16_ValidUTF8BufferVMn, __T0s16_ValidUTF8BufferVyxGs10Collectionss17FixedWidthIntegerRzs08UnsignedG0Rzl11SubSequenceWt, 
                       __T0s16_ValidUTF8BufferVyxGs10Collectionss17FixedWidthIntegerRzs08UnsignedG0Rzl11SubSequences0J0PWT, 
                       __T0s16_ValidUTF8BufferVyxGs10Collectionss17FixedWidthIntegerRzs08UnsignedG0Rzl11SubSequences14_IndexableBasePWT, 
                       __T0s16_ValidUTF8BufferVyxGs10Collectionss17FixedWidthIntegerRzs08UnsignedG0Rzl7IndicesWt, 
                       __T0s16_ValidUTF8BufferVyxGs10Collectionss17FixedWidthIntegerRzs08UnsignedG0Rzl7Indicess10_IndexablePWT, 
                       __T0s16_ValidUTF8BufferVyxGs10Collectionss17FixedWidthIntegerRzs08UnsignedG0Rzl7Indicess8SequencePWT, 
                       __T0s16_ValidUTF8BufferVyxGs10Collectionss17FixedWidthIntegerRzs08UnsignedG0Rzl8IteratorWt, 
                       __T0s16_ValidUTF8BufferVyxGs10Collectionss17FixedWidthIntegerRzs08UnsignedG0RzlMA, 
                       __T0s16_ValidUTF8BufferVyxGs10Collectionss17FixedWidthIntegerRzs08UnsignedG0RzlWG, 
                       __T0s16_ValidUTF8BufferVyxGs10Collectionss17FixedWidthIntegerRzs08UnsignedG0RzlWI, 
                       __T0s16_ValidUTF8BufferVyxGs10Collectionss17FixedWidthIntegerRzs08UnsignedG0RzlWP, 
                       __T0s16_ValidUTF8BufferVyxGs10Collectionss17FixedWidthIntegerRzs08UnsignedG0RzlWa, 
                       __T0s16_ValidUTF8BufferVyxGs10_Indexabless17FixedWidthIntegerRzs08UnsignedG0RzlMA, 
                       __T0s16_ValidUTF8BufferVyxGs10_Indexabless17FixedWidthIntegerRzs08UnsignedG0RzlWG, 
                       __T0s16_ValidUTF8BufferVyxGs10_Indexabless17FixedWidthIntegerRzs08UnsignedG0RzlWI, 
                       __T0s16_ValidUTF8BufferVyxGs10_Indexabless17FixedWidthIntegerRzs08UnsignedG0RzlWP, 
                       __T0s16_ValidUTF8BufferVyxGs10_Indexabless17FixedWidthIntegerRzs08UnsignedG0RzlWa, 
                       __T0s16_ValidUTF8BufferVyxGs14_IndexableBasess17FixedWidthIntegerRzs08UnsignedH0Rzl11SubSequenceWt, 
                       __T0s16_ValidUTF8BufferVyxGs14_IndexableBasess17FixedWidthIntegerRzs08UnsignedH0Rzl5IndexWt, 
                       __T0s16_ValidUTF8BufferVyxGs14_IndexableBasess17FixedWidthIntegerRzs08UnsignedH0Rzl5Indexs10ComparablePWT, 
                       __T0s16_ValidUTF8BufferVyxGs14_IndexableBasess17FixedWidthIntegerRzs08UnsignedH0RzlMA, 
                       __T0s16_ValidUTF8BufferVyxGs14_IndexableBasess17FixedWidthIntegerRzs08UnsignedH0RzlWG, 
                       __T0s16_ValidUTF8BufferVyxGs14_IndexableBasess17FixedWidthIntegerRzs08UnsignedH0RzlWP, 
                       __T0s16_ValidUTF8BufferVyxGs14_IndexableBasess17FixedWidthIntegerRzs08UnsignedH0RzlWa, 
                       __T0s16_ValidUTF8BufferVyxGs22RandomAccessCollectionss17FixedWidthIntegerRzs08UnsignedI0Rzl11SubSequenceWt, 
                       __T0s16_ValidUTF8BufferVyxGs22RandomAccessCollectionss17FixedWidthIntegerRzs08UnsignedI0Rzl11SubSequences013BidirectionalF0PWT, 
                       __T0s16_ValidUTF8BufferVyxGs22RandomAccessCollectionss17FixedWidthIntegerRzs08UnsignedI0Rzl11SubSequences01_dE9IndexablePWT, 
                       __T0s16_ValidUTF8BufferVyxGs22RandomAccessCollectionss17FixedWidthIntegerRzs08UnsignedI0Rzl7IndicesWt, 
                       __T0s16_ValidUTF8BufferVyxGs22RandomAccessCollectionss17FixedWidthIntegerRzs08UnsignedI0Rzl7Indicess013BidirectionalF0PWT, 
                       __T0s16_ValidUTF8BufferVyxGs22RandomAccessCollectionss17FixedWidthIntegerRzs08UnsignedI0Rzl7Indicess01_dE9IndexablePWT, 
                       __T0s16_ValidUTF8BufferVyxGs22RandomAccessCollectionss17FixedWidthIntegerRzs08UnsignedI0RzlMA, 
                       __T0s16_ValidUTF8BufferVyxGs22RandomAccessCollectionss17FixedWidthIntegerRzs08UnsignedI0RzlWG, 
                       __T0s16_ValidUTF8BufferVyxGs22RandomAccessCollectionss17FixedWidthIntegerRzs08UnsignedI0RzlWI, 
                       __T0s16_ValidUTF8BufferVyxGs22RandomAccessCollectionss17FixedWidthIntegerRzs08UnsignedI0RzlWP, 
                       __T0s16_ValidUTF8BufferVyxGs22RandomAccessCollectionss17FixedWidthIntegerRzs08UnsignedI0RzlWa, 
                       __T0s16_ValidUTF8BufferVyxGs22_RandomAccessIndexabless17FixedWidthIntegerRzs08UnsignedI0RzlWG, 
                       __T0s16_ValidUTF8BufferVyxGs22_RandomAccessIndexabless17FixedWidthIntegerRzs08UnsignedI0RzlWI, 
                       __T0s16_ValidUTF8BufferVyxGs22_RandomAccessIndexabless17FixedWidthIntegerRzs08UnsignedI0RzlWP, 
                       __T0s16_ValidUTF8BufferVyxGs22_RandomAccessIndexabless17FixedWidthIntegerRzs08UnsignedI0RzlWa, 
                       __T0s16_ValidUTF8BufferVyxGs23BidirectionalCollectionss17FixedWidthIntegerRzs08UnsignedH0Rzl11SubSequenceWt, 
                       __T0s16_ValidUTF8BufferVyxGs23BidirectionalCollectionss17FixedWidthIntegerRzs08UnsignedH0Rzl11SubSequences01_D9IndexablePWT, 
                       __T0s16_ValidUTF8BufferVyxGs23BidirectionalCollectionss17FixedWidthIntegerRzs08UnsignedH0Rzl11SubSequences0E0PWT, 
                       __T0s16_ValidUTF8BufferVyxGs23BidirectionalCollectionss17FixedWidthIntegerRzs08UnsignedH0Rzl7IndicesWt, 
                       __T0s16_ValidUTF8BufferVyxGs23BidirectionalCollectionss17FixedWidthIntegerRzs08UnsignedH0Rzl7Indicess01_D9IndexablePWT, 
                       __T0s16_ValidUTF8BufferVyxGs23BidirectionalCollectionss17FixedWidthIntegerRzs08UnsignedH0Rzl7Indicess0E0PWT, 
                       __T0s16_ValidUTF8BufferVyxGs23BidirectionalCollectionss17FixedWidthIntegerRzs08UnsignedH0RzlMA, 
                       __T0s16_ValidUTF8BufferVyxGs23BidirectionalCollectionss17FixedWidthIntegerRzs08UnsignedH0RzlWG, 
                       __T0s16_ValidUTF8BufferVyxGs23BidirectionalCollectionss17FixedWidthIntegerRzs08UnsignedH0RzlWI, 
                       __T0s16_ValidUTF8BufferVyxGs23BidirectionalCollectionss17FixedWidthIntegerRzs08UnsignedH0RzlWP, 
                       __T0s16_ValidUTF8BufferVyxGs23BidirectionalCollectionss17FixedWidthIntegerRzs08UnsignedH0RzlWa, 
                       __T0s16_ValidUTF8BufferVyxGs23_BidirectionalIndexabless17FixedWidthIntegerRzs08UnsignedH0RzlWG, 
                       __T0s16_ValidUTF8BufferVyxGs23_BidirectionalIndexabless17FixedWidthIntegerRzs08UnsignedH0RzlWI, 
                       __T0s16_ValidUTF8BufferVyxGs23_BidirectionalIndexabless17FixedWidthIntegerRzs08UnsignedH0RzlWP, 
                       __T0s16_ValidUTF8BufferVyxGs23_BidirectionalIndexabless17FixedWidthIntegerRzs08UnsignedH0RzlWa, 
                       __T0s16_ValidUTF8BufferVyxGs26RangeReplaceableCollectionss17FixedWidthIntegerRzs08UnsignedI0Rzl11SubSequenceWt, 
                       __T0s16_ValidUTF8BufferVyxGs26RangeReplaceableCollectionss17FixedWidthIntegerRzs08UnsignedI0Rzl11SubSequences01_dE9IndexablePWT, 
                       __T0s16_ValidUTF8BufferVyxGs26RangeReplaceableCollectionss17FixedWidthIntegerRzs08UnsignedI0RzlMA, 
                       __T0s16_ValidUTF8BufferVyxGs26RangeReplaceableCollectionss17FixedWidthIntegerRzs08UnsignedI0RzlWG, 
                       __T0s16_ValidUTF8BufferVyxGs26RangeReplaceableCollectionss17FixedWidthIntegerRzs08UnsignedI0RzlWI, 
                       __T0s16_ValidUTF8BufferVyxGs26RangeReplaceableCollectionss17FixedWidthIntegerRzs08UnsignedI0RzlWP, 
                       __T0s16_ValidUTF8BufferVyxGs26RangeReplaceableCollectionss17FixedWidthIntegerRzs08UnsignedI0RzlWa, 
                       __T0s16_ValidUTF8BufferVyxGs26_RangeReplaceableIndexabless17FixedWidthIntegerRzs08UnsignedI0RzlWG, 
                       __T0s16_ValidUTF8BufferVyxGs26_RangeReplaceableIndexabless17FixedWidthIntegerRzs08UnsignedI0RzlWI, 
                       __T0s16_ValidUTF8BufferVyxGs26_RangeReplaceableIndexabless17FixedWidthIntegerRzs08UnsignedI0RzlWP, 
                       __T0s16_ValidUTF8BufferVyxGs26_RangeReplaceableIndexabless17FixedWidthIntegerRzs08UnsignedI0RzlWa, 
                       __T0s16_ValidUTF8BufferVyxGs8Sequencess17FixedWidthIntegerRzs08UnsignedG0Rzl03SubD0Wt, 
                       __T0s16_ValidUTF8BufferVyxGs8Sequencess17FixedWidthIntegerRzs08UnsignedG0Rzl8IteratorWt, 
                       __T0s16_ValidUTF8BufferVyxGs8Sequencess17FixedWidthIntegerRzs08UnsignedG0Rzl8Iterators0I8ProtocolPWT, 
                       __T0s16_ValidUTF8BufferVyxGs8Sequencess17FixedWidthIntegerRzs08UnsignedG0RzlMA, 
                       __T0s16_ValidUTF8BufferVyxGs8Sequencess17FixedWidthIntegerRzs08UnsignedG0RzlWG, 
                       __T0s16_ValidUTF8BufferVyxGs8Sequencess17FixedWidthIntegerRzs08UnsignedG0RzlWP, 
                       __T0s16_ValidUTF8BufferVyxGs8Sequencess17FixedWidthIntegerRzs08UnsignedG0RzlWa, 
                       __T0s16_float32ToStringSSSf_Sb5debugtF, __T0s16_float64ToStringSSSd_Sb5debugtF, 
                       __T0s16assertionFailureySSyXK_s12StaticStringV4fileSu4linetF, 
                       __T0s16assertionFailureySSyXK_s12StaticStringV4fileSu4linetFfA_, 
                       __T0s17CodingUserInfoKeyV2eeoiSbAB_ABtFZ, __T0s17CodingUserInfoKeyV9hashValueSifg, 
                       __T0s17CodingUserInfoKeyVABSgSS8rawValue_tcfC, __T0s17CodingUserInfoKeyVMF, 
                       __T0s17CodingUserInfoKeyVMa, __T0s17CodingUserInfoKeyVMf, 
                       __T0s17CodingUserInfoKeyVMn, __T0s17CodingUserInfoKeyVN, 
                       __T0s17CodingUserInfoKeyVWV, __T0s17CodingUserInfoKeyVs16RawRepresentablesMA, 
                       __T0s17CodingUserInfoKeyVs16RawRepresentablesWP, 
                       __T0s17CodingUserInfoKeyVs16RawRepresentablesWa, 
                       __T0s17CodingUserInfoKeyVs8HashablesWP, __T0s17CodingUserInfoKeyVs8HashablesWa, 
                       __T0s17CodingUserInfoKeyVs9EquatablesWP, __T0s17CodingUserInfoKeyVs9EquatablesWa, 
                       __T0s17CustomReflectableMp, __T0s17CustomReflectable_pMF, 
                       __T0s17DictionaryLiteralV10startIndexSifg, __T0s17DictionaryLiteralV8endIndexSifg, 
                       __T0s17DictionaryLiteralV9subscriptx3key_q_5valuetSicfg, 
                       __T0s17DictionaryLiteralVAByxq_GSayx_q_tG010dictionaryB0d_tcfC, 
                       __T0s17DictionaryLiteralVMF, __T0s17DictionaryLiteralVMP, 
                       __T0s17DictionaryLiteralVMa, __T0s17DictionaryLiteralVMn, 
                       __T0s17DictionaryLiteralVWV, __T0s17DictionaryLiteralVyxq_Gs013ExpressibleByaB0sr0_l3KeyWt, 
                       __T0s17DictionaryLiteralVyxq_Gs013ExpressibleByaB0sr0_l5ValueWt, 
                       __T0s17DictionaryLiteralVyxq_Gs013ExpressibleByaB0sr0_lMA, 
                       __T0s17DictionaryLiteralVyxq_Gs013ExpressibleByaB0sr0_lWP, 
                       __T0s17DictionaryLiteralVyxq_Gs013ExpressibleByaB0sr0_lWa, 
                       __T0s17DictionaryLiteralVyxq_Gs10Collectionsr0_l11SubSequenceWt, 
                       __T0s17DictionaryLiteralVyxq_Gs10Collectionsr0_l11SubSequences0E0PWT, 
                       __T0s17DictionaryLiteralVyxq_Gs10Collectionsr0_l11SubSequences14_IndexableBasePWT, 
                       __T0s17DictionaryLiteralVyxq_Gs10Collectionsr0_l8IteratorWt, 
                       __T0s17DictionaryLiteralVyxq_Gs10Collectionsr0_lMA, 
                       __T0s17DictionaryLiteralVyxq_Gs10Collectionsr0_lWG, 
                       __T0s17DictionaryLiteralVyxq_Gs10Collectionsr0_lWI, 
                       __T0s17DictionaryLiteralVyxq_Gs10Collectionsr0_lWP, 
                       __T0s17DictionaryLiteralVyxq_Gs10Collectionsr0_lWa, 
                       __T0s17DictionaryLiteralVyxq_Gs10Collectionsr0_lsADP5index5IndexQzAH_0E8DistanceQz8offsetBytFTWTm, 
                       __T0s17DictionaryLiteralVyxq_Gs10Collectionsr0_lsADP6prefix11SubSequenceQz5IndexQz4upTo_tFTWTm, 
                       __T0s17DictionaryLiteralVyxq_Gs10_Indexablesr0_lMA, 
                       __T0s17DictionaryLiteralVyxq_Gs10_Indexablesr0_lWG, 
                       __T0s17DictionaryLiteralVyxq_Gs10_Indexablesr0_lWI, 
                       __T0s17DictionaryLiteralVyxq_Gs10_Indexablesr0_lWP, 
                       __T0s17DictionaryLiteralVyxq_Gs10_Indexablesr0_lWa, 
                       __T0s17DictionaryLiteralVyxq_Gs14_IndexableBasesr0_l11SubSequenceWt, 
                       __T0s17DictionaryLiteralVyxq_Gs14_IndexableBasesr0_l7ElementWt, 
                       __T0s17DictionaryLiteralVyxq_Gs14_IndexableBasesr0_lMA, 
                       __T0s17DictionaryLiteralVyxq_Gs14_IndexableBasesr0_lWG, 
                       __T0s17DictionaryLiteralVyxq_Gs14_IndexableBasesr0_lWP, 
                       __T0s17DictionaryLiteralVyxq_Gs14_IndexableBasesr0_lWa, 
                       __T0s17DictionaryLiteralVyxq_Gs14_IndexableBasesr0_lsADP5index5IndexQzAH5after_tFTWTm, 
                       __T0s17DictionaryLiteralVyxq_Gs14_IndexableBasesr0_lsADP9formIndexy0F0Qzz5after_tFTWTm, 
                       __T0s17DictionaryLiteralVyxq_Gs22RandomAccessCollectionsr0_l11SubSequenceWt, 
                       __T0s17DictionaryLiteralVyxq_Gs22RandomAccessCollectionsr0_l11SubSequences013BidirectionalE0PWT, 
                       __T0s17DictionaryLiteralVyxq_Gs22RandomAccessCollectionsr0_l11SubSequences01_cD9IndexablePWT, 
                       __T0s17DictionaryLiteralVyxq_Gs22RandomAccessCollectionsr0_lMA, 
                       __T0s17DictionaryLiteralVyxq_Gs22RandomAccessCollectionsr0_lWG, 
                       __T0s17DictionaryLiteralVyxq_Gs22RandomAccessCollectionsr0_lWI, 
                       __T0s17DictionaryLiteralVyxq_Gs22RandomAccessCollectionsr0_lWP, 
                       __T0s17DictionaryLiteralVyxq_Gs22RandomAccessCollectionsr0_lWa, 
                       __T0s17DictionaryLiteralVyxq_Gs22_RandomAccessIndexablesr0_lWG, 
                       __T0s17DictionaryLiteralVyxq_Gs22_RandomAccessIndexablesr0_lWI, 
                       __T0s17DictionaryLiteralVyxq_Gs22_RandomAccessIndexablesr0_lWP, 
                       __T0s17DictionaryLiteralVyxq_Gs22_RandomAccessIndexablesr0_lWa, 
                       __T0s17DictionaryLiteralVyxq_Gs23BidirectionalCollectionsr0_l11SubSequenceWt, 
                       __T0s17DictionaryLiteralVyxq_Gs23BidirectionalCollectionsr0_l11SubSequences01_C9IndexablePWT, 
                       __T0s17DictionaryLiteralVyxq_Gs23BidirectionalCollectionsr0_l11SubSequences0D0PWT, 
                       __T0s17DictionaryLiteralVyxq_Gs23BidirectionalCollectionsr0_lMA, 
                       __T0s17DictionaryLiteralVyxq_Gs23BidirectionalCollectionsr0_lWG, 
                       __T0s17DictionaryLiteralVyxq_Gs23BidirectionalCollectionsr0_lWI, 
                       __T0s17DictionaryLiteralVyxq_Gs23BidirectionalCollectionsr0_lWP, 
                       __T0s17DictionaryLiteralVyxq_Gs23BidirectionalCollectionsr0_lWa, 
                       __T0s17DictionaryLiteralVyxq_Gs23BidirectionalCollectionsr0_lsADP4last7ElementQzSgfgTWTm, 
                       __T0s17DictionaryLiteralVyxq_Gs23_BidirectionalIndexablesr0_lWG, 
                       __T0s17DictionaryLiteralVyxq_Gs23_BidirectionalIndexablesr0_lWI, 
                       __T0s17DictionaryLiteralVyxq_Gs23_BidirectionalIndexablesr0_lWP, 
                       __T0s17DictionaryLiteralVyxq_Gs23_BidirectionalIndexablesr0_lWa, 
                       __T0s17DictionaryLiteralVyxq_Gs8Sequencesr0_l03SubC0Wt, 
                       __T0s17DictionaryLiteralVyxq_Gs8Sequencesr0_l7ElementWt, 
                       __T0s17DictionaryLiteralVyxq_Gs8Sequencesr0_l8IteratorWt, 
                       __T0s17DictionaryLiteralVyxq_Gs8Sequencesr0_l8Iterators0D8ProtocolPWT, 
                       __T0s17DictionaryLiteralVyxq_Gs8Sequencesr0_lMA, 
                       __T0s17DictionaryLiteralVyxq_Gs8Sequencesr0_lWG, 
                       __T0s17DictionaryLiteralVyxq_Gs8Sequencesr0_lWP, 
                       __T0s17DictionaryLiteralVyxq_Gs8Sequencesr0_lWa, 
                       __T0s17DictionaryLiteralVyxq_Gs8Sequencesr0_lsADP19underestimatedCountSifgTWTm, 
                       __T0s17DictionaryLiteralVyxq_Gs8Sequencesr0_lsADP4drop03SubC0QzSb7ElementQzKc5while_tKFTWTm, 
                       __T0s17DictionaryLiteralVyxq_Gs8Sequencesr0_lsADP9dropFirst03SubC0QzSiFTWTm, 
                       __T0s17EnumerateSequenceVMF, __T0s17EnumerateSequenceVMP, 
                       __T0s17EnumerateSequenceVMa, __T0s17EnumerateSequenceVMn, 
                       __T0s17EnumerateSequenceVWV, __T0s17FixedWidthIntegerMp, 
                       __T0s17FixedWidthIntegerPsE03bitB0Sifg, __T0s17FixedWidthIntegerPsE12littleEndianxfg, 
                       __T0s17FixedWidthIntegerPsE14_fullShiftLeftxqd__sAARd__lF, 
                       __T0s17FixedWidthIntegerPsE15_fullShiftRightxqd__sAARd__lF, 
                       __T0s17FixedWidthIntegerPsE19_parseASCIISlowPathqd_0_Sgqd__z9codeUnits_qd_0_5radixts16IteratorProtocolRd__sAARd_0_s08UnsignedC07ElementRpd__r0_lFZ, 
                       __T0s17FixedWidthIntegerPsE20_nonMaskingLeftShiftxx_SitFZ, 
                       __T0s17FixedWidthIntegerPsE21_nonMaskingRightShiftxx_SitFZ, 
                       __T0s17FixedWidthIntegerPsE2ggoixx_qd__ts06BinaryC0Rd__lFZ, 
                       __T0s17FixedWidthIntegerPsE2lloixx_qd__ts06BinaryC0Rd__lFZ, 
                       __T0s17FixedWidthIntegerPsE3aggoixx_qd__ts06BinaryC0Rd__lFZ, 
                       __T0s17FixedWidthIntegerPsE3alloixx_qd__ts06BinaryC0Rd__lFZ, 
                       __T0s17FixedWidthIntegerPsE3ggeoiyxz_qd__ts06BinaryC0Rd__lFZ, 
                       __T0s17FixedWidthIntegerPsE3lleoiyxz_qd__ts06BinaryC0Rd__lFZ, 
                       __T0s17FixedWidthIntegerPsE8_lowBitsxqd__sAARd__lFZ, 
                       __T0s17FixedWidthIntegerPsE8allZerosxfgZ, __T0s17FixedWidthIntegerPsE9bigEndianxfg, 
                       __T0s17FixedWidthIntegerPsExSgSScfC, __T0s17FixedWidthIntegerPsExSgqd___Si5radixtcs14StringProtocolRd__lufC, 
                       __T0s17FixedWidthIntegerPsExSgqd___Si5radixtcs14StringProtocolRd__lufcfA0_, 
                       __T0s17FixedWidthIntegerPsExqd__18truncatingIfNeeded_tcs06BinaryC0Rd__lufC, 
                       __T0s17FixedWidthIntegerPsExqd__8clamping_tcs06BinaryC0Rd__lufC, 
                       __T0s17FixedWidthIntegerPsExx12littleEndian_tcfC, 
                       __T0s17FixedWidthIntegerPsExx9bigEndian_tcfC, __T0s17FixedWidthInteger_pMF, 
                       __T0s17FlattenCollectionV10startIndexs0abD0VyxGfg, 
                       __T0s17FlattenCollectionV12makeIterators0aD0Vy0D0QzGyF, 
                       __T0s17FlattenCollectionV18underestimateCountSiyF, 
                       __T0s17FlattenCollectionV19underestimatedCountSifg, 
                       __T0s17FlattenCollectionV22_copyToContiguousArrays0eF0Vy7Element_AFQZGyF, 
                       __T0s17FlattenCollectionV5indexs0aB5IndexVyxGAF5after_tF, 
                       __T0s17FlattenCollectionV7forEachyy7Element_ADQZKcKF, 
                       __T0s17FlattenCollectionV8endIndexs0abD0VyxGfg, 
                       __T0s17FlattenCollectionV9subscript7Element_ADQZs0aB5IndexVyxGcfg, 
                       __T0s17FlattenCollectionV9subscripts5SliceVyAByxGGs5RangeVys0aB5IndexVyxGGcfg, 
                       __T0s17FlattenCollectionVAByxGxcfC, __T0s17FlattenCollectionVAByxGxcfCTm, 
                       __T0s17FlattenCollectionVMF, __T0s17FlattenCollectionVMP, 
                       __T0s17FlattenCollectionVMa, __T0s17FlattenCollectionVMn, 
                       __T0s17FlattenCollectionVyxGs0B0ssADRzsAD7ElementRpzl11SubSequenceWt, 
                       __T0s17FlattenCollectionVyxGs0B0ssADRzsAD7ElementRpzl11SubSequences0E0PWT, 
                       __T0s17FlattenCollectionVyxGs0B0ssADRzsAD7ElementRpzl11SubSequences14_IndexableBasePWT, 
                       __T0s17FlattenCollectionVyxGs0B0ssADRzsAD7ElementRpzl13IndexDistanceWt, 
                       __T0s17FlattenCollectionVyxGs0B0ssADRzsAD7ElementRpzl7IndicesWt, 
                       __T0s17FlattenCollectionVyxGs0B0ssADRzsAD7ElementRpzl7Indicess10_IndexablePWT, 
                       __T0s17FlattenCollectionVyxGs0B0ssADRzsAD7ElementRpzl7Indicess8SequencePWT, 
                       __T0s17FlattenCollectionVyxGs0B0ssADRzsAD7ElementRpzl8IteratorWt, 
                       __T0s17FlattenCollectionVyxGs0B0ssADRzsAD7ElementRpzlMA, 
                       __T0s17FlattenCollectionVyxGs0B0ssADRzsAD7ElementRpzlWG, 
                       __T0s17FlattenCollectionVyxGs0B0ssADRzsAD7ElementRpzlWI, 
                       __T0s17FlattenCollectionVyxGs0B0ssADRzsAD7ElementRpzlWP, 
                       __T0s17FlattenCollectionVyxGs0B0ssADRzsAD7ElementRpzlWa, 
                       __T0s17FlattenCollectionVyxGs0B0ssADRzsAD7ElementRpzlsADP023_customIndexOfEquatableC00E0QzSgSgAFFTWTm, 
                       __T0s17FlattenCollectionVyxGs0B0ssADRzsAD7ElementRpzlsADP5count13IndexDistanceQzfgTWTm, 
                       __T0s17FlattenCollectionVyxGs0B0ssADRzsAD7ElementRpzlsADP5index5IndexQzAJ_0E8DistanceQz8offsetBytFTWTm, 
                       __T0s17FlattenCollectionVyxGs0B0ssADRzsAD7ElementRpzlsADP5index5IndexQzSgAJ_0E8DistanceQz8offsetByAJ07limitedH0tFTWTm, 
                       __T0s17FlattenCollectionVyxGs0B0ssADRzsAD7ElementRpzlsADP6prefix11SubSequenceQz5IndexQz4upTo_tFTWTm, 
                       __T0s17FlattenCollectionVyxGs0B0ssADRzsAD7ElementRpzlsADP7indices7IndicesQzfgTWTm, 
                       __T0s17FlattenCollectionVyxGs0B0ssADRzsAD7ElementRpzlsADP7isEmptySbfgTWTm, 
                       __T0s17FlattenCollectionVyxGs0B0ssADRzsAD7ElementRpzlsADP8distance13IndexDistanceQz0E0Qz4from_AL2totFTWTm, 
                       __T0s17FlattenCollectionVyxGs0B0ssADRzsAD7ElementRpzlsADP9subscriptAF5IndexQzcfgTWTm, 
                       __T0s17FlattenCollectionVyxGs10_Indexabless0B0RzsAE7ElementRpzl13IndexDistanceWt, 
                       __T0s17FlattenCollectionVyxGs10_Indexabless0B0RzsAE7ElementRpzl13IndexDistances13SignedIntegerPWT, 
                       __T0s17FlattenCollectionVyxGs10_Indexabless0B0RzsAE7ElementRpzlMA, 
                       __T0s17FlattenCollectionVyxGs10_Indexabless0B0RzsAE7ElementRpzlWG, 
                       __T0s17FlattenCollectionVyxGs10_Indexabless0B0RzsAE7ElementRpzlWI, 
                       __T0s17FlattenCollectionVyxGs10_Indexabless0B0RzsAE7ElementRpzlWP, 
                       __T0s17FlattenCollectionVyxGs10_Indexabless0B0RzsAE7ElementRpzlWa, 
                       __T0s17FlattenCollectionVyxGs10_Indexabless0B0RzsAE7ElementRpzlsADP9formIndexSb0F0Qzz_0F8DistanceQz8offsetByAK07limitedI0tFTWTm, 
                       __T0s17FlattenCollectionVyxGs10_Indexabless0B0RzsAE7ElementRpzlsADP9formIndexy0F0Qzz_0F8DistanceQz8offsetBytFTWTm, 
                       __T0s17FlattenCollectionVyxGs14_IndexableBasess0B0RzsAE7ElementRpzl11SubSequenceWt, 
                       __T0s17FlattenCollectionVyxGs14_IndexableBasess0B0RzsAE7ElementRpzl5IndexWt, 
                       __T0s17FlattenCollectionVyxGs14_IndexableBasess0B0RzsAE7ElementRpzl5IndexWtTm, 
                       __T0s17FlattenCollectionVyxGs14_IndexableBasess0B0RzsAE7ElementRpzl5Indexs10ComparablePWT, 
                       __T0s17FlattenCollectionVyxGs14_IndexableBasess0B0RzsAE7ElementRpzlAFWt, 
                       __T0s17FlattenCollectionVyxGs14_IndexableBasess0B0RzsAE7ElementRpzlMA, 
                       __T0s17FlattenCollectionVyxGs14_IndexableBasess0B0RzsAE7ElementRpzlWG, 
                       __T0s17FlattenCollectionVyxGs14_IndexableBasess0B0RzsAE7ElementRpzlWP, 
                       __T0s17FlattenCollectionVyxGs14_IndexableBasess0B0RzsAE7ElementRpzlWa, 
                       __T0s17FlattenCollectionVyxGs14_IndexableBasess0B0RzsAE7ElementRpzlsADP20_failEarlyRangeChecky5IndexQz_s0H0VyAKG6boundstFTWTm, 
                       __T0s17FlattenCollectionVyxGs14_IndexableBasess0B0RzsAE7ElementRpzlsADP9formIndexy0G0Qzz5after_tFTWTm, 
                       __T0s17FlattenCollectionVyxGs8Sequencess0B0RzsAE7ElementRpzl03SubC0Wt, 
                       __T0s17FlattenCollectionVyxGs8Sequencess0B0RzsAE7ElementRpzl8IteratorWt, 
                       __T0s17FlattenCollectionVyxGs8Sequencess0B0RzsAE7ElementRpzl8Iterators0E8ProtocolPWT, 
                       __T0s17FlattenCollectionVyxGs8Sequencess0B0RzsAE7ElementRpzlAFWt, 
                       __T0s17FlattenCollectionVyxGs8Sequencess0B0RzsAE7ElementRpzlMA, 
                       __T0s17FlattenCollectionVyxGs8Sequencess0B0RzsAE7ElementRpzlWG, 
                       __T0s17FlattenCollectionVyxGs8Sequencess0B0RzsAE7ElementRpzlWP, 
                       __T0s17FlattenCollectionVyxGs8Sequencess0B0RzsAE7ElementRpzlWa, 
                       __T0s17FlattenCollectionVyxGs8Sequencess0B0RzsAE7ElementRpzlsADP22_copyToContiguousArrays0gH0VyAGGyFTWTm, 
                       __T0s17FlattenCollectionVyxGs8Sequencess0B0RzsAE7ElementRpzlsADP4drop03SubC0QzSbAGKc5while_tKFTWTm, 
                       __T0s17FlattenCollectionVyxGs8Sequencess0B0RzsAE7ElementRpzlsADP7forEachyyAGKcKFTWTm, 
                       __T0s17FlattenCollectionVyxGs8Sequencess0B0RzsAE7ElementRpzlsADP9dropFirst03SubC0QzSiFTWTm, 
                       __T0s17FloatingPointSignO8rawValueSifg, __T0s17FloatingPointSignO9hashValueSifg, 
                       __T0s17FloatingPointSignOABSgSi8rawValue_tcfC, __T0s17FloatingPointSignOMF, 
                       __T0s17FloatingPointSignOMa, __T0s17FloatingPointSignOMf, 
                       __T0s17FloatingPointSignOMn, __T0s17FloatingPointSignON, 
                       __T0s17FloatingPointSignOWV, __T0s17FloatingPointSignOs16RawRepresentablesMA, 
                       __T0s17FloatingPointSignOs16RawRepresentablesWP, 
                       __T0s17FloatingPointSignOs16RawRepresentablesWa, 
                       __T0s17FloatingPointSignOs8HashablesWP, __T0s17FloatingPointSignOs8HashablesWa, 
                       __T0s17FloatingPointSignOs9EquatablesWP, __T0s17FloatingPointSignOs9EquatablesWa, 
                       __T0s17GeneratorSequenceVMF, __T0s17GeneratorSequenceVMP, 
                       __T0s17GeneratorSequenceVMa, __T0s17GeneratorSequenceVMn, 
                       __T0s17GeneratorSequenceVWV, __T0s17IndexingGeneratorVMF, 
                       __T0s17IndexingGeneratorVMP, __T0s17IndexingGeneratorVMa, 
                       __T0s17IndexingGeneratorVMn, __T0s17IndexingGeneratorVWV, 
                       __T0s17LazyMapCollectionV10startIndex0E0Qzfg, __T0s17LazyMapCollectionV12makeIterators0abE0Vy0E0Qzq_GyF, 
                       __T0s17LazyMapCollectionV19underestimatedCountSifg, 
                       __T0s17LazyMapCollectionV5count13IndexDistanceQzfg, 
                       __T0s17LazyMapCollectionV5firstq_Sgfg, __T0s17LazyMapCollectionV5index5IndexQzAE5after_tF, 
                       __T0s17LazyMapCollectionV5index5IndexQzAE_0E8DistanceQz8offsetBytF, 
                       __T0s17LazyMapCollectionV5index5IndexQzSgAE_0E8DistanceQz8offsetByAE07limitedH0tF, 
                       __T0s17LazyMapCollectionV7indices7IndicesQzfg, __T0s17LazyMapCollectionV7isEmptySbfg, 
                       __T0s17LazyMapCollectionV8distance13IndexDistanceQz0E0Qz4from_AG2totF, 
                       __T0s17LazyMapCollectionV8endIndex0E0Qzfg, __T0s17LazyMapCollectionV9formIndexy0E0Qzz5after_tF, 
                       __T0s17LazyMapCollectionV9subscriptq_5IndexQzcfg, 
                       __T0s17LazyMapCollectionV9subscripts5SliceVyAByxq_GGs5RangeVy5IndexQzGcfg, 
                       __T0s17LazyMapCollectionVAByxq_Gx5_base_q_7ElementQzc9transformtcfC, 
                       __T0s17LazyMapCollectionVAByxq_Gx_q_7ElementQzc9transformtcfC, 
                       __T0s17LazyMapCollectionVMF, __T0s17LazyMapCollectionVMP, 
                       __T0s17LazyMapCollectionVMa, __T0s17LazyMapCollectionVMn, 
                       __T0s17LazyMapCollectionVySS17UnicodeScalarViewVSSSg5label_yp5valuetGMaTm, 
                       __T0s17LazyMapCollectionVyxq_Gs0A16SequenceProtocolss0C0Rzr0_l8ElementsWt, 
                       __T0s17LazyMapCollectionVyxq_Gs0A16SequenceProtocolss0C0Rzr0_l8Elementss0D0PWT, 
                       __T0s17LazyMapCollectionVyxq_Gs0A16SequenceProtocolss0C0Rzr0_lMA, 
                       __T0s17LazyMapCollectionVyxq_Gs0A16SequenceProtocolss0C0Rzr0_lWG, 
                       __T0s17LazyMapCollectionVyxq_Gs0A16SequenceProtocolss0C0Rzr0_lWI, 
                       __T0s17LazyMapCollectionVyxq_Gs0A16SequenceProtocolss0C0Rzr0_lWP, 
                       __T0s17LazyMapCollectionVyxq_Gs0A16SequenceProtocolss0C0Rzr0_lWa, 
                       __T0s17LazyMapCollectionVyxq_Gs0C0ssADRzr0_l11SubSequenceWt, 
                       __T0s17LazyMapCollectionVyxq_Gs0C0ssADRzr0_l11SubSequences0E0PWT, 
                       __T0s17LazyMapCollectionVyxq_Gs0C0ssADRzr0_l11SubSequences14_IndexableBasePWT, 
                       __T0s17LazyMapCollectionVyxq_Gs0C0ssADRzr0_l13IndexDistanceWt, 
                       __T0s17LazyMapCollectionVyxq_Gs0C0ssADRzr0_l7IndicesWt, 
                       __T0s17LazyMapCollectionVyxq_Gs0C0ssADRzr0_l7Indicess10_IndexablePWT, 
                       __T0s17LazyMapCollectionVyxq_Gs0C0ssADRzr0_l7Indicess8SequencePWT, 
                       __T0s17LazyMapCollectionVyxq_Gs0C0ssADRzr0_l8IteratorWt, 
                       __T0s17LazyMapCollectionVyxq_Gs0C0ssADRzr0_lMA, 
                       __T0s17LazyMapCollectionVyxq_Gs0C0ssADRzr0_lWG, 
                       __T0s17LazyMapCollectionVyxq_Gs0C0ssADRzr0_lWI, 
                       __T0s17LazyMapCollectionVyxq_Gs0C0ssADRzr0_lWP, 
                       __T0s17LazyMapCollectionVyxq_Gs0C0ssADRzr0_lWa, 
                       __T0s17LazyMapCollectionVyxq_Gs0C0ssADRzr0_lsADP5index5IndexQzAH_0E8DistanceQz8offsetBytFTWTm, 
                       __T0s17LazyMapCollectionVyxq_Gs0C0ssADRzr0_lsADP5index5IndexQzSgAH_0E8DistanceQz8offsetByAH07limitedH0tFTWTm, 
                       __T0s17LazyMapCollectionVyxq_Gs0C0ssADRzr0_lsADP7isEmptySbfgTWTm, 
                       __T0s17LazyMapCollectionVyxq_Gs0aC8Protocolss0C0Rzr0_l8ElementsWt, 
                       __T0s17LazyMapCollectionVyxq_Gs0aC8Protocolss0C0Rzr0_l8ElementssAEPWT, 
                       __T0s17LazyMapCollectionVyxq_Gs0aC8Protocolss0C0Rzr0_lMA, 
                       __T0s17LazyMapCollectionVyxq_Gs0aC8Protocolss0C0Rzr0_lWG, 
                       __T0s17LazyMapCollectionVyxq_Gs0aC8Protocolss0C0Rzr0_lWI, 
                       __T0s17LazyMapCollectionVyxq_Gs0aC8Protocolss0C0Rzr0_lWP, 
                       __T0s17LazyMapCollectionVyxq_Gs0aC8Protocolss0C0Rzr0_lWa, 
                       __T0s17LazyMapCollectionVyxq_Gs10_Indexabless0C0Rzr0_l13IndexDistanceWt, 
                       __T0s17LazyMapCollectionVyxq_Gs10_Indexabless0C0Rzr0_l13IndexDistances13SignedIntegerPWT, 
                       __T0s17LazyMapCollectionVyxq_Gs10_Indexabless0C0Rzr0_lMA, 
                       __T0s17LazyMapCollectionVyxq_Gs10_Indexabless0C0Rzr0_lWG, 
                       __T0s17LazyMapCollectionVyxq_Gs10_Indexabless0C0Rzr0_lWI, 
                       __T0s17LazyMapCollectionVyxq_Gs10_Indexabless0C0Rzr0_lWP, 
                       __T0s17LazyMapCollectionVyxq_Gs10_Indexabless0C0Rzr0_lWa, 
                       __T0s17LazyMapCollectionVyxq_Gs14_IndexableBasess0C0Rzr0_l11SubSequenceWt, 
                       __T0s17LazyMapCollectionVyxq_Gs14_IndexableBasess0C0Rzr0_l5IndexWt, 
                       __T0s17LazyMapCollectionVyxq_Gs14_IndexableBasess0C0Rzr0_l5Indexs10ComparablePWT, 
                       __T0s17LazyMapCollectionVyxq_Gs14_IndexableBasess0C0Rzr0_l7ElementWt, 
                       __T0s17LazyMapCollectionVyxq_Gs14_IndexableBasess0C0Rzr0_lMA, 
                       __T0s17LazyMapCollectionVyxq_Gs14_IndexableBasess0C0Rzr0_lWG, 
                       __T0s17LazyMapCollectionVyxq_Gs14_IndexableBasess0C0Rzr0_lWP, 
                       __T0s17LazyMapCollectionVyxq_Gs14_IndexableBasess0C0Rzr0_lWa, 
                       __T0s17LazyMapCollectionVyxq_Gs8Sequencess0C0Rzr0_l03SubD0Wt, 
                       __T0s17LazyMapCollectionVyxq_Gs8Sequencess0C0Rzr0_l7ElementWt, 
                       __T0s17LazyMapCollectionVyxq_Gs8Sequencess0C0Rzr0_l8IteratorWt, 
                       __T0s17LazyMapCollectionVyxq_Gs8Sequencess0C0Rzr0_l8Iterators0E8ProtocolPWT, 
                       __T0s17LazyMapCollectionVyxq_Gs8Sequencess0C0Rzr0_lMA, 
                       __T0s17LazyMapCollectionVyxq_Gs8Sequencess0C0Rzr0_lWG, 
                       __T0s17LazyMapCollectionVyxq_Gs8Sequencess0C0Rzr0_lWP, 
                       __T0s17LazyMapCollectionVyxq_Gs8Sequencess0C0Rzr0_lWa, 
                       __T0s17MutableCollectionMp, __T0s17MutableCollectionPsE011_withUnsafeA24BufferPointerIfSupportedqd__Sgqd__Spy7ElementQzG_SitKcKlF, 
                       __T0s17MutableCollectionPsE6sortedSay7ElementQzGSbAE_AEtKc2by_tKF, 
                       __T0s17MutableCollectionPsE6swapAty5IndexQz_AEtF, 
                       __T0s17MutableCollectionPsE9partition5IndexQzSb7ElementQzKc2by_tKF, 
                       __T0s17MutableCollectionPsE9subscripts0A5SliceVyxGs5RangeVy5IndexQzGcfg, 
                       __T0s17MutableCollectionPsE9subscripts0A5SliceVyxGs5RangeVy5IndexQzGcfm, 
                       __T0s17MutableCollectionPsE9subscripts0A5SliceVyxGs5RangeVy5IndexQzGcfs, 
                       __T0s17MutableCollectionPss013BidirectionalB0RzsAARzlE7reverseyyF, 
                       __T0s17MutableCollectionPss013BidirectionalB0RzsAARzlE9partition5Indexs14_IndexableBasePQzSb7Elements8SequencePQzKc2by_tKF, 
                       __T0s17MutableCollectionPss013BidirectionalB0RzsAARzlE9partition5Indexs14_IndexableBasePQzSb7Elements8SequencePQzKc2by_tKFSiSpyALG_SitKcfU_TA, 
                       __T0s17MutableCollectionPss013BidirectionalB0RzsAARzlE9subscripts0aC5SliceVyxGs5RangeVy5Indexs14_IndexableBasePQzGcfg, 
                       __T0s17MutableCollectionPss013BidirectionalB0RzsAARzlE9subscripts0aC5SliceVyxGs5RangeVy5Indexs14_IndexableBasePQzGcfm, 
                       __T0s17MutableCollectionPss013BidirectionalB0RzsAARzlE9subscripts0aC5SliceVyxGs5RangeVy5Indexs14_IndexableBasePQzGcfs, 
                       __T0s17MutableCollectionPssAARzs012RandomAccessB0RzlE11sortInPlaceySb7Elements8SequencePQz_AHtcF, 
                       __T0s17MutableCollectionPssAARzs012RandomAccessB0RzlE4sortySb7Elements8SequencePQz_AHtKc2by_tKF, 
                       __T0s17MutableCollectionPssAARzs012RandomAccessB0RzlE4sortySb7Elements8SequencePQz_AHtKc2by_tKFySpyAHG_SitKcfU_TA, 
                       __T0s17MutableCollectionPssAARzs012RandomAccessB0RzlE9partition5Indexs14_IndexableBasePQzSb7Elements8SequencePQz_ALtc15isOrderedBefore_tF, 
                       __T0s17MutableCollectionPssAARzs012RandomAccessB0RzlE9partition5Indexs14_IndexableBasePQzs5RangeVyAHG_Sb7Elements8SequencePQz_AOtc15isOrderedBeforetF, 
                       __T0s17MutableCollectionPssAARzs012RandomAccessB0RzlE9subscripts0acD5SliceVyxGs5RangeVy5Indexs14_IndexableBasePQzGcfg, 
                       __T0s17MutableCollectionPssAARzs012RandomAccessB0RzlE9subscripts0acD5SliceVyxGs5RangeVy5Indexs14_IndexableBasePQzGcfm, 
                       __T0s17MutableCollectionPssAARzs012RandomAccessB0RzlE9subscripts0acD5SliceVyxGs5RangeVy5Indexs14_IndexableBasePQzGcfs, 
                       __T0s17MutableCollectionPssAARzs012RandomAccessB0Rzs10Comparable7Elements8SequencePRpzlE11sortInPlaceyyF, 
                       __T0s17MutableCollectionPssAARzs012RandomAccessB0Rzs10Comparable7Elements8SequencePRpzlE4sortyyF, 
                       __T0s17MutableCollectionPssAARzs012RandomAccessB0Rzs10Comparable7Elements8SequencePRpzlE4sortyyFySpyAHG_SitcfU_TA, 
                       __T0s17MutableCollectionPssAARzs012RandomAccessB0Rzs10Comparable7Elements8SequencePRpzlE9partition5Indexs14_IndexableBasePQzs5RangeVyAMGF, 
                       __T0s17MutableCollectionPssAARzs012RandomAccessB0Rzs10Comparable7Elements8SequencePRpzlE9partition5Indexs14_IndexableBasePQzyF, 
                       __T0s17MutableCollectionPssAARzs10Comparable7ElementRpzlE6sortedSayAEGyF, 
                       __T0s17MutableCollection_pMF, __T0s17NonObjectiveCBaseCMF, 
                       __T0s17NonObjectiveCBaseCML, __T0s17NonObjectiveCBaseCMa, 
                       __T0s17NonObjectiveCBaseCMf, __T0s17NonObjectiveCBaseCMm, 
                       __T0s17NonObjectiveCBaseCMn, __T0s17NonObjectiveCBaseCN, 
                       __T0s17NonObjectiveCBaseCfD, __T0s17NonObjectiveCBaseCfd, 
                       __T0s17RandomAccessSliceV10startIndex0E0Qzfg, __T0s17RandomAccessSliceV20_failEarlyRangeChecky5IndexQz_s0F0VyAEG6boundstF, 
                       __T0s17RandomAccessSliceV20_failEarlyRangeCheckys0F0Vy5IndexQzG_AH6boundstF, 
                       __T0s17RandomAccessSliceV4basexfg, __T0s17RandomAccessSliceV5index5IndexQzAE5after_tF, 
                       __T0s17RandomAccessSliceV5index5IndexQzAE6before_tF, 
                       __T0s17RandomAccessSliceV5index5IndexQzAE_0E8DistanceQz8offsetBytF, 
                       __T0s17RandomAccessSliceV5index5IndexQzSgAE_0E8DistanceQz8offsetByAE07limitedH0tF, 
                       __T0s17RandomAccessSliceV8distance13IndexDistanceQz0E0Qz4from_AG2totF, 
                       __T0s17RandomAccessSliceV8endIndex0E0Qzfg, __T0s17RandomAccessSliceV9formIndexy0E0Qzz5after_tF, 
                       __T0s17RandomAccessSliceV9formIndexy0E0Qzz6before_tF, 
                       __T0s17RandomAccessSliceV9subscript7ElementQz5IndexQzcfg, 
                       __T0s17RandomAccessSliceV9subscriptAByxGs5RangeVy5IndexQzGcfg, 
                       __T0s17RandomAccessSliceVAByxGx4base_s5RangeVy5IndexQzG6boundstcfC, 
                       __T0s17RandomAccessSliceVMF, __T0s17RandomAccessSliceVMP, 
                       __T0s17RandomAccessSliceVMa, __T0s17RandomAccessSliceVMn, 
                       __T0s17RandomAccessSliceVySRys6UInt16VGGMaTm, __T0s17RandomAccessSliceVys07LazyMapaB10CollectionVys17DictionaryLiteralVySSypGSSSg5label_yp5valuetGGAByxGs0abF0ss01_aB9IndexableRzlWlTm, 
                       __T0s17RandomAccessSliceVyxGs01_aB9IndexablessADRzlWG, 
                       __T0s17RandomAccessSliceVyxGs01_aB9IndexablessADRzlWI, 
                       __T0s17RandomAccessSliceVyxGs01_aB9IndexablessADRzlWP, 
                       __T0s17RandomAccessSliceVyxGs01_aB9IndexablessADRzlWa, 
                       __T0s17RandomAccessSliceVyxGs0aB10Collectionss01_aB9IndexableRzl11SubSequenceWt, 
                       __T0s17RandomAccessSliceVyxGs0aB10Collectionss01_aB9IndexableRzl11SubSequences013BidirectionalD0PWT, 
                       __T0s17RandomAccessSliceVyxGs0aB10Collectionss01_aB9IndexableRzl11SubSequencesAEPWT, 
                       __T0s17RandomAccessSliceVyxGs0aB10Collectionss01_aB9IndexableRzl7IndicesWt, 
                       __T0s17RandomAccessSliceVyxGs0aB10Collectionss01_aB9IndexableRzl7Indicess013BidirectionalD0PWT, 
                       __T0s17RandomAccessSliceVyxGs0aB10Collectionss01_aB9IndexableRzl7IndicessAEPWT, 
                       __T0s17RandomAccessSliceVyxGs0aB10Collectionss01_aB9IndexableRzlMA, 
                       __T0s17RandomAccessSliceVyxGs0aB10Collectionss01_aB9IndexableRzlWG, 
                       __T0s17RandomAccessSliceVyxGs0aB10Collectionss01_aB9IndexableRzlWI, 
                       __T0s17RandomAccessSliceVyxGs0aB10Collectionss01_aB9IndexableRzlWP, 
                       __T0s17RandomAccessSliceVyxGs0aB10Collectionss01_aB9IndexableRzlWa, 
                       __T0s17RandomAccessSliceVyxGs10Collectionss01_aB9IndexableRzl11SubSequenceWt, 
                       __T0s17RandomAccessSliceVyxGs10Collectionss01_aB9IndexableRzl11SubSequences01_E4BasePWT, 
                       __T0s17RandomAccessSliceVyxGs10Collectionss01_aB9IndexableRzl11SubSequences0G0PWT, 
                       __T0s17RandomAccessSliceVyxGs10Collectionss01_aB9IndexableRzl13IndexDistanceWt, 
                       __T0s17RandomAccessSliceVyxGs10Collectionss01_aB9IndexableRzl7IndicesWt, 
                       __T0s17RandomAccessSliceVyxGs10Collectionss01_aB9IndexableRzl7Indicess01_E0PWT, 
                       __T0s17RandomAccessSliceVyxGs10Collectionss01_aB9IndexableRzl7Indicess8SequencePWT, 
                       __T0s17RandomAccessSliceVyxGs10Collectionss01_aB9IndexableRzl8IteratorWt, 
                       __T0s17RandomAccessSliceVyxGs10Collectionss01_aB9IndexableRzlMA, 
                       __T0s17RandomAccessSliceVyxGs10Collectionss01_aB9IndexableRzlWG, 
                       __T0s17RandomAccessSliceVyxGs10Collectionss01_aB9IndexableRzlWI, 
                       __T0s17RandomAccessSliceVyxGs10Collectionss01_aB9IndexableRzlWP, 
                       __T0s17RandomAccessSliceVyxGs10Collectionss01_aB9IndexableRzlWa, 
                       __T0s17RandomAccessSliceVyxGs10Collectionss01_aB9IndexableRzlsADP30_customIndexOfEquatableElement0G0QzSgSg0J0QzFTWTm, 
                       __T0s17RandomAccessSliceVyxGs10Collectionss01_aB9IndexableRzlsADP5count13IndexDistanceQzfgTWTm, 
                       __T0s17RandomAccessSliceVyxGs10Collectionss01_aB9IndexableRzlsADP5index5IndexQzAI_0G8DistanceQz8offsetBytFTWTm, 
                       __T0s17RandomAccessSliceVyxGs10Collectionss01_aB9IndexableRzlsADP5index5IndexQzSgAI_0G8DistanceQz8offsetByAI07limitedJ0tFTWTm, 
                       __T0s17RandomAccessSliceVyxGs10Collectionss01_aB9IndexableRzlsADP6prefix11SubSequenceQz5IndexQz4upTo_tFTWTm, 
                       __T0s17RandomAccessSliceVyxGs10Collectionss01_aB9IndexableRzlsADP7isEmptySbfgTWTm, 
                       __T0s17RandomAccessSliceVyxGs10_Indexabless01_abD0Rzl13IndexDistanceWt, 
                       __T0s17RandomAccessSliceVyxGs10_Indexabless01_abD0Rzl13IndexDistances13SignedIntegerPWT, 
                       __T0s17RandomAccessSliceVyxGs10_Indexabless01_abD0RzlMA, 
                       __T0s17RandomAccessSliceVyxGs10_Indexabless01_abD0RzlWG, 
                       __T0s17RandomAccessSliceVyxGs10_Indexabless01_abD0RzlWI, 
                       __T0s17RandomAccessSliceVyxGs10_Indexabless01_abD0RzlWP, 
                       __T0s17RandomAccessSliceVyxGs10_Indexabless01_abD0RzlWa, 
                       __T0s17RandomAccessSliceVyxGs10_Indexabless01_abD0RzlsADP9formIndexSb0F0Qzz_0F8DistanceQz8offsetByAI07limitedI0tFTWTm, 
                       __T0s17RandomAccessSliceVyxGs10_Indexabless01_abD0RzlsADP9formIndexy0F0Qzz_0F8DistanceQz8offsetBytFTWTm, 
                       __T0s17RandomAccessSliceVyxGs14_IndexableBasess01_abD0Rzl11SubSequenceWt, 
                       __T0s17RandomAccessSliceVyxGs14_IndexableBasess01_abD0Rzl5IndexWt, 
                       __T0s17RandomAccessSliceVyxGs14_IndexableBasess01_abD0Rzl5Indexs10ComparablePWT, 
                       __T0s17RandomAccessSliceVyxGs14_IndexableBasess01_abD0Rzl7ElementWt, 
                       __T0s17RandomAccessSliceVyxGs14_IndexableBasess01_abD0RzlMA, 
                       __T0s17RandomAccessSliceVyxGs14_IndexableBasess01_abD0RzlWG, 
                       __T0s17RandomAccessSliceVyxGs14_IndexableBasess01_abD0RzlWP, 
                       __T0s17RandomAccessSliceVyxGs14_IndexableBasess01_abD0RzlWa, 
                       __T0s17RandomAccessSliceVyxGs14_IndexableBasess01_abD0RzlsADP10startIndex0G0QzfgTWTm, 
                       __T0s17RandomAccessSliceVyxGs14_IndexableBasess01_abD0RzlsADP20_failEarlyRangeChecky5IndexQz_s06ClosedH0VyAIG6boundstFTWTm, 
                       __T0s17RandomAccessSliceVyxGs14_IndexableBasess01_abD0RzlsADP20_failEarlyRangeChecky5IndexQz_s0H0VyAIG6boundstFTWTm, 
                       __T0s17RandomAccessSliceVyxGs14_IndexableBasess01_abD0RzlsADP5index5IndexQzAI5after_tFTWTm, 
                       __T0s17RandomAccessSliceVyxGs14_IndexableBasess01_abD0RzlsADP9formIndexy0G0Qzz5after_tFTWTm, 
                       __T0s17RandomAccessSliceVyxGs23BidirectionalCollectionss01_aB9IndexableRzl11SubSequenceWt, 
                       __T0s17RandomAccessSliceVyxGs23BidirectionalCollectionss01_aB9IndexableRzl11SubSequences01_dF0PWT, 
                       __T0s17RandomAccessSliceVyxGs23BidirectionalCollectionss01_aB9IndexableRzl11SubSequences0E0PWT, 
                       __T0s17RandomAccessSliceVyxGs23BidirectionalCollectionss01_aB9IndexableRzl7IndicesWt, 
                       __T0s17RandomAccessSliceVyxGs23BidirectionalCollectionss01_aB9IndexableRzl7Indicess01_dF0PWT, 
                       __T0s17RandomAccessSliceVyxGs23BidirectionalCollectionss01_aB9IndexableRzl7Indicess0E0PWT, 
                       __T0s17RandomAccessSliceVyxGs23BidirectionalCollectionss01_aB9IndexableRzlMA, 
                       __T0s17RandomAccessSliceVyxGs23BidirectionalCollectionss01_aB9IndexableRzlWG, 
                       __T0s17RandomAccessSliceVyxGs23BidirectionalCollectionss01_aB9IndexableRzlWI, 
                       __T0s17RandomAccessSliceVyxGs23BidirectionalCollectionss01_aB9IndexableRzlWP, 
                       __T0s17RandomAccessSliceVyxGs23BidirectionalCollectionss01_aB9IndexableRzlWa, 
                       __T0s17RandomAccessSliceVyxGs23BidirectionalCollectionss01_aB9IndexableRzlsADP4last7ElementQzSgfgTWTm, 
                       __T0s17RandomAccessSliceVyxGs23_BidirectionalIndexabless01_abE0RzlWG, 
                       __T0s17RandomAccessSliceVyxGs23_BidirectionalIndexabless01_abE0RzlWI, 
                       __T0s17RandomAccessSliceVyxGs23_BidirectionalIndexabless01_abE0RzlWP, 
                       __T0s17RandomAccessSliceVyxGs23_BidirectionalIndexabless01_abE0RzlWa, 
                       __T0s17RandomAccessSliceVyxGs8Sequencess01_aB9IndexableRzl03SubD0Wt, 
                       __T0s17RandomAccessSliceVyxGs8Sequencess01_aB9IndexableRzl7ElementWt, 
                       __T0s17RandomAccessSliceVyxGs8Sequencess01_aB9IndexableRzl8IteratorWt, 
                       __T0s17RandomAccessSliceVyxGs8Sequencess01_aB9IndexableRzl8Iterators0F8ProtocolPWT, 
                       __T0s17RandomAccessSliceVyxGs8Sequencess01_aB9IndexableRzlMA, 
                       __T0s17RandomAccessSliceVyxGs8Sequencess01_aB9IndexableRzlWG, 
                       __T0s17RandomAccessSliceVyxGs8Sequencess01_aB9IndexableRzlWP, 
                       __T0s17RandomAccessSliceVyxGs8Sequencess01_aB9IndexableRzlWa, 
                       __T0s17RandomAccessSliceVyxGs8Sequencess01_aB9IndexableRzlsADP13_copyContents8IteratorQz_SitSry7ElementQzG12initializing_tFTWTm, 
                       __T0s17RandomAccessSliceVyxGs8Sequencess01_aB9IndexableRzlsADP19underestimatedCountSifgTWTm, 
                       __T0s17RandomAccessSliceVyxGs8Sequencess01_aB9IndexableRzlsADP31_customContainsEquatableElementSbSg0I0QzFTWTm, 
                       __T0s17RandomAccessSliceVyxGs8Sequencess01_aB9IndexableRzlsADP3mapSayqd__Gqd__7ElementQzKcKlFTWTm, 
                       __T0s17RandomAccessSliceVyxGs8Sequencess01_aB9IndexableRzlsADP4drop03SubD0QzSb7ElementQzKc5while_tKFTWTm, 
                       __T0s17RandomAccessSliceVyxGs8Sequencess01_aB9IndexableRzlsADP5splitSay03SubD0QzGSi9maxSplits_Sb25omittingEmptySubsequencesSb7ElementQzKc14whereSeparatortKFTWTm, 
                       __T0s17RandomAccessSliceVyxGs8Sequencess01_aB9IndexableRzlsADP6filterSay7ElementQzGSbAIKcKFTWTm, 
                       __T0s17RandomAccessSliceVyxGs8Sequencess01_aB9IndexableRzlsADP7forEachyy7ElementQzKcKFTWTm, 
                       __T0s17RandomAccessSliceVyxGs8Sequencess01_aB9IndexableRzlsADP9dropFirst03SubD0QzSiFTWTm, 
                       __T0s17StrideToGeneratorVMF, __T0s17StrideToGeneratorVMP, 
                       __T0s17StrideToGeneratorVMa, __T0s17StrideToGeneratorVMn, 
                       __T0s17StrideToGeneratorVWV, __T0s17_AnyCollectionBoxC10_dropFirstAByxGSiF, 
                       __T0s17_AnyCollectionBoxC10_formIndexSbs01_aeC0_pz_s5Int64V8offsetBysAD_p07limitedH0tF, 
                       __T0s17_AnyCollectionBoxC10_formIndexys01_aeC0_p5after_tF, 
                       __T0s17_AnyCollectionBoxC10_formIndexys01_aeC0_pz_s5Int64V8offsetBytF, 
                       __T0s17_AnyCollectionBoxC11_startIndexs01_aeC0_pvWvd, 
                       __T0s17_AnyCollectionBoxC5_dropAByxGSbxKc5while_tKF, 
                       __T0s17_AnyCollectionBoxC6_counts5Int64Vfg, __T0s17_AnyCollectionBoxC6_firstxSgfg, 
                       __T0s17_AnyCollectionBoxC6_indexs01_a5IndexC0_pSgsAD_p_s5Int64V8offsetBysAD_p07limitedH0tF, 
                       __T0s17_AnyCollectionBoxC6_indexs01_a5IndexC0_psAD_p5after_tF, 
                       __T0s17_AnyCollectionBoxC6_indexs01_a5IndexC0_psAD_p_s5Int64V8offsetBytF, 
                       __T0s17_AnyCollectionBoxC6_splitSays0aB0VyxGGSi9maxSplits_Sb25omittingEmptySubsequencesSbxKc14whereSeparatortKF, 
                       __T0s17_AnyCollectionBoxC7_prefixAByxGSbxKc5while_tKF, 
                       __T0s17_AnyCollectionBoxC7_prefixAByxGSiF, __T0s17_AnyCollectionBoxC7_suffixAByxGSiF, 
                       __T0s17_AnyCollectionBoxC9_distances5Int64Vs01_a5IndexC0_p4from_sAF_p2totF, 
                       __T0s17_AnyCollectionBoxC9_dropLastAByxGSiF, __T0s17_AnyCollectionBoxC9_endIndexs01_aeC0_pvWvd, 
                       __T0s17_AnyCollectionBoxC9subscriptAByxGs01_a5IndexC0_p5start_sAE_p3endtcfg, 
                       __T0s17_AnyCollectionBoxC9subscriptxs01_a5IndexC0_pcfg, 
                       __T0s17_AnyCollectionBoxCAByxGs01_a5IndexC0_p06_startD0_sAD_p03endD0tcfC, 
                       __T0s17_AnyCollectionBoxCAByxGs01_a5IndexC0_p06_startD0_sAD_p03endD0tcfc, 
                       __T0s17_AnyCollectionBoxCMF, __T0s17_AnyCollectionBoxCMP, 
                       __T0s17_AnyCollectionBoxCMa, __T0s17_AnyCollectionBoxCMn, 
                       __T0s17_AnyCollectionBoxCfD, __T0s17_AnyCollectionBoxCfE, 
                       __T0s17_ClassSuperMirrorVMF, __T0s17_ClassSuperMirrorVMa, 
                       __T0s17_ClassSuperMirrorVMf, __T0s17_ClassSuperMirrorVMn, 
                       __T0s17_ClassSuperMirrorVN, __T0s17_ClassSuperMirrorVWV, 
                       __T0s17_ClassSuperMirrorVs01_C0sWP, __T0s17_ClassSuperMirrorVs01_C0sWa, 
                       __T0s17_ClassSuperMirrorVs01_C0ssACP11dispositions01_C11DispositionOfgTW, 
                       __T0s17_ClassSuperMirrorVs01_C0ssACP15quickLookObjects015PlaygroundQuickE0OSgfgTW, 
                       __T0s17_ClassSuperMirrorVs01_C0ssACP16objectIdentifiers06ObjectE0VSgfgTW, 
                       __T0s17_ClassSuperMirrorVs01_C0ssACP5countSifgTW, 
                       __T0s17_ClassSuperMirrorVs01_C0ssACP5valueypfgTW, 
                       __T0s17_ClassSuperMirrorVs01_C0ssACP7summarySSfgTW, 
                       __T0s17_ClassSuperMirrorVs01_C0ssACP9subscriptSS_sAC_ptSicfgTW, 
                       __T0s17_ClassSuperMirrorVs01_C0ssACP9valueTypeypXpfgTW, 
                       __T0s17_CocoaSetIteratorC05cocoaB0s6_NSSet_pvWvd, 
                       __T0s17_CocoaSetIteratorC21_fastEnumerationStateSC012_SwiftNSFasteF0VvWvd, 
                       __T0s17_CocoaSetIteratorC24_fastEnumerationStackBufs01_a4FastefG0VvWvd, 
                       __T0s17_CocoaSetIteratorC24_fastEnumerationStatePtrSpySC012_SwiftNSFasteF0VGfg, 
                       __T0s17_CocoaSetIteratorC27_fastEnumerationStackBufPtrSpys01_a4FastefG0VGfg, 
                       __T0s17_CocoaSetIteratorC4nextyXlSgyF, __T0s17_CocoaSetIteratorC9itemCountSivWvd, 
                       __T0s17_CocoaSetIteratorC9itemIndexSivWvd, __T0s17_CocoaSetIteratorCABs6_NSSet_pcfC, 
                       __T0s17_CocoaSetIteratorCABs6_NSSet_pcfCTm, __T0s17_CocoaSetIteratorCABs6_NSSet_pcfc, 
                       __T0s17_CocoaSetIteratorCMF, __T0s17_CocoaSetIteratorCML, 
                       __T0s17_CocoaSetIteratorCMa, __T0s17_CocoaSetIteratorCMf, 
                       __T0s17_CocoaSetIteratorCMm, __T0s17_CocoaSetIteratorCMn, 
                       __T0s17_CocoaSetIteratorCN, __T0s17_CocoaSetIteratorCfD, 
                       __T0s17_CocoaSetIteratorCs0C8ProtocolsMA, __T0s17_CocoaSetIteratorCs0C8ProtocolsWP, 
                       __T0s17_CocoaSetIteratorCs0C8ProtocolsWa, __T0s17_HeapBufferHeaderV5valuexfm, 
                       __T0s17_HeapBufferHeaderV5valuexfs, __T0s17_HeapBufferHeaderVAByxGxcfC, 
                       __T0s17_HeapBufferHeaderVMF, __T0s17_HeapBufferHeaderVMP, 
                       __T0s17_HeapBufferHeaderVMa, __T0s17_HeapBufferHeaderVMn, 
                       __T0s17_HeapBufferHeaderVyxGs01_abC1_sl5ValueWt, 
                       __T0s17_HeapBufferHeaderVyxGs01_abC1_slMA, __T0s17_HeapBufferHeaderVyxGs01_abC1_slWP, 
                       __T0s17_HeapBufferHeaderVyxGs01_abC1_slWa, __T0s17_HeapBufferHeaderVyxGs01_abC1_slsADP5value5ValueQzfgTW, 
                       __T0s17_HeapBufferHeaderVyxGs01_abC1_slsADP5value5ValueQzfmTW, 
                       __T0s17_HeapBufferHeaderVyxGs01_abC1_slsADP5value5ValueQzfsTW, 
                       __T0s17_HeapBufferHeaderVyxGs01_abC1_slsADPx5ValueQzcfCTW, 
                       __T0s17_MutableIndexableMp, __T0s17_MutableIndexablePsE9subscript11SubSequenceQzqd__cs15RangeExpressionRd__5BoundQyd__5IndexRtzlufg, 
                       __T0s17_MutableIndexablePsE9subscript11SubSequenceQzqd__cs15RangeExpressionRd__5BoundQyd__5IndexRtzlufm, 
                       __T0s17_MutableIndexablePsE9subscript11SubSequenceQzqd__cs15RangeExpressionRd__5BoundQyd__5IndexRtzlufs, 
                       __T0s17_MutableIndexablePsE9subscript11SubSequenceQzys15UnboundedRange_Occfg, 
                       __T0s17_MutableIndexablePsE9subscript11SubSequenceQzys15UnboundedRange_Occfm, 
                       __T0s17_MutableIndexablePsE9subscript11SubSequenceQzys15UnboundedRange_Occfs, 
                       __T0s17_MutableIndexable_pMF, __T0s17_NSDictionaryCore_pMF, 
                       __T0s17_SentinelIteratorV4next7ElementQzSgyF, __T0s17_SentinelIteratorVMF, 
                       __T0s17_SentinelIteratorVMP, __T0s17_SentinelIteratorVMa, 
                       __T0s17_SentinelIteratorVMn, __T0s17_SentinelIteratorVyxq_Gs0B8ProtocolssADRzs10_PredicateR_5InputQy_7ElementRtzr0_lAHWt, 
                       __T0s17_SentinelIteratorVyxq_Gs0B8ProtocolssADRzs10_PredicateR_5InputQy_7ElementRtzr0_lMA, 
                       __T0s17_SentinelIteratorVyxq_Gs0B8ProtocolssADRzs10_PredicateR_5InputQy_7ElementRtzr0_lWP, 
                       __T0s17_SentinelIteratorVyxq_Gs0B8ProtocolssADRzs10_PredicateR_5InputQy_7ElementRtzr0_lWa, 
                       __T0s17_SentinelIteratorVyxq_Gs0B8ProtocolssADRzs10_PredicateR_5InputQy_7ElementRtzr0_lsADP4nextAISgyFTW, 
                       __T0s17_SentinelIteratorVyxq_Gs8Sequencess0B8ProtocolRzs10_PredicateR_5InputQy_7ElementRtzr0_l03SubC0Wt, 
                       __T0s17_SentinelIteratorVyxq_Gs8Sequencess0B8ProtocolRzs10_PredicateR_5InputQy_7ElementRtzr0_l0B0Wt, 
                       __T0s17_SentinelIteratorVyxq_Gs8Sequencess0B8ProtocolRzs10_PredicateR_5InputQy_7ElementRtzr0_l0B0sAEPWT, 
                       __T0s17_SentinelIteratorVyxq_Gs8Sequencess0B8ProtocolRzs10_PredicateR_5InputQy_7ElementRtzr0_lAIWt, 
                       __T0s17_SentinelIteratorVyxq_Gs8Sequencess0B8ProtocolRzs10_PredicateR_5InputQy_7ElementRtzr0_lMA, 
                       __T0s17_SentinelIteratorVyxq_Gs8Sequencess0B8ProtocolRzs10_PredicateR_5InputQy_7ElementRtzr0_lWG, 
                       __T0s17_SentinelIteratorVyxq_Gs8Sequencess0B8ProtocolRzs10_PredicateR_5InputQy_7ElementRtzr0_lWP, 
                       __T0s17_SentinelIteratorVyxq_Gs8Sequencess0B8ProtocolRzs10_PredicateR_5InputQy_7ElementRtzr0_lWa, 
                       __T0s17_SentinelIteratorVyxq_Gs8Sequencess0B8ProtocolRzs10_PredicateR_5InputQy_7ElementRtzr0_lsADP4drop03SubC0QzSbAIQzKc5while_tKFTWTm, 
                       __T0s17_SentinelIteratorVyxq_Gs8Sequencess0B8ProtocolRzs10_PredicateR_5InputQy_7ElementRtzr0_lsADP9dropFirst03SubC0QzSiFTWTm, 
                       __T0s17_SipHash13ContextV15_appendDirectlyys6UInt64VF, 
                       __T0s17_SipHash13ContextV18_hash_alwaysInlines6UInt64VSV4data_Si0H9ByteCountAE_AEt3keytFZ, 
                       __T0s17_SipHash13ContextV20_append_alwaysInlineySV_Si9byteCounttF, 
                       __T0s17_SipHash13ContextV21finalizeAndReturnHashs6UInt64VyF, 
                       __T0s17_SipHash13ContextV35_finalizeAndReturnHash_alwaysInlines6UInt64VyF, 
                       __T0s17_SipHash13ContextV4hashs6UInt64VSV4data_Si0F9ByteCountAE_AEt3keytFZ, 
                       __T0s17_SipHash13ContextV6appendySV_Si9byteCounttF, 
                       __T0s17_SipHash13ContextV6appendySiF, __T0s17_SipHash13ContextV6appendySuF, 
                       __T0s17_SipHash13ContextV6appendys5Int32VF, __T0s17_SipHash13ContextV6appendys5Int64VF, 
                       __T0s17_SipHash13ContextV6appendys6UInt32VF, __T0s17_SipHash13ContextV6appendys6UInt64VF, 
                       __T0s17_SipHash13ContextVABs6UInt64V_ADt3key_tcfC, 
                       __T0s17_SipHash13ContextVMF, __T0s17_SipHash13ContextVMa, 
                       __T0s17_SipHash13ContextVMf, __T0s17_SipHash13ContextVMn, 
                       __T0s17_SipHash13ContextVN, __T0s17_SipHash13ContextVWV, 
                       __T0s17_SipHash24ContextV15_appendDirectlyys6UInt64VF, 
                       __T0s17_SipHash24ContextV18_hash_alwaysInlines6UInt64VSV4data_Si0H9ByteCountAE_AEt3keytFZ, 
                       __T0s17_SipHash24ContextV20_append_alwaysInlineySV_Si9byteCounttF, 
                       __T0s17_SipHash24ContextV21finalizeAndReturnHashs6UInt64VyF, 
                       __T0s17_SipHash24ContextV35_finalizeAndReturnHash_alwaysInlines6UInt64VyF, 
                       __T0s17_SipHash24ContextV4hashs6UInt64VSV4data_Si0F9ByteCountAE_AEt3keytFZ, 
                       __T0s17_SipHash24ContextV6appendySV_Si9byteCounttF, 
                       __T0s17_SipHash24ContextV6appendySiF, __T0s17_SipHash24ContextV6appendySuF, 
                       __T0s17_SipHash24ContextV6appendys5Int32VF, __T0s17_SipHash24ContextV6appendys5Int64VF, 
                       __T0s17_SipHash24ContextV6appendys6UInt32VF, __T0s17_SipHash24ContextV6appendys6UInt64VF, 
                       __T0s17_SipHash24ContextVABs6UInt64V_ADt3key_tcfC, 
                       __T0s17_SipHash24ContextVMF, __T0s17_SipHash24ContextVMa, 
                       __T0s17_SipHash24ContextVMf, __T0s17_SipHash24ContextVMn, 
                       __T0s17_SipHash24ContextVN, __T0s17_SipHash24ContextVWV, 
                       __T0s17_SwiftNativeNSSetCABycfcTo, __T0s17_SwiftNativeNSSetCMF, 
                       __T0s17_SwiftNativeNSSetCML, __T0s17_SwiftNativeNSSetCMa, 
                       __T0s17_SwiftNativeNSSetCMf, __T0s17_SwiftNativeNSSetCMn, 
                       __T0s17_SwiftNativeNSSetCN, __T0s17_SwiftNativeNSSetCfD, 
                       __T0s17_UnicodeEncoding_Mp, __T0s17_UnicodeEncoding_PsE10_transcode13EncodedScalarQzADQyd___qd__m4fromts01_aB0Rd__lFZ, 
                       __T0s17_UnicodeEncoding_PsE10_transcodeyqd___qd_0_m4fromy13EncodedScalarQzc4intots8SequenceRd__s01_aB0Rd_0_8CodeUnitQyd_0_7ElementRtd__r0_lFZ, 
                       __T0s17_UnicodeEncoding_PsE7_encode13EncodedScalarQzs0A0O0E0VFZ, 
                       __T0s17_UnicodeEncoding_PsE9_isScalarSb8CodeUnitQzFZ, 
                       __T0s17_UnicodeEncoding_PsE9transcode13EncodedScalarQzSgADQyd___qd__m4fromts01_aB0Rd__lFZ, 
                       __T0s17_UnicodeEncoding__pMF, __T0s17_UnwrappingFailedVMF, 
                       __T0s17_UnwrappingFailedVMa, __T0s17_UnwrappingFailedVMf, 
                       __T0s17_UnwrappingFailedVMn, __T0s17_UnwrappingFailedVN, 
                       __T0s17_UnwrappingFailedVWV, __T0s17_UnwrappingFailedVs5ErrorsWP, 
                       __T0s17_UnwrappingFailedVs5ErrorsWa, __T0s17_UnwrappingFailedVs5ErrorssACP7_domainSSfgTWTm, 
                       __T0s17_VariantSetBufferO017maybeGetFromCocoaC0xSgs01_gbC0V_x6forKeytFZ, 
                       __T0s17_VariantSetBufferO018ensureUniqueNativeC0Sb11reallocated_Sb15capacityChangedtSiF, 
                       __T0s17_VariantSetBufferO10startIndexs0B0V0E0Vyx_Gfg, 
                       __T0s17_VariantSetBufferO11removeValuexSgx6forKey_tF, 
                       __T0s17_VariantSetBufferO11updateValuexSgx_x6forKeytF, 
                       __T0s17_VariantSetBufferO11updateValuexSgx_x6forKeytFTm, 
                       __T0s17_VariantSetBufferO12assertingGetxs0B0V5IndexVyx_GF, 
                       __T0s17_VariantSetBufferO12assertingGetxxF, __T0s17_VariantSetBufferO12makeIterators0bE0VyxGyF, 
                       __T0s17_VariantSetBufferO12nativeInsertSb8inserted_x011memberAfterE0tx_x6forKeytF, 
                       __T0s17_VariantSetBufferO12nativeRemovexs07_NativeB5IndexVyxG2at_tF, 
                       __T0s17_VariantSetBufferO15nativeRemoveAllyyF, __T0s17_VariantSetBufferO15reserveCapacityySiF, 
                       __T0s17_VariantSetBufferO15reserveCapacityySiFTm, 
                       __T0s17_VariantSetBufferO17effectiveCapacitySifg, 
                       __T0s17_VariantSetBufferO17nativeUpdateValuexSgx_x6forKeytF, 
                       __T0s17_VariantSetBufferO18nativeRemoveObjectxSgx6forKey_tF, 
